ARM GAS  C:\Users\Password\AppData\Local\Temp\ccOFJB6v.s 			page 1


   1              		.cpu cortex-m0
   2              		.arch armv6s-m
   3              		.fpu softvfp
   4              		.eabi_attribute 20, 1
   5              		.eabi_attribute 21, 1
   6              		.eabi_attribute 23, 3
   7              		.eabi_attribute 24, 1
   8              		.eabi_attribute 25, 1
   9              		.eabi_attribute 26, 1
  10              		.eabi_attribute 30, 1
  11              		.eabi_attribute 34, 0
  12              		.eabi_attribute 18, 4
  13              		.file	"main.c"
  14              		.text
  15              	.Ltext0:
  16              		.cfi_sections	.debug_frame
  17              		.section	.text.MX_GPIO_Init,"ax",%progbits
  18              		.align	1
  19              		.syntax unified
  20              		.code	16
  21              		.thumb_func
  23              	MX_GPIO_Init:
  24              	.LFB46:
  25              		.file 1 "Core/Src/main.c"
   1:Core/Src/main.c **** /* USER CODE BEGIN Header */
   2:Core/Src/main.c **** /**
   3:Core/Src/main.c ****   ******************************************************************************
   4:Core/Src/main.c ****   * @file           : main.c
   5:Core/Src/main.c ****   * @brief          : Main program body
   6:Core/Src/main.c ****   ******************************************************************************
   7:Core/Src/main.c ****   * @attention
   8:Core/Src/main.c ****   *
   9:Core/Src/main.c ****   * Copyright (c) 2022 STMicroelectronics.
  10:Core/Src/main.c ****   * All rights reserved.
  11:Core/Src/main.c ****   *
  12:Core/Src/main.c ****   * This software is licensed under terms that can be found in the LICENSE file
  13:Core/Src/main.c ****   * in the root directory of this software component.
  14:Core/Src/main.c ****   * If no LICENSE file comes with this software, it is provided AS-IS.
  15:Core/Src/main.c ****   *
  16:Core/Src/main.c ****   ******************************************************************************
  17:Core/Src/main.c ****   */
  18:Core/Src/main.c **** /* USER CODE END Header */
  19:Core/Src/main.c **** /* Includes ------------------------------------------------------------------*/
  20:Core/Src/main.c **** #include "main.h"
  21:Core/Src/main.c **** 
  22:Core/Src/main.c **** /* Private includes ----------------------------------------------------------*/
  23:Core/Src/main.c **** /* USER CODE BEGIN Includes */
  24:Core/Src/main.c **** #include "LoRa.h"
  25:Core/Src/main.c **** /* USER CODE END Includes */
  26:Core/Src/main.c **** 
  27:Core/Src/main.c **** /* Private typedef -----------------------------------------------------------*/
  28:Core/Src/main.c **** /* USER CODE BEGIN PTD */
  29:Core/Src/main.c **** LoRa rxLoRa;
  30:Core/Src/main.c **** /* USER CODE END PTD */
  31:Core/Src/main.c **** 
  32:Core/Src/main.c **** /* Private define ------------------------------------------------------------*/
  33:Core/Src/main.c **** /* USER CODE BEGIN PD */
ARM GAS  C:\Users\Password\AppData\Local\Temp\ccOFJB6v.s 			page 2


  34:Core/Src/main.c **** /* USER CODE END PD */
  35:Core/Src/main.c **** 
  36:Core/Src/main.c **** /* Private macro -------------------------------------------------------------*/
  37:Core/Src/main.c **** /* USER CODE BEGIN PM */
  38:Core/Src/main.c **** 
  39:Core/Src/main.c **** /* USER CODE END PM */
  40:Core/Src/main.c **** 
  41:Core/Src/main.c **** /* Private variables ---------------------------------------------------------*/
  42:Core/Src/main.c **** ADC_HandleTypeDef hadc;
  43:Core/Src/main.c **** 
  44:Core/Src/main.c **** I2C_HandleTypeDef hi2c1;
  45:Core/Src/main.c **** 
  46:Core/Src/main.c **** SPI_HandleTypeDef hspi1;
  47:Core/Src/main.c **** 
  48:Core/Src/main.c **** UART_HandleTypeDef huart1;
  49:Core/Src/main.c **** 
  50:Core/Src/main.c **** /* USER CODE BEGIN PV */
  51:Core/Src/main.c **** uint8_t receiveData[3] = {0};
  52:Core/Src/main.c **** uint8_t transmitData[3] = {0};
  53:Core/Src/main.c **** 
  54:Core/Src/main.c **** /* USER CODE END PV */
  55:Core/Src/main.c **** 
  56:Core/Src/main.c **** /* Private function prototypes -----------------------------------------------*/
  57:Core/Src/main.c **** void SystemClock_Config(void);
  58:Core/Src/main.c **** static void MX_GPIO_Init(void);
  59:Core/Src/main.c **** static void MX_ADC_Init(void);
  60:Core/Src/main.c **** static void MX_I2C1_Init(void);
  61:Core/Src/main.c **** static void MX_SPI1_Init(void);
  62:Core/Src/main.c **** static void MX_USART1_UART_Init(void);
  63:Core/Src/main.c **** /* USER CODE BEGIN PFP */
  64:Core/Src/main.c **** 
  65:Core/Src/main.c **** /* USER CODE END PFP */
  66:Core/Src/main.c **** 
  67:Core/Src/main.c **** /* Private user code ---------------------------------------------------------*/
  68:Core/Src/main.c **** /* USER CODE BEGIN 0 */
  69:Core/Src/main.c **** 
  70:Core/Src/main.c **** /* USER CODE END 0 */
  71:Core/Src/main.c **** 
  72:Core/Src/main.c **** /**
  73:Core/Src/main.c ****   * @brief  The application entry point.
  74:Core/Src/main.c ****   * @retval int
  75:Core/Src/main.c ****   */
  76:Core/Src/main.c **** int main(void)
  77:Core/Src/main.c **** {
  78:Core/Src/main.c ****   /* USER CODE BEGIN 1 */
  79:Core/Src/main.c **** 
  80:Core/Src/main.c ****   /* USER CODE END 1 */
  81:Core/Src/main.c **** 
  82:Core/Src/main.c ****   /* MCU Configuration--------------------------------------------------------*/
  83:Core/Src/main.c **** 
  84:Core/Src/main.c ****   /* Reset of all peripherals, Initializes the Flash interface and the Systick. */
  85:Core/Src/main.c ****   HAL_Init();
  86:Core/Src/main.c **** 
  87:Core/Src/main.c ****   /* USER CODE BEGIN Init */
  88:Core/Src/main.c **** 
  89:Core/Src/main.c ****   /* USER CODE END Init */
  90:Core/Src/main.c **** 
ARM GAS  C:\Users\Password\AppData\Local\Temp\ccOFJB6v.s 			page 3


  91:Core/Src/main.c ****   /* Configure the system clock */
  92:Core/Src/main.c ****   SystemClock_Config();
  93:Core/Src/main.c **** 
  94:Core/Src/main.c ****   /* USER CODE BEGIN SysInit */
  95:Core/Src/main.c **** 
  96:Core/Src/main.c ****   /* USER CODE END SysInit */
  97:Core/Src/main.c **** 
  98:Core/Src/main.c ****   /* Initialize all configured peripherals */
  99:Core/Src/main.c ****   MX_GPIO_Init();
 100:Core/Src/main.c ****   MX_ADC_Init();
 101:Core/Src/main.c ****   MX_I2C1_Init();
 102:Core/Src/main.c ****   MX_SPI1_Init();
 103:Core/Src/main.c ****   MX_USART1_UART_Init();
 104:Core/Src/main.c ****   /* USER CODE BEGIN 2 */
 105:Core/Src/main.c **** 
 106:Core/Src/main.c ****   rxLoRa = newLoRa();
 107:Core/Src/main.c ****   rxLoRa.CS_port = LORA_NCS_GPIO_Port;
 108:Core/Src/main.c ****   rxLoRa.CS_pin = LORA_NCS_Pin;
 109:Core/Src/main.c ****   rxLoRa.reset_port = LORA_RST_GPIO_Port;
 110:Core/Src/main.c ****   rxLoRa.reset_pin = LORA_RST_Pin;
 111:Core/Src/main.c ****   rxLoRa.DIO0_port = LORA_INT_GPIO_Port;
 112:Core/Src/main.c ****   rxLoRa.DIO0_pin = LORA_INT_Pin;
 113:Core/Src/main.c ****   rxLoRa.hSPIx = &hspi1;
 114:Core/Src/main.c **** 
 115:Core/Src/main.c ****   rxLoRa.frequency = 433;             // default = 433 MHz
 116:Core/Src/main.c ****   rxLoRa.spredingFactor = SF_7;       // default = SF_7
 117:Core/Src/main.c ****   rxLoRa.bandWidth = BW_125KHz;       // default = BW_125KHz
 118:Core/Src/main.c ****   rxLoRa.crcRate = CR_4_5;            // default = CR_4_5
 119:Core/Src/main.c ****   rxLoRa.power = POWER_17db;          // default = 20db
 120:Core/Src/main.c ****   rxLoRa.overCurrentProtection = 100; // default = 100 mA
 121:Core/Src/main.c ****   rxLoRa.preamble = 10;               // default = 8;
 122:Core/Src/main.c **** 
 123:Core/Src/main.c ****   LoRa_reset(&rxLoRa);
 124:Core/Src/main.c ****   LoRa_init(&rxLoRa);
 125:Core/Src/main.c **** 
 126:Core/Src/main.c ****   /* USER CODE END 2 */
 127:Core/Src/main.c **** 
 128:Core/Src/main.c ****   /* Infinite loop */
 129:Core/Src/main.c ****   /* USER CODE BEGIN WHILE */
 130:Core/Src/main.c ****   LoRa_gotoMode(&rxLoRa, RXCONTIN_MODE);
 131:Core/Src/main.c ****   while (1)
 132:Core/Src/main.c ****   {
 133:Core/Src/main.c ****     /* USER CODE END WHILE */
 134:Core/Src/main.c **** 
 135:Core/Src/main.c ****     /* USER CODE BEGIN 3 */
 136:Core/Src/main.c ****     // HAL_GPIO_TogglePin(LED_BLUE_GPIO_Port,LED_BLUE_Pin);
 137:Core/Src/main.c ****     // HAL_Delay(200);
 138:Core/Src/main.c ****     // HAL_GPIO_TogglePin(LED_RED_GPIO_Port,LED_RED_Pin);
 139:Core/Src/main.c ****     if (LoRa_receive(&rxLoRa, receiveData, 3) == 3){
 140:Core/Src/main.c ****       if (receiveData[1] == 1){
 141:Core/Src/main.c ****         HAL_GPIO_WritePin(LED_BLUE_GPIO_Port,LED_BLUE_Pin,GPIO_PIN_SET);
 142:Core/Src/main.c ****         HAL_GPIO_WritePin(LED_RED_GPIO_Port,LED_RED_Pin,GPIO_PIN_RESET);
 143:Core/Src/main.c ****       }
 144:Core/Src/main.c ****       else if (receiveData[1] == 2){
 145:Core/Src/main.c ****         HAL_GPIO_WritePin(LED_RED_GPIO_Port,LED_RED_Pin,GPIO_PIN_SET);
 146:Core/Src/main.c ****         HAL_GPIO_WritePin(LED_BLUE_GPIO_Port,LED_BLUE_Pin,GPIO_PIN_RESET);
 147:Core/Src/main.c ****       }    
ARM GAS  C:\Users\Password\AppData\Local\Temp\ccOFJB6v.s 			page 4


 148:Core/Src/main.c ****     }
 149:Core/Src/main.c ****   }
 150:Core/Src/main.c ****   /* USER CODE END 3 */
 151:Core/Src/main.c **** }
 152:Core/Src/main.c **** 
 153:Core/Src/main.c **** /**
 154:Core/Src/main.c ****   * @brief System Clock Configuration
 155:Core/Src/main.c ****   * @retval None
 156:Core/Src/main.c ****   */
 157:Core/Src/main.c **** void SystemClock_Config(void)
 158:Core/Src/main.c **** {
 159:Core/Src/main.c ****   RCC_OscInitTypeDef RCC_OscInitStruct = {0};
 160:Core/Src/main.c ****   RCC_ClkInitTypeDef RCC_ClkInitStruct = {0};
 161:Core/Src/main.c ****   RCC_PeriphCLKInitTypeDef PeriphClkInit = {0};
 162:Core/Src/main.c **** 
 163:Core/Src/main.c ****   /** Initializes the RCC Oscillators according to the specified parameters
 164:Core/Src/main.c ****   * in the RCC_OscInitTypeDef structure.
 165:Core/Src/main.c ****   */
 166:Core/Src/main.c ****   RCC_OscInitStruct.OscillatorType = RCC_OSCILLATORTYPE_HSI|RCC_OSCILLATORTYPE_HSI14;
 167:Core/Src/main.c ****   RCC_OscInitStruct.HSIState = RCC_HSI_ON;
 168:Core/Src/main.c ****   RCC_OscInitStruct.HSI14State = RCC_HSI14_ON;
 169:Core/Src/main.c ****   RCC_OscInitStruct.HSICalibrationValue = RCC_HSICALIBRATION_DEFAULT;
 170:Core/Src/main.c ****   RCC_OscInitStruct.HSI14CalibrationValue = 16;
 171:Core/Src/main.c ****   RCC_OscInitStruct.PLL.PLLState = RCC_PLL_ON;
 172:Core/Src/main.c ****   RCC_OscInitStruct.PLL.PLLSource = RCC_PLLSOURCE_HSI;
 173:Core/Src/main.c ****   RCC_OscInitStruct.PLL.PLLMUL = RCC_PLL_MUL12;
 174:Core/Src/main.c ****   RCC_OscInitStruct.PLL.PREDIV = RCC_PREDIV_DIV1;
 175:Core/Src/main.c ****   if (HAL_RCC_OscConfig(&RCC_OscInitStruct) != HAL_OK)
 176:Core/Src/main.c ****   {
 177:Core/Src/main.c ****     Error_Handler();
 178:Core/Src/main.c ****   }
 179:Core/Src/main.c **** 
 180:Core/Src/main.c ****   /** Initializes the CPU, AHB and APB buses clocks
 181:Core/Src/main.c ****   */
 182:Core/Src/main.c ****   RCC_ClkInitStruct.ClockType = RCC_CLOCKTYPE_HCLK|RCC_CLOCKTYPE_SYSCLK
 183:Core/Src/main.c ****                               |RCC_CLOCKTYPE_PCLK1;
 184:Core/Src/main.c ****   RCC_ClkInitStruct.SYSCLKSource = RCC_SYSCLKSOURCE_PLLCLK;
 185:Core/Src/main.c ****   RCC_ClkInitStruct.AHBCLKDivider = RCC_SYSCLK_DIV1;
 186:Core/Src/main.c ****   RCC_ClkInitStruct.APB1CLKDivider = RCC_HCLK_DIV1;
 187:Core/Src/main.c **** 
 188:Core/Src/main.c ****   if (HAL_RCC_ClockConfig(&RCC_ClkInitStruct, FLASH_LATENCY_1) != HAL_OK)
 189:Core/Src/main.c ****   {
 190:Core/Src/main.c ****     Error_Handler();
 191:Core/Src/main.c ****   }
 192:Core/Src/main.c ****   PeriphClkInit.PeriphClockSelection = RCC_PERIPHCLK_USART1|RCC_PERIPHCLK_I2C1;
 193:Core/Src/main.c ****   PeriphClkInit.Usart1ClockSelection = RCC_USART1CLKSOURCE_PCLK1;
 194:Core/Src/main.c ****   PeriphClkInit.I2c1ClockSelection = RCC_I2C1CLKSOURCE_SYSCLK;
 195:Core/Src/main.c ****   if (HAL_RCCEx_PeriphCLKConfig(&PeriphClkInit) != HAL_OK)
 196:Core/Src/main.c ****   {
 197:Core/Src/main.c ****     Error_Handler();
 198:Core/Src/main.c ****   }
 199:Core/Src/main.c **** }
 200:Core/Src/main.c **** 
 201:Core/Src/main.c **** /**
 202:Core/Src/main.c ****   * @brief ADC Initialization Function
 203:Core/Src/main.c ****   * @param None
 204:Core/Src/main.c ****   * @retval None
ARM GAS  C:\Users\Password\AppData\Local\Temp\ccOFJB6v.s 			page 5


 205:Core/Src/main.c ****   */
 206:Core/Src/main.c **** static void MX_ADC_Init(void)
 207:Core/Src/main.c **** {
 208:Core/Src/main.c **** 
 209:Core/Src/main.c ****   /* USER CODE BEGIN ADC_Init 0 */
 210:Core/Src/main.c **** 
 211:Core/Src/main.c ****   /* USER CODE END ADC_Init 0 */
 212:Core/Src/main.c **** 
 213:Core/Src/main.c ****   ADC_ChannelConfTypeDef sConfig = {0};
 214:Core/Src/main.c **** 
 215:Core/Src/main.c ****   /* USER CODE BEGIN ADC_Init 1 */
 216:Core/Src/main.c **** 
 217:Core/Src/main.c ****   /* USER CODE END ADC_Init 1 */
 218:Core/Src/main.c **** 
 219:Core/Src/main.c ****   /** Configure the global features of the ADC (Clock, Resolution, Data Alignment and number of con
 220:Core/Src/main.c ****   */
 221:Core/Src/main.c ****   hadc.Instance = ADC1;
 222:Core/Src/main.c ****   hadc.Init.ClockPrescaler = ADC_CLOCK_ASYNC_DIV1;
 223:Core/Src/main.c ****   hadc.Init.Resolution = ADC_RESOLUTION_12B;
 224:Core/Src/main.c ****   hadc.Init.DataAlign = ADC_DATAALIGN_RIGHT;
 225:Core/Src/main.c ****   hadc.Init.ScanConvMode = ADC_SCAN_DIRECTION_FORWARD;
 226:Core/Src/main.c ****   hadc.Init.EOCSelection = ADC_EOC_SINGLE_CONV;
 227:Core/Src/main.c ****   hadc.Init.LowPowerAutoWait = DISABLE;
 228:Core/Src/main.c ****   hadc.Init.LowPowerAutoPowerOff = DISABLE;
 229:Core/Src/main.c ****   hadc.Init.ContinuousConvMode = DISABLE;
 230:Core/Src/main.c ****   hadc.Init.DiscontinuousConvMode = DISABLE;
 231:Core/Src/main.c ****   hadc.Init.ExternalTrigConv = ADC_SOFTWARE_START;
 232:Core/Src/main.c ****   hadc.Init.ExternalTrigConvEdge = ADC_EXTERNALTRIGCONVEDGE_NONE;
 233:Core/Src/main.c ****   hadc.Init.DMAContinuousRequests = DISABLE;
 234:Core/Src/main.c ****   hadc.Init.Overrun = ADC_OVR_DATA_PRESERVED;
 235:Core/Src/main.c ****   if (HAL_ADC_Init(&hadc) != HAL_OK)
 236:Core/Src/main.c ****   {
 237:Core/Src/main.c ****     Error_Handler();
 238:Core/Src/main.c ****   }
 239:Core/Src/main.c **** 
 240:Core/Src/main.c ****   /** Configure for the selected ADC regular channel to be converted.
 241:Core/Src/main.c ****   */
 242:Core/Src/main.c ****   sConfig.Channel = ADC_CHANNEL_0;
 243:Core/Src/main.c ****   sConfig.Rank = ADC_RANK_CHANNEL_NUMBER;
 244:Core/Src/main.c ****   sConfig.SamplingTime = ADC_SAMPLETIME_1CYCLE_5;
 245:Core/Src/main.c ****   if (HAL_ADC_ConfigChannel(&hadc, &sConfig) != HAL_OK)
 246:Core/Src/main.c ****   {
 247:Core/Src/main.c ****     Error_Handler();
 248:Core/Src/main.c ****   }
 249:Core/Src/main.c ****   /* USER CODE BEGIN ADC_Init 2 */
 250:Core/Src/main.c **** 
 251:Core/Src/main.c ****   /* USER CODE END ADC_Init 2 */
 252:Core/Src/main.c **** 
 253:Core/Src/main.c **** }
 254:Core/Src/main.c **** 
 255:Core/Src/main.c **** /**
 256:Core/Src/main.c ****   * @brief I2C1 Initialization Function
 257:Core/Src/main.c ****   * @param None
 258:Core/Src/main.c ****   * @retval None
 259:Core/Src/main.c ****   */
 260:Core/Src/main.c **** static void MX_I2C1_Init(void)
 261:Core/Src/main.c **** {
ARM GAS  C:\Users\Password\AppData\Local\Temp\ccOFJB6v.s 			page 6


 262:Core/Src/main.c **** 
 263:Core/Src/main.c ****   /* USER CODE BEGIN I2C1_Init 0 */
 264:Core/Src/main.c **** 
 265:Core/Src/main.c ****   /* USER CODE END I2C1_Init 0 */
 266:Core/Src/main.c **** 
 267:Core/Src/main.c ****   /* USER CODE BEGIN I2C1_Init 1 */
 268:Core/Src/main.c **** 
 269:Core/Src/main.c ****   /* USER CODE END I2C1_Init 1 */
 270:Core/Src/main.c ****   hi2c1.Instance = I2C1;
 271:Core/Src/main.c ****   hi2c1.Init.Timing = 0x20303E5D;
 272:Core/Src/main.c ****   hi2c1.Init.OwnAddress1 = 0;
 273:Core/Src/main.c ****   hi2c1.Init.AddressingMode = I2C_ADDRESSINGMODE_7BIT;
 274:Core/Src/main.c ****   hi2c1.Init.DualAddressMode = I2C_DUALADDRESS_DISABLE;
 275:Core/Src/main.c ****   hi2c1.Init.OwnAddress2 = 0;
 276:Core/Src/main.c ****   hi2c1.Init.OwnAddress2Masks = I2C_OA2_NOMASK;
 277:Core/Src/main.c ****   hi2c1.Init.GeneralCallMode = I2C_GENERALCALL_DISABLE;
 278:Core/Src/main.c ****   hi2c1.Init.NoStretchMode = I2C_NOSTRETCH_DISABLE;
 279:Core/Src/main.c ****   if (HAL_I2C_Init(&hi2c1) != HAL_OK)
 280:Core/Src/main.c ****   {
 281:Core/Src/main.c ****     Error_Handler();
 282:Core/Src/main.c ****   }
 283:Core/Src/main.c **** 
 284:Core/Src/main.c ****   /** Configure Analogue filter
 285:Core/Src/main.c ****   */
 286:Core/Src/main.c ****   if (HAL_I2CEx_ConfigAnalogFilter(&hi2c1, I2C_ANALOGFILTER_ENABLE) != HAL_OK)
 287:Core/Src/main.c ****   {
 288:Core/Src/main.c ****     Error_Handler();
 289:Core/Src/main.c ****   }
 290:Core/Src/main.c **** 
 291:Core/Src/main.c ****   /** Configure Digital filter
 292:Core/Src/main.c ****   */
 293:Core/Src/main.c ****   if (HAL_I2CEx_ConfigDigitalFilter(&hi2c1, 0) != HAL_OK)
 294:Core/Src/main.c ****   {
 295:Core/Src/main.c ****     Error_Handler();
 296:Core/Src/main.c ****   }
 297:Core/Src/main.c ****   /* USER CODE BEGIN I2C1_Init 2 */
 298:Core/Src/main.c **** 
 299:Core/Src/main.c ****   /* USER CODE END I2C1_Init 2 */
 300:Core/Src/main.c **** 
 301:Core/Src/main.c **** }
 302:Core/Src/main.c **** 
 303:Core/Src/main.c **** /**
 304:Core/Src/main.c ****   * @brief SPI1 Initialization Function
 305:Core/Src/main.c ****   * @param None
 306:Core/Src/main.c ****   * @retval None
 307:Core/Src/main.c ****   */
 308:Core/Src/main.c **** static void MX_SPI1_Init(void)
 309:Core/Src/main.c **** {
 310:Core/Src/main.c **** 
 311:Core/Src/main.c ****   /* USER CODE BEGIN SPI1_Init 0 */
 312:Core/Src/main.c **** 
 313:Core/Src/main.c ****   /* USER CODE END SPI1_Init 0 */
 314:Core/Src/main.c **** 
 315:Core/Src/main.c ****   /* USER CODE BEGIN SPI1_Init 1 */
 316:Core/Src/main.c **** 
 317:Core/Src/main.c ****   /* USER CODE END SPI1_Init 1 */
 318:Core/Src/main.c ****   /* SPI1 parameter configuration*/
ARM GAS  C:\Users\Password\AppData\Local\Temp\ccOFJB6v.s 			page 7


 319:Core/Src/main.c ****   hspi1.Instance = SPI1;
 320:Core/Src/main.c ****   hspi1.Init.Mode = SPI_MODE_MASTER;
 321:Core/Src/main.c ****   hspi1.Init.Direction = SPI_DIRECTION_2LINES;
 322:Core/Src/main.c ****   hspi1.Init.DataSize = SPI_DATASIZE_4BIT;
 323:Core/Src/main.c ****   hspi1.Init.CLKPolarity = SPI_POLARITY_LOW;
 324:Core/Src/main.c ****   hspi1.Init.CLKPhase = SPI_PHASE_1EDGE;
 325:Core/Src/main.c ****   hspi1.Init.NSS = SPI_NSS_SOFT;
 326:Core/Src/main.c ****   hspi1.Init.BaudRatePrescaler = SPI_BAUDRATEPRESCALER_4;
 327:Core/Src/main.c ****   hspi1.Init.FirstBit = SPI_FIRSTBIT_MSB;
 328:Core/Src/main.c ****   hspi1.Init.TIMode = SPI_TIMODE_DISABLE;
 329:Core/Src/main.c ****   hspi1.Init.CRCCalculation = SPI_CRCCALCULATION_DISABLE;
 330:Core/Src/main.c ****   hspi1.Init.CRCPolynomial = 7;
 331:Core/Src/main.c ****   hspi1.Init.CRCLength = SPI_CRC_LENGTH_DATASIZE;
 332:Core/Src/main.c ****   hspi1.Init.NSSPMode = SPI_NSS_PULSE_ENABLE;
 333:Core/Src/main.c ****   if (HAL_SPI_Init(&hspi1) != HAL_OK)
 334:Core/Src/main.c ****   {
 335:Core/Src/main.c ****     Error_Handler();
 336:Core/Src/main.c ****   }
 337:Core/Src/main.c ****   /* USER CODE BEGIN SPI1_Init 2 */
 338:Core/Src/main.c **** 
 339:Core/Src/main.c ****   /* USER CODE END SPI1_Init 2 */
 340:Core/Src/main.c **** 
 341:Core/Src/main.c **** }
 342:Core/Src/main.c **** 
 343:Core/Src/main.c **** /**
 344:Core/Src/main.c ****   * @brief USART1 Initialization Function
 345:Core/Src/main.c ****   * @param None
 346:Core/Src/main.c ****   * @retval None
 347:Core/Src/main.c ****   */
 348:Core/Src/main.c **** static void MX_USART1_UART_Init(void)
 349:Core/Src/main.c **** {
 350:Core/Src/main.c **** 
 351:Core/Src/main.c ****   /* USER CODE BEGIN USART1_Init 0 */
 352:Core/Src/main.c **** 
 353:Core/Src/main.c ****   /* USER CODE END USART1_Init 0 */
 354:Core/Src/main.c **** 
 355:Core/Src/main.c ****   /* USER CODE BEGIN USART1_Init 1 */
 356:Core/Src/main.c **** 
 357:Core/Src/main.c ****   /* USER CODE END USART1_Init 1 */
 358:Core/Src/main.c ****   huart1.Instance = USART1;
 359:Core/Src/main.c ****   huart1.Init.BaudRate = 38400;
 360:Core/Src/main.c ****   huart1.Init.WordLength = UART_WORDLENGTH_8B;
 361:Core/Src/main.c ****   huart1.Init.StopBits = UART_STOPBITS_1;
 362:Core/Src/main.c ****   huart1.Init.Parity = UART_PARITY_NONE;
 363:Core/Src/main.c ****   huart1.Init.Mode = UART_MODE_TX_RX;
 364:Core/Src/main.c ****   huart1.Init.HwFlowCtl = UART_HWCONTROL_NONE;
 365:Core/Src/main.c ****   huart1.Init.OverSampling = UART_OVERSAMPLING_16;
 366:Core/Src/main.c ****   huart1.Init.OneBitSampling = UART_ONE_BIT_SAMPLE_DISABLE;
 367:Core/Src/main.c ****   huart1.AdvancedInit.AdvFeatureInit = UART_ADVFEATURE_NO_INIT;
 368:Core/Src/main.c ****   if (HAL_UART_Init(&huart1) != HAL_OK)
 369:Core/Src/main.c ****   {
 370:Core/Src/main.c ****     Error_Handler();
 371:Core/Src/main.c ****   }
 372:Core/Src/main.c ****   /* USER CODE BEGIN USART1_Init 2 */
 373:Core/Src/main.c **** 
 374:Core/Src/main.c ****   /* USER CODE END USART1_Init 2 */
 375:Core/Src/main.c **** 
ARM GAS  C:\Users\Password\AppData\Local\Temp\ccOFJB6v.s 			page 8


 376:Core/Src/main.c **** }
 377:Core/Src/main.c **** 
 378:Core/Src/main.c **** /**
 379:Core/Src/main.c ****   * @brief GPIO Initialization Function
 380:Core/Src/main.c ****   * @param None
 381:Core/Src/main.c ****   * @retval None
 382:Core/Src/main.c ****   */
 383:Core/Src/main.c **** static void MX_GPIO_Init(void)
 384:Core/Src/main.c **** {
  26              		.loc 1 384 1 view -0
  27              		.cfi_startproc
  28              		@ args = 0, pretend = 0, frame = 32
  29              		@ frame_needed = 0, uses_anonymous_args = 0
  30 0000 F0B5     		push	{r4, r5, r6, r7, lr}
  31              	.LCFI0:
  32              		.cfi_def_cfa_offset 20
  33              		.cfi_offset 4, -20
  34              		.cfi_offset 5, -16
  35              		.cfi_offset 6, -12
  36              		.cfi_offset 7, -8
  37              		.cfi_offset 14, -4
  38 0002 C646     		mov	lr, r8
  39 0004 00B5     		push	{lr}
  40              	.LCFI1:
  41              		.cfi_def_cfa_offset 24
  42              		.cfi_offset 8, -24
  43 0006 88B0     		sub	sp, sp, #32
  44              	.LCFI2:
  45              		.cfi_def_cfa_offset 56
 385:Core/Src/main.c ****   GPIO_InitTypeDef GPIO_InitStruct = {0};
  46              		.loc 1 385 3 view .LVU1
  47              		.loc 1 385 20 is_stmt 0 view .LVU2
  48 0008 1422     		movs	r2, #20
  49 000a 0021     		movs	r1, #0
  50 000c 03A8     		add	r0, sp, #12
  51 000e FFF7FEFF 		bl	memset
  52              	.LVL0:
 386:Core/Src/main.c **** 
 387:Core/Src/main.c ****   /* GPIO Ports Clock Enable */
 388:Core/Src/main.c ****   __HAL_RCC_GPIOF_CLK_ENABLE();
  53              		.loc 1 388 3 is_stmt 1 view .LVU3
  54              	.LBB4:
  55              		.loc 1 388 3 view .LVU4
  56              		.loc 1 388 3 view .LVU5
  57 0012 2E4B     		ldr	r3, .L2
  58 0014 5A69     		ldr	r2, [r3, #20]
  59 0016 8021     		movs	r1, #128
  60 0018 C903     		lsls	r1, r1, #15
  61 001a 0A43     		orrs	r2, r1
  62 001c 5A61     		str	r2, [r3, #20]
  63              		.loc 1 388 3 view .LVU6
  64 001e 5A69     		ldr	r2, [r3, #20]
  65 0020 0A40     		ands	r2, r1
  66 0022 0092     		str	r2, [sp]
  67              		.loc 1 388 3 view .LVU7
  68 0024 009A     		ldr	r2, [sp]
  69              	.LBE4:
ARM GAS  C:\Users\Password\AppData\Local\Temp\ccOFJB6v.s 			page 9


  70              		.loc 1 388 3 view .LVU8
 389:Core/Src/main.c ****   __HAL_RCC_GPIOA_CLK_ENABLE();
  71              		.loc 1 389 3 view .LVU9
  72              	.LBB5:
  73              		.loc 1 389 3 view .LVU10
  74              		.loc 1 389 3 view .LVU11
  75 0026 5A69     		ldr	r2, [r3, #20]
  76 0028 8021     		movs	r1, #128
  77 002a 8902     		lsls	r1, r1, #10
  78 002c 0A43     		orrs	r2, r1
  79 002e 5A61     		str	r2, [r3, #20]
  80              		.loc 1 389 3 view .LVU12
  81 0030 5A69     		ldr	r2, [r3, #20]
  82 0032 0A40     		ands	r2, r1
  83 0034 0192     		str	r2, [sp, #4]
  84              		.loc 1 389 3 view .LVU13
  85 0036 019A     		ldr	r2, [sp, #4]
  86              	.LBE5:
  87              		.loc 1 389 3 view .LVU14
 390:Core/Src/main.c ****   __HAL_RCC_GPIOB_CLK_ENABLE();
  88              		.loc 1 390 3 view .LVU15
  89              	.LBB6:
  90              		.loc 1 390 3 view .LVU16
  91              		.loc 1 390 3 view .LVU17
  92 0038 5A69     		ldr	r2, [r3, #20]
  93 003a 8021     		movs	r1, #128
  94 003c C902     		lsls	r1, r1, #11
  95 003e 0A43     		orrs	r2, r1
  96 0040 5A61     		str	r2, [r3, #20]
  97              		.loc 1 390 3 view .LVU18
  98 0042 5B69     		ldr	r3, [r3, #20]
  99 0044 0B40     		ands	r3, r1
 100 0046 0293     		str	r3, [sp, #8]
 101              		.loc 1 390 3 view .LVU19
 102 0048 029B     		ldr	r3, [sp, #8]
 103              	.LBE6:
 104              		.loc 1 390 3 view .LVU20
 391:Core/Src/main.c **** 
 392:Core/Src/main.c ****   /*Configure GPIO pin Output Level */
 393:Core/Src/main.c ****   HAL_GPIO_WritePin(GPIOF, LED_RED_Pin|LED_BLUE_Pin, GPIO_PIN_RESET);
 105              		.loc 1 393 3 view .LVU21
 106 004a 214B     		ldr	r3, .L2+4
 107 004c 9846     		mov	r8, r3
 108 004e 0022     		movs	r2, #0
 109 0050 0321     		movs	r1, #3
 110 0052 1800     		movs	r0, r3
 111 0054 FFF7FEFF 		bl	HAL_GPIO_WritePin
 112              	.LVL1:
 394:Core/Src/main.c **** 
 395:Core/Src/main.c ****   /*Configure GPIO pin Output Level */
 396:Core/Src/main.c ****   HAL_GPIO_WritePin(LORA_NCS_GPIO_Port, LORA_NCS_Pin, GPIO_PIN_RESET);
 113              		.loc 1 396 3 view .LVU22
 114 0058 9026     		movs	r6, #144
 115 005a F605     		lsls	r6, r6, #23
 116 005c 0022     		movs	r2, #0
 117 005e 1021     		movs	r1, #16
 118 0060 3000     		movs	r0, r6
ARM GAS  C:\Users\Password\AppData\Local\Temp\ccOFJB6v.s 			page 10


 119 0062 FFF7FEFF 		bl	HAL_GPIO_WritePin
 120              	.LVL2:
 397:Core/Src/main.c **** 
 398:Core/Src/main.c ****   /*Configure GPIO pin Output Level */
 399:Core/Src/main.c ****   HAL_GPIO_WritePin(LORA_RST_GPIO_Port, LORA_RST_Pin, GPIO_PIN_RESET);
 121              		.loc 1 399 3 view .LVU23
 122 0066 1B4F     		ldr	r7, .L2+8
 123 0068 0022     		movs	r2, #0
 124 006a 0221     		movs	r1, #2
 125 006c 3800     		movs	r0, r7
 126 006e FFF7FEFF 		bl	HAL_GPIO_WritePin
 127              	.LVL3:
 400:Core/Src/main.c **** 
 401:Core/Src/main.c ****   /*Configure GPIO pins : LED_RED_Pin LED_BLUE_Pin */
 402:Core/Src/main.c ****   GPIO_InitStruct.Pin = LED_RED_Pin|LED_BLUE_Pin;
 128              		.loc 1 402 3 view .LVU24
 129              		.loc 1 402 23 is_stmt 0 view .LVU25
 130 0072 0323     		movs	r3, #3
 131 0074 0393     		str	r3, [sp, #12]
 403:Core/Src/main.c ****   GPIO_InitStruct.Mode = GPIO_MODE_OUTPUT_PP;
 132              		.loc 1 403 3 is_stmt 1 view .LVU26
 133              		.loc 1 403 24 is_stmt 0 view .LVU27
 134 0076 0125     		movs	r5, #1
 135 0078 0495     		str	r5, [sp, #16]
 404:Core/Src/main.c ****   GPIO_InitStruct.Pull = GPIO_NOPULL;
 136              		.loc 1 404 3 is_stmt 1 view .LVU28
 137              		.loc 1 404 24 is_stmt 0 view .LVU29
 138 007a 0024     		movs	r4, #0
 139 007c 0594     		str	r4, [sp, #20]
 405:Core/Src/main.c ****   GPIO_InitStruct.Speed = GPIO_SPEED_FREQ_LOW;
 140              		.loc 1 405 3 is_stmt 1 view .LVU30
 141              		.loc 1 405 25 is_stmt 0 view .LVU31
 142 007e 0694     		str	r4, [sp, #24]
 406:Core/Src/main.c ****   HAL_GPIO_Init(GPIOF, &GPIO_InitStruct);
 143              		.loc 1 406 3 is_stmt 1 view .LVU32
 144 0080 03A9     		add	r1, sp, #12
 145 0082 4046     		mov	r0, r8
 146 0084 FFF7FEFF 		bl	HAL_GPIO_Init
 147              	.LVL4:
 407:Core/Src/main.c **** 
 408:Core/Src/main.c ****   /*Configure GPIO pin : LORA_INT_Pin */
 409:Core/Src/main.c ****   GPIO_InitStruct.Pin = LORA_INT_Pin;
 148              		.loc 1 409 3 view .LVU33
 149              		.loc 1 409 23 is_stmt 0 view .LVU34
 150 0088 0223     		movs	r3, #2
 151 008a 9846     		mov	r8, r3
 152 008c 0393     		str	r3, [sp, #12]
 410:Core/Src/main.c ****   GPIO_InitStruct.Mode = GPIO_MODE_IT_RISING;
 153              		.loc 1 410 3 is_stmt 1 view .LVU35
 154              		.loc 1 410 24 is_stmt 0 view .LVU36
 155 008e 8823     		movs	r3, #136
 156 0090 5B03     		lsls	r3, r3, #13
 157 0092 0493     		str	r3, [sp, #16]
 411:Core/Src/main.c ****   GPIO_InitStruct.Pull = GPIO_NOPULL;
 158              		.loc 1 411 3 is_stmt 1 view .LVU37
 159              		.loc 1 411 24 is_stmt 0 view .LVU38
 160 0094 0594     		str	r4, [sp, #20]
ARM GAS  C:\Users\Password\AppData\Local\Temp\ccOFJB6v.s 			page 11


 412:Core/Src/main.c ****   HAL_GPIO_Init(LORA_INT_GPIO_Port, &GPIO_InitStruct);
 161              		.loc 1 412 3 is_stmt 1 view .LVU39
 162 0096 03A9     		add	r1, sp, #12
 163 0098 3000     		movs	r0, r6
 164 009a FFF7FEFF 		bl	HAL_GPIO_Init
 165              	.LVL5:
 413:Core/Src/main.c **** 
 414:Core/Src/main.c ****   /*Configure GPIO pin : LORA_NCS_Pin */
 415:Core/Src/main.c ****   GPIO_InitStruct.Pin = LORA_NCS_Pin;
 166              		.loc 1 415 3 view .LVU40
 167              		.loc 1 415 23 is_stmt 0 view .LVU41
 168 009e 1023     		movs	r3, #16
 169 00a0 0393     		str	r3, [sp, #12]
 416:Core/Src/main.c ****   GPIO_InitStruct.Mode = GPIO_MODE_OUTPUT_PP;
 170              		.loc 1 416 3 is_stmt 1 view .LVU42
 171              		.loc 1 416 24 is_stmt 0 view .LVU43
 172 00a2 0495     		str	r5, [sp, #16]
 417:Core/Src/main.c ****   GPIO_InitStruct.Pull = GPIO_NOPULL;
 173              		.loc 1 417 3 is_stmt 1 view .LVU44
 174              		.loc 1 417 24 is_stmt 0 view .LVU45
 175 00a4 0594     		str	r4, [sp, #20]
 418:Core/Src/main.c ****   GPIO_InitStruct.Speed = GPIO_SPEED_FREQ_LOW;
 176              		.loc 1 418 3 is_stmt 1 view .LVU46
 177              		.loc 1 418 25 is_stmt 0 view .LVU47
 178 00a6 0694     		str	r4, [sp, #24]
 419:Core/Src/main.c ****   HAL_GPIO_Init(LORA_NCS_GPIO_Port, &GPIO_InitStruct);
 179              		.loc 1 419 3 is_stmt 1 view .LVU48
 180 00a8 03A9     		add	r1, sp, #12
 181 00aa 3000     		movs	r0, r6
 182 00ac FFF7FEFF 		bl	HAL_GPIO_Init
 183              	.LVL6:
 420:Core/Src/main.c **** 
 421:Core/Src/main.c ****   /*Configure GPIO pin : LORA_RST_Pin */
 422:Core/Src/main.c ****   GPIO_InitStruct.Pin = LORA_RST_Pin;
 184              		.loc 1 422 3 view .LVU49
 185              		.loc 1 422 23 is_stmt 0 view .LVU50
 186 00b0 4346     		mov	r3, r8
 187 00b2 0393     		str	r3, [sp, #12]
 423:Core/Src/main.c ****   GPIO_InitStruct.Mode = GPIO_MODE_OUTPUT_PP;
 188              		.loc 1 423 3 is_stmt 1 view .LVU51
 189              		.loc 1 423 24 is_stmt 0 view .LVU52
 190 00b4 0495     		str	r5, [sp, #16]
 424:Core/Src/main.c ****   GPIO_InitStruct.Pull = GPIO_NOPULL;
 191              		.loc 1 424 3 is_stmt 1 view .LVU53
 192              		.loc 1 424 24 is_stmt 0 view .LVU54
 193 00b6 0594     		str	r4, [sp, #20]
 425:Core/Src/main.c ****   GPIO_InitStruct.Speed = GPIO_SPEED_FREQ_LOW;
 194              		.loc 1 425 3 is_stmt 1 view .LVU55
 195              		.loc 1 425 25 is_stmt 0 view .LVU56
 196 00b8 0694     		str	r4, [sp, #24]
 426:Core/Src/main.c ****   HAL_GPIO_Init(LORA_RST_GPIO_Port, &GPIO_InitStruct);
 197              		.loc 1 426 3 is_stmt 1 view .LVU57
 198 00ba 03A9     		add	r1, sp, #12
 199 00bc 3800     		movs	r0, r7
 200 00be FFF7FEFF 		bl	HAL_GPIO_Init
 201              	.LVL7:
 427:Core/Src/main.c **** 
ARM GAS  C:\Users\Password\AppData\Local\Temp\ccOFJB6v.s 			page 12


 428:Core/Src/main.c **** }
 202              		.loc 1 428 1 is_stmt 0 view .LVU58
 203 00c2 08B0     		add	sp, sp, #32
 204              		@ sp needed
 205 00c4 80BC     		pop	{r7}
 206 00c6 B846     		mov	r8, r7
 207 00c8 F0BD     		pop	{r4, r5, r6, r7, pc}
 208              	.L3:
 209 00ca C046     		.align	2
 210              	.L2:
 211 00cc 00100240 		.word	1073876992
 212 00d0 00140048 		.word	1207964672
 213 00d4 00040048 		.word	1207960576
 214              		.cfi_endproc
 215              	.LFE46:
 217              		.section	.text.HAL_GPIO_EXTI_Callback,"ax",%progbits
 218              		.align	1
 219              		.global	HAL_GPIO_EXTI_Callback
 220              		.syntax unified
 221              		.code	16
 222              		.thumb_func
 224              	HAL_GPIO_EXTI_Callback:
 225              	.LVL8:
 226              	.LFB47:
 429:Core/Src/main.c **** 
 430:Core/Src/main.c **** /* USER CODE BEGIN 4 */
 431:Core/Src/main.c **** 
 432:Core/Src/main.c **** void HAL_GPIO_EXTI_Callback(uint16_t GPIO_Pin)
 433:Core/Src/main.c **** {
 227              		.loc 1 433 1 is_stmt 1 view -0
 228              		.cfi_startproc
 229              		@ args = 0, pretend = 0, frame = 0
 230              		@ frame_needed = 0, uses_anonymous_args = 0
 231              		.loc 1 433 1 is_stmt 0 view .LVU60
 232 0000 10B5     		push	{r4, lr}
 233              	.LCFI3:
 234              		.cfi_def_cfa_offset 8
 235              		.cfi_offset 4, -8
 236              		.cfi_offset 14, -4
 434:Core/Src/main.c ****   if (GPIO_Pin == rxLoRa.DIO0_pin)
 237              		.loc 1 434 3 is_stmt 1 view .LVU61
 238              		.loc 1 434 25 is_stmt 0 view .LVU62
 239 0002 154B     		ldr	r3, .L9
 240 0004 9B8A     		ldrh	r3, [r3, #20]
 241              		.loc 1 434 6 view .LVU63
 242 0006 8342     		cmp	r3, r0
 243 0008 00D0     		beq	.L7
 244              	.LVL9:
 245              	.L4:
 435:Core/Src/main.c ****   {
 436:Core/Src/main.c ****     if (LoRa_receive(&rxLoRa, receiveData, 3) == 3){
 437:Core/Src/main.c ****       if (receiveData[1] == 1){
 438:Core/Src/main.c ****         HAL_GPIO_WritePin(LED_BLUE_GPIO_Port,LED_BLUE_Pin,GPIO_PIN_SET);
 439:Core/Src/main.c ****         HAL_GPIO_WritePin(LED_RED_GPIO_Port,LED_RED_Pin,GPIO_PIN_RESET);
 440:Core/Src/main.c ****       }
 441:Core/Src/main.c ****       else if (receiveData[1] == 2){
 442:Core/Src/main.c ****         HAL_GPIO_WritePin(LED_RED_GPIO_Port,LED_RED_Pin,GPIO_PIN_SET);
ARM GAS  C:\Users\Password\AppData\Local\Temp\ccOFJB6v.s 			page 13


 443:Core/Src/main.c ****         HAL_GPIO_WritePin(LED_BLUE_GPIO_Port,LED_BLUE_Pin,GPIO_PIN_RESET);
 444:Core/Src/main.c ****       }    
 445:Core/Src/main.c ****     }
 446:Core/Src/main.c ****   }
 447:Core/Src/main.c **** }
 246              		.loc 1 447 1 view .LVU64
 247              		@ sp needed
 248 000a 10BD     		pop	{r4, pc}
 249              	.LVL10:
 250              	.L7:
 436:Core/Src/main.c ****       if (receiveData[1] == 1){
 251              		.loc 1 436 5 is_stmt 1 view .LVU65
 436:Core/Src/main.c ****       if (receiveData[1] == 1){
 252              		.loc 1 436 9 is_stmt 0 view .LVU66
 253 000c 1349     		ldr	r1, .L9+4
 254 000e 1248     		ldr	r0, .L9
 255              	.LVL11:
 436:Core/Src/main.c ****       if (receiveData[1] == 1){
 256              		.loc 1 436 9 view .LVU67
 257 0010 0322     		movs	r2, #3
 258 0012 FFF7FEFF 		bl	LoRa_receive
 259              	.LVL12:
 436:Core/Src/main.c ****       if (receiveData[1] == 1){
 260              		.loc 1 436 8 view .LVU68
 261 0016 0328     		cmp	r0, #3
 262 0018 F7D1     		bne	.L4
 437:Core/Src/main.c ****         HAL_GPIO_WritePin(LED_BLUE_GPIO_Port,LED_BLUE_Pin,GPIO_PIN_SET);
 263              		.loc 1 437 7 is_stmt 1 view .LVU69
 437:Core/Src/main.c ****         HAL_GPIO_WritePin(LED_BLUE_GPIO_Port,LED_BLUE_Pin,GPIO_PIN_SET);
 264              		.loc 1 437 22 is_stmt 0 view .LVU70
 265 001a 104B     		ldr	r3, .L9+4
 266 001c 5B78     		ldrb	r3, [r3, #1]
 437:Core/Src/main.c ****         HAL_GPIO_WritePin(LED_BLUE_GPIO_Port,LED_BLUE_Pin,GPIO_PIN_SET);
 267              		.loc 1 437 10 view .LVU71
 268 001e 012B     		cmp	r3, #1
 269 0020 0DD0     		beq	.L8
 441:Core/Src/main.c ****         HAL_GPIO_WritePin(LED_RED_GPIO_Port,LED_RED_Pin,GPIO_PIN_SET);
 270              		.loc 1 441 12 is_stmt 1 view .LVU72
 441:Core/Src/main.c ****         HAL_GPIO_WritePin(LED_RED_GPIO_Port,LED_RED_Pin,GPIO_PIN_SET);
 271              		.loc 1 441 15 is_stmt 0 view .LVU73
 272 0022 022B     		cmp	r3, #2
 273 0024 F1D1     		bne	.L4
 442:Core/Src/main.c ****         HAL_GPIO_WritePin(LED_BLUE_GPIO_Port,LED_BLUE_Pin,GPIO_PIN_RESET);
 274              		.loc 1 442 9 is_stmt 1 view .LVU74
 275 0026 0E4C     		ldr	r4, .L9+8
 276 0028 0122     		movs	r2, #1
 277 002a 0121     		movs	r1, #1
 278 002c 2000     		movs	r0, r4
 279 002e FFF7FEFF 		bl	HAL_GPIO_WritePin
 280              	.LVL13:
 443:Core/Src/main.c ****       }    
 281              		.loc 1 443 9 view .LVU75
 282 0032 0022     		movs	r2, #0
 283 0034 0221     		movs	r1, #2
 284 0036 2000     		movs	r0, r4
 285 0038 FFF7FEFF 		bl	HAL_GPIO_WritePin
 286              	.LVL14:
ARM GAS  C:\Users\Password\AppData\Local\Temp\ccOFJB6v.s 			page 14


 287              		.loc 1 447 1 is_stmt 0 view .LVU76
 288 003c E5E7     		b	.L4
 289              	.L8:
 438:Core/Src/main.c ****         HAL_GPIO_WritePin(LED_RED_GPIO_Port,LED_RED_Pin,GPIO_PIN_RESET);
 290              		.loc 1 438 9 is_stmt 1 view .LVU77
 291 003e 084C     		ldr	r4, .L9+8
 292 0040 0122     		movs	r2, #1
 293 0042 0221     		movs	r1, #2
 294 0044 2000     		movs	r0, r4
 295 0046 FFF7FEFF 		bl	HAL_GPIO_WritePin
 296              	.LVL15:
 439:Core/Src/main.c ****       }
 297              		.loc 1 439 9 view .LVU78
 298 004a 0022     		movs	r2, #0
 299 004c 0121     		movs	r1, #1
 300 004e 2000     		movs	r0, r4
 301 0050 FFF7FEFF 		bl	HAL_GPIO_WritePin
 302              	.LVL16:
 303 0054 D9E7     		b	.L4
 304              	.L10:
 305 0056 C046     		.align	2
 306              	.L9:
 307 0058 00000000 		.word	.LANCHOR0
 308 005c 00000000 		.word	.LANCHOR1
 309 0060 00140048 		.word	1207964672
 310              		.cfi_endproc
 311              	.LFE47:
 313              		.section	.text.Error_Handler,"ax",%progbits
 314              		.align	1
 315              		.global	Error_Handler
 316              		.syntax unified
 317              		.code	16
 318              		.thumb_func
 320              	Error_Handler:
 321              	.LFB48:
 448:Core/Src/main.c **** 
 449:Core/Src/main.c **** /* USER CODE END 4 */
 450:Core/Src/main.c **** 
 451:Core/Src/main.c **** /**
 452:Core/Src/main.c ****   * @brief  This function is executed in case of error occurrence.
 453:Core/Src/main.c ****   * @retval None
 454:Core/Src/main.c ****   */
 455:Core/Src/main.c **** void Error_Handler(void)
 456:Core/Src/main.c **** {
 322              		.loc 1 456 1 view -0
 323              		.cfi_startproc
 324              		@ Volatile: function does not return.
 325              		@ args = 0, pretend = 0, frame = 0
 326              		@ frame_needed = 0, uses_anonymous_args = 0
 327              		@ link register save eliminated.
 457:Core/Src/main.c ****   /* USER CODE BEGIN Error_Handler_Debug */
 458:Core/Src/main.c ****   /* User can add his own implementation to report the HAL error return state */
 459:Core/Src/main.c ****   __disable_irq();
 328              		.loc 1 459 3 view .LVU80
 329              	.LBB7:
 330              	.LBI7:
 331              		.file 2 "Drivers/CMSIS/Include/cmsis_gcc.h"
ARM GAS  C:\Users\Password\AppData\Local\Temp\ccOFJB6v.s 			page 15


   1:Drivers/CMSIS/Include/cmsis_gcc.h **** /**************************************************************************//**
   2:Drivers/CMSIS/Include/cmsis_gcc.h ****  * @file     cmsis_gcc.h
   3:Drivers/CMSIS/Include/cmsis_gcc.h ****  * @brief    CMSIS compiler GCC header file
   4:Drivers/CMSIS/Include/cmsis_gcc.h ****  * @version  V5.0.4
   5:Drivers/CMSIS/Include/cmsis_gcc.h ****  * @date     09. April 2018
   6:Drivers/CMSIS/Include/cmsis_gcc.h ****  ******************************************************************************/
   7:Drivers/CMSIS/Include/cmsis_gcc.h **** /*
   8:Drivers/CMSIS/Include/cmsis_gcc.h ****  * Copyright (c) 2009-2018 Arm Limited. All rights reserved.
   9:Drivers/CMSIS/Include/cmsis_gcc.h ****  *
  10:Drivers/CMSIS/Include/cmsis_gcc.h ****  * SPDX-License-Identifier: Apache-2.0
  11:Drivers/CMSIS/Include/cmsis_gcc.h ****  *
  12:Drivers/CMSIS/Include/cmsis_gcc.h ****  * Licensed under the Apache License, Version 2.0 (the License); you may
  13:Drivers/CMSIS/Include/cmsis_gcc.h ****  * not use this file except in compliance with the License.
  14:Drivers/CMSIS/Include/cmsis_gcc.h ****  * You may obtain a copy of the License at
  15:Drivers/CMSIS/Include/cmsis_gcc.h ****  *
  16:Drivers/CMSIS/Include/cmsis_gcc.h ****  * www.apache.org/licenses/LICENSE-2.0
  17:Drivers/CMSIS/Include/cmsis_gcc.h ****  *
  18:Drivers/CMSIS/Include/cmsis_gcc.h ****  * Unless required by applicable law or agreed to in writing, software
  19:Drivers/CMSIS/Include/cmsis_gcc.h ****  * distributed under the License is distributed on an AS IS BASIS, WITHOUT
  20:Drivers/CMSIS/Include/cmsis_gcc.h ****  * WARRANTIES OR CONDITIONS OF ANY KIND, either express or implied.
  21:Drivers/CMSIS/Include/cmsis_gcc.h ****  * See the License for the specific language governing permissions and
  22:Drivers/CMSIS/Include/cmsis_gcc.h ****  * limitations under the License.
  23:Drivers/CMSIS/Include/cmsis_gcc.h ****  */
  24:Drivers/CMSIS/Include/cmsis_gcc.h **** 
  25:Drivers/CMSIS/Include/cmsis_gcc.h **** #ifndef __CMSIS_GCC_H
  26:Drivers/CMSIS/Include/cmsis_gcc.h **** #define __CMSIS_GCC_H
  27:Drivers/CMSIS/Include/cmsis_gcc.h **** 
  28:Drivers/CMSIS/Include/cmsis_gcc.h **** /* ignore some GCC warnings */
  29:Drivers/CMSIS/Include/cmsis_gcc.h **** #pragma GCC diagnostic push
  30:Drivers/CMSIS/Include/cmsis_gcc.h **** #pragma GCC diagnostic ignored "-Wsign-conversion"
  31:Drivers/CMSIS/Include/cmsis_gcc.h **** #pragma GCC diagnostic ignored "-Wconversion"
  32:Drivers/CMSIS/Include/cmsis_gcc.h **** #pragma GCC diagnostic ignored "-Wunused-parameter"
  33:Drivers/CMSIS/Include/cmsis_gcc.h **** 
  34:Drivers/CMSIS/Include/cmsis_gcc.h **** /* Fallback for __has_builtin */
  35:Drivers/CMSIS/Include/cmsis_gcc.h **** #ifndef __has_builtin
  36:Drivers/CMSIS/Include/cmsis_gcc.h ****   #define __has_builtin(x) (0)
  37:Drivers/CMSIS/Include/cmsis_gcc.h **** #endif
  38:Drivers/CMSIS/Include/cmsis_gcc.h **** 
  39:Drivers/CMSIS/Include/cmsis_gcc.h **** /* CMSIS compiler specific defines */
  40:Drivers/CMSIS/Include/cmsis_gcc.h **** #ifndef   __ASM
  41:Drivers/CMSIS/Include/cmsis_gcc.h ****   #define __ASM                                  __asm
  42:Drivers/CMSIS/Include/cmsis_gcc.h **** #endif
  43:Drivers/CMSIS/Include/cmsis_gcc.h **** #ifndef   __INLINE
  44:Drivers/CMSIS/Include/cmsis_gcc.h ****   #define __INLINE                               inline
  45:Drivers/CMSIS/Include/cmsis_gcc.h **** #endif
  46:Drivers/CMSIS/Include/cmsis_gcc.h **** #ifndef   __STATIC_INLINE
  47:Drivers/CMSIS/Include/cmsis_gcc.h ****   #define __STATIC_INLINE                        static inline
  48:Drivers/CMSIS/Include/cmsis_gcc.h **** #endif
  49:Drivers/CMSIS/Include/cmsis_gcc.h **** #ifndef   __STATIC_FORCEINLINE                 
  50:Drivers/CMSIS/Include/cmsis_gcc.h ****   #define __STATIC_FORCEINLINE                   __attribute__((always_inline)) static inline
  51:Drivers/CMSIS/Include/cmsis_gcc.h **** #endif                                           
  52:Drivers/CMSIS/Include/cmsis_gcc.h **** #ifndef   __NO_RETURN
  53:Drivers/CMSIS/Include/cmsis_gcc.h ****   #define __NO_RETURN                            __attribute__((__noreturn__))
  54:Drivers/CMSIS/Include/cmsis_gcc.h **** #endif
  55:Drivers/CMSIS/Include/cmsis_gcc.h **** #ifndef   __USED
  56:Drivers/CMSIS/Include/cmsis_gcc.h ****   #define __USED                                 __attribute__((used))
  57:Drivers/CMSIS/Include/cmsis_gcc.h **** #endif
ARM GAS  C:\Users\Password\AppData\Local\Temp\ccOFJB6v.s 			page 16


  58:Drivers/CMSIS/Include/cmsis_gcc.h **** #ifndef   __WEAK
  59:Drivers/CMSIS/Include/cmsis_gcc.h ****   #define __WEAK                                 __attribute__((weak))
  60:Drivers/CMSIS/Include/cmsis_gcc.h **** #endif
  61:Drivers/CMSIS/Include/cmsis_gcc.h **** #ifndef   __PACKED
  62:Drivers/CMSIS/Include/cmsis_gcc.h ****   #define __PACKED                               __attribute__((packed, aligned(1)))
  63:Drivers/CMSIS/Include/cmsis_gcc.h **** #endif
  64:Drivers/CMSIS/Include/cmsis_gcc.h **** #ifndef   __PACKED_STRUCT
  65:Drivers/CMSIS/Include/cmsis_gcc.h ****   #define __PACKED_STRUCT                        struct __attribute__((packed, aligned(1)))
  66:Drivers/CMSIS/Include/cmsis_gcc.h **** #endif
  67:Drivers/CMSIS/Include/cmsis_gcc.h **** #ifndef   __PACKED_UNION
  68:Drivers/CMSIS/Include/cmsis_gcc.h ****   #define __PACKED_UNION                         union __attribute__((packed, aligned(1)))
  69:Drivers/CMSIS/Include/cmsis_gcc.h **** #endif
  70:Drivers/CMSIS/Include/cmsis_gcc.h **** #ifndef   __UNALIGNED_UINT32        /* deprecated */
  71:Drivers/CMSIS/Include/cmsis_gcc.h ****   #pragma GCC diagnostic push
  72:Drivers/CMSIS/Include/cmsis_gcc.h ****   #pragma GCC diagnostic ignored "-Wpacked"
  73:Drivers/CMSIS/Include/cmsis_gcc.h ****   #pragma GCC diagnostic ignored "-Wattributes"
  74:Drivers/CMSIS/Include/cmsis_gcc.h ****   struct __attribute__((packed)) T_UINT32 { uint32_t v; };
  75:Drivers/CMSIS/Include/cmsis_gcc.h ****   #pragma GCC diagnostic pop
  76:Drivers/CMSIS/Include/cmsis_gcc.h ****   #define __UNALIGNED_UINT32(x)                  (((struct T_UINT32 *)(x))->v)
  77:Drivers/CMSIS/Include/cmsis_gcc.h **** #endif
  78:Drivers/CMSIS/Include/cmsis_gcc.h **** #ifndef   __UNALIGNED_UINT16_WRITE
  79:Drivers/CMSIS/Include/cmsis_gcc.h ****   #pragma GCC diagnostic push
  80:Drivers/CMSIS/Include/cmsis_gcc.h ****   #pragma GCC diagnostic ignored "-Wpacked"
  81:Drivers/CMSIS/Include/cmsis_gcc.h ****   #pragma GCC diagnostic ignored "-Wattributes"
  82:Drivers/CMSIS/Include/cmsis_gcc.h ****   __PACKED_STRUCT T_UINT16_WRITE { uint16_t v; };
  83:Drivers/CMSIS/Include/cmsis_gcc.h ****   #pragma GCC diagnostic pop
  84:Drivers/CMSIS/Include/cmsis_gcc.h ****   #define __UNALIGNED_UINT16_WRITE(addr, val)    (void)((((struct T_UINT16_WRITE *)(void *)(addr))-
  85:Drivers/CMSIS/Include/cmsis_gcc.h **** #endif
  86:Drivers/CMSIS/Include/cmsis_gcc.h **** #ifndef   __UNALIGNED_UINT16_READ
  87:Drivers/CMSIS/Include/cmsis_gcc.h ****   #pragma GCC diagnostic push
  88:Drivers/CMSIS/Include/cmsis_gcc.h ****   #pragma GCC diagnostic ignored "-Wpacked"
  89:Drivers/CMSIS/Include/cmsis_gcc.h ****   #pragma GCC diagnostic ignored "-Wattributes"
  90:Drivers/CMSIS/Include/cmsis_gcc.h ****   __PACKED_STRUCT T_UINT16_READ { uint16_t v; };
  91:Drivers/CMSIS/Include/cmsis_gcc.h ****   #pragma GCC diagnostic pop
  92:Drivers/CMSIS/Include/cmsis_gcc.h ****   #define __UNALIGNED_UINT16_READ(addr)          (((const struct T_UINT16_READ *)(const void *)(add
  93:Drivers/CMSIS/Include/cmsis_gcc.h **** #endif
  94:Drivers/CMSIS/Include/cmsis_gcc.h **** #ifndef   __UNALIGNED_UINT32_WRITE
  95:Drivers/CMSIS/Include/cmsis_gcc.h ****   #pragma GCC diagnostic push
  96:Drivers/CMSIS/Include/cmsis_gcc.h ****   #pragma GCC diagnostic ignored "-Wpacked"
  97:Drivers/CMSIS/Include/cmsis_gcc.h ****   #pragma GCC diagnostic ignored "-Wattributes"
  98:Drivers/CMSIS/Include/cmsis_gcc.h ****   __PACKED_STRUCT T_UINT32_WRITE { uint32_t v; };
  99:Drivers/CMSIS/Include/cmsis_gcc.h ****   #pragma GCC diagnostic pop
 100:Drivers/CMSIS/Include/cmsis_gcc.h ****   #define __UNALIGNED_UINT32_WRITE(addr, val)    (void)((((struct T_UINT32_WRITE *)(void *)(addr))-
 101:Drivers/CMSIS/Include/cmsis_gcc.h **** #endif
 102:Drivers/CMSIS/Include/cmsis_gcc.h **** #ifndef   __UNALIGNED_UINT32_READ
 103:Drivers/CMSIS/Include/cmsis_gcc.h ****   #pragma GCC diagnostic push
 104:Drivers/CMSIS/Include/cmsis_gcc.h ****   #pragma GCC diagnostic ignored "-Wpacked"
 105:Drivers/CMSIS/Include/cmsis_gcc.h ****   #pragma GCC diagnostic ignored "-Wattributes"
 106:Drivers/CMSIS/Include/cmsis_gcc.h ****   __PACKED_STRUCT T_UINT32_READ { uint32_t v; };
 107:Drivers/CMSIS/Include/cmsis_gcc.h ****   #pragma GCC diagnostic pop
 108:Drivers/CMSIS/Include/cmsis_gcc.h ****   #define __UNALIGNED_UINT32_READ(addr)          (((const struct T_UINT32_READ *)(const void *)(add
 109:Drivers/CMSIS/Include/cmsis_gcc.h **** #endif
 110:Drivers/CMSIS/Include/cmsis_gcc.h **** #ifndef   __ALIGNED
 111:Drivers/CMSIS/Include/cmsis_gcc.h ****   #define __ALIGNED(x)                           __attribute__((aligned(x)))
 112:Drivers/CMSIS/Include/cmsis_gcc.h **** #endif
 113:Drivers/CMSIS/Include/cmsis_gcc.h **** #ifndef   __RESTRICT
 114:Drivers/CMSIS/Include/cmsis_gcc.h ****   #define __RESTRICT                             __restrict
ARM GAS  C:\Users\Password\AppData\Local\Temp\ccOFJB6v.s 			page 17


 115:Drivers/CMSIS/Include/cmsis_gcc.h **** #endif
 116:Drivers/CMSIS/Include/cmsis_gcc.h **** 
 117:Drivers/CMSIS/Include/cmsis_gcc.h **** 
 118:Drivers/CMSIS/Include/cmsis_gcc.h **** /* ###########################  Core Function Access  ########################### */
 119:Drivers/CMSIS/Include/cmsis_gcc.h **** /** \ingroup  CMSIS_Core_FunctionInterface
 120:Drivers/CMSIS/Include/cmsis_gcc.h ****     \defgroup CMSIS_Core_RegAccFunctions CMSIS Core Register Access Functions
 121:Drivers/CMSIS/Include/cmsis_gcc.h ****   @{
 122:Drivers/CMSIS/Include/cmsis_gcc.h ****  */
 123:Drivers/CMSIS/Include/cmsis_gcc.h **** 
 124:Drivers/CMSIS/Include/cmsis_gcc.h **** /**
 125:Drivers/CMSIS/Include/cmsis_gcc.h ****   \brief   Enable IRQ Interrupts
 126:Drivers/CMSIS/Include/cmsis_gcc.h ****   \details Enables IRQ interrupts by clearing the I-bit in the CPSR.
 127:Drivers/CMSIS/Include/cmsis_gcc.h ****            Can only be executed in Privileged modes.
 128:Drivers/CMSIS/Include/cmsis_gcc.h ****  */
 129:Drivers/CMSIS/Include/cmsis_gcc.h **** __STATIC_FORCEINLINE void __enable_irq(void)
 130:Drivers/CMSIS/Include/cmsis_gcc.h **** {
 131:Drivers/CMSIS/Include/cmsis_gcc.h ****   __ASM volatile ("cpsie i" : : : "memory");
 132:Drivers/CMSIS/Include/cmsis_gcc.h **** }
 133:Drivers/CMSIS/Include/cmsis_gcc.h **** 
 134:Drivers/CMSIS/Include/cmsis_gcc.h **** 
 135:Drivers/CMSIS/Include/cmsis_gcc.h **** /**
 136:Drivers/CMSIS/Include/cmsis_gcc.h ****   \brief   Disable IRQ Interrupts
 137:Drivers/CMSIS/Include/cmsis_gcc.h ****   \details Disables IRQ interrupts by setting the I-bit in the CPSR.
 138:Drivers/CMSIS/Include/cmsis_gcc.h ****            Can only be executed in Privileged modes.
 139:Drivers/CMSIS/Include/cmsis_gcc.h ****  */
 140:Drivers/CMSIS/Include/cmsis_gcc.h **** __STATIC_FORCEINLINE void __disable_irq(void)
 332              		.loc 2 140 27 view .LVU81
 333              	.LBB8:
 141:Drivers/CMSIS/Include/cmsis_gcc.h **** {
 142:Drivers/CMSIS/Include/cmsis_gcc.h ****   __ASM volatile ("cpsid i" : : : "memory");
 334              		.loc 2 142 3 view .LVU82
 335              		.syntax divided
 336              	@ 142 "Drivers/CMSIS/Include/cmsis_gcc.h" 1
 337 0000 72B6     		cpsid i
 338              	@ 0 "" 2
 339              		.thumb
 340              		.syntax unified
 341              	.L12:
 342              	.LBE8:
 343              	.LBE7:
 460:Core/Src/main.c ****   while (1)
 344              		.loc 1 460 3 discriminator 1 view .LVU83
 461:Core/Src/main.c ****   {
 462:Core/Src/main.c ****   }
 345              		.loc 1 462 3 discriminator 1 view .LVU84
 460:Core/Src/main.c ****   while (1)
 346              		.loc 1 460 9 discriminator 1 view .LVU85
 347 0002 FEE7     		b	.L12
 348              		.cfi_endproc
 349              	.LFE48:
 351              		.section	.text.MX_ADC_Init,"ax",%progbits
 352              		.align	1
 353              		.syntax unified
 354              		.code	16
 355              		.thumb_func
 357              	MX_ADC_Init:
 358              	.LFB42:
ARM GAS  C:\Users\Password\AppData\Local\Temp\ccOFJB6v.s 			page 18


 207:Core/Src/main.c **** 
 359              		.loc 1 207 1 view -0
 360              		.cfi_startproc
 361              		@ args = 0, pretend = 0, frame = 16
 362              		@ frame_needed = 0, uses_anonymous_args = 0
 363 0000 00B5     		push	{lr}
 364              	.LCFI4:
 365              		.cfi_def_cfa_offset 4
 366              		.cfi_offset 14, -4
 367 0002 85B0     		sub	sp, sp, #20
 368              	.LCFI5:
 369              		.cfi_def_cfa_offset 24
 213:Core/Src/main.c **** 
 370              		.loc 1 213 3 view .LVU87
 213:Core/Src/main.c **** 
 371              		.loc 1 213 26 is_stmt 0 view .LVU88
 372 0004 0C22     		movs	r2, #12
 373 0006 0021     		movs	r1, #0
 374 0008 01A8     		add	r0, sp, #4
 375 000a FFF7FEFF 		bl	memset
 376              	.LVL17:
 221:Core/Src/main.c ****   hadc.Init.ClockPrescaler = ADC_CLOCK_ASYNC_DIV1;
 377              		.loc 1 221 3 is_stmt 1 view .LVU89
 221:Core/Src/main.c ****   hadc.Init.ClockPrescaler = ADC_CLOCK_ASYNC_DIV1;
 378              		.loc 1 221 17 is_stmt 0 view .LVU90
 379 000e 1748     		ldr	r0, .L18
 380 0010 174B     		ldr	r3, .L18+4
 381 0012 0360     		str	r3, [r0]
 222:Core/Src/main.c ****   hadc.Init.Resolution = ADC_RESOLUTION_12B;
 382              		.loc 1 222 3 is_stmt 1 view .LVU91
 222:Core/Src/main.c ****   hadc.Init.Resolution = ADC_RESOLUTION_12B;
 383              		.loc 1 222 28 is_stmt 0 view .LVU92
 384 0014 0023     		movs	r3, #0
 385 0016 4360     		str	r3, [r0, #4]
 223:Core/Src/main.c ****   hadc.Init.DataAlign = ADC_DATAALIGN_RIGHT;
 386              		.loc 1 223 3 is_stmt 1 view .LVU93
 223:Core/Src/main.c ****   hadc.Init.DataAlign = ADC_DATAALIGN_RIGHT;
 387              		.loc 1 223 24 is_stmt 0 view .LVU94
 388 0018 8360     		str	r3, [r0, #8]
 224:Core/Src/main.c ****   hadc.Init.ScanConvMode = ADC_SCAN_DIRECTION_FORWARD;
 389              		.loc 1 224 3 is_stmt 1 view .LVU95
 224:Core/Src/main.c ****   hadc.Init.ScanConvMode = ADC_SCAN_DIRECTION_FORWARD;
 390              		.loc 1 224 23 is_stmt 0 view .LVU96
 391 001a C360     		str	r3, [r0, #12]
 225:Core/Src/main.c ****   hadc.Init.EOCSelection = ADC_EOC_SINGLE_CONV;
 392              		.loc 1 225 3 is_stmt 1 view .LVU97
 225:Core/Src/main.c ****   hadc.Init.EOCSelection = ADC_EOC_SINGLE_CONV;
 393              		.loc 1 225 26 is_stmt 0 view .LVU98
 394 001c 0122     		movs	r2, #1
 395 001e 0261     		str	r2, [r0, #16]
 226:Core/Src/main.c ****   hadc.Init.LowPowerAutoWait = DISABLE;
 396              		.loc 1 226 3 is_stmt 1 view .LVU99
 226:Core/Src/main.c ****   hadc.Init.LowPowerAutoWait = DISABLE;
 397              		.loc 1 226 26 is_stmt 0 view .LVU100
 398 0020 0421     		movs	r1, #4
 399 0022 4161     		str	r1, [r0, #20]
 227:Core/Src/main.c ****   hadc.Init.LowPowerAutoPowerOff = DISABLE;
ARM GAS  C:\Users\Password\AppData\Local\Temp\ccOFJB6v.s 			page 19


 400              		.loc 1 227 3 is_stmt 1 view .LVU101
 227:Core/Src/main.c ****   hadc.Init.LowPowerAutoPowerOff = DISABLE;
 401              		.loc 1 227 30 is_stmt 0 view .LVU102
 402 0024 0376     		strb	r3, [r0, #24]
 228:Core/Src/main.c ****   hadc.Init.ContinuousConvMode = DISABLE;
 403              		.loc 1 228 3 is_stmt 1 view .LVU103
 228:Core/Src/main.c ****   hadc.Init.ContinuousConvMode = DISABLE;
 404              		.loc 1 228 34 is_stmt 0 view .LVU104
 405 0026 4376     		strb	r3, [r0, #25]
 229:Core/Src/main.c ****   hadc.Init.DiscontinuousConvMode = DISABLE;
 406              		.loc 1 229 3 is_stmt 1 view .LVU105
 229:Core/Src/main.c ****   hadc.Init.DiscontinuousConvMode = DISABLE;
 407              		.loc 1 229 32 is_stmt 0 view .LVU106
 408 0028 8376     		strb	r3, [r0, #26]
 230:Core/Src/main.c ****   hadc.Init.ExternalTrigConv = ADC_SOFTWARE_START;
 409              		.loc 1 230 3 is_stmt 1 view .LVU107
 230:Core/Src/main.c ****   hadc.Init.ExternalTrigConv = ADC_SOFTWARE_START;
 410              		.loc 1 230 35 is_stmt 0 view .LVU108
 411 002a C376     		strb	r3, [r0, #27]
 231:Core/Src/main.c ****   hadc.Init.ExternalTrigConvEdge = ADC_EXTERNALTRIGCONVEDGE_NONE;
 412              		.loc 1 231 3 is_stmt 1 view .LVU109
 231:Core/Src/main.c ****   hadc.Init.ExternalTrigConvEdge = ADC_EXTERNALTRIGCONVEDGE_NONE;
 413              		.loc 1 231 30 is_stmt 0 view .LVU110
 414 002c C221     		movs	r1, #194
 415 002e FF31     		adds	r1, r1, #255
 416 0030 C161     		str	r1, [r0, #28]
 232:Core/Src/main.c ****   hadc.Init.DMAContinuousRequests = DISABLE;
 417              		.loc 1 232 3 is_stmt 1 view .LVU111
 232:Core/Src/main.c ****   hadc.Init.DMAContinuousRequests = DISABLE;
 418              		.loc 1 232 34 is_stmt 0 view .LVU112
 419 0032 0362     		str	r3, [r0, #32]
 233:Core/Src/main.c ****   hadc.Init.Overrun = ADC_OVR_DATA_PRESERVED;
 420              		.loc 1 233 3 is_stmt 1 view .LVU113
 233:Core/Src/main.c ****   hadc.Init.Overrun = ADC_OVR_DATA_PRESERVED;
 421              		.loc 1 233 35 is_stmt 0 view .LVU114
 422 0034 9E39     		subs	r1, r1, #158
 423 0036 FF39     		subs	r1, r1, #255
 424 0038 4354     		strb	r3, [r0, r1]
 234:Core/Src/main.c ****   if (HAL_ADC_Init(&hadc) != HAL_OK)
 425              		.loc 1 234 3 is_stmt 1 view .LVU115
 234:Core/Src/main.c ****   if (HAL_ADC_Init(&hadc) != HAL_OK)
 426              		.loc 1 234 21 is_stmt 0 view .LVU116
 427 003a 8262     		str	r2, [r0, #40]
 235:Core/Src/main.c ****   {
 428              		.loc 1 235 3 is_stmt 1 view .LVU117
 235:Core/Src/main.c ****   {
 429              		.loc 1 235 7 is_stmt 0 view .LVU118
 430 003c FFF7FEFF 		bl	HAL_ADC_Init
 431              	.LVL18:
 235:Core/Src/main.c ****   {
 432              		.loc 1 235 6 view .LVU119
 433 0040 0028     		cmp	r0, #0
 434 0042 0FD1     		bne	.L16
 242:Core/Src/main.c ****   sConfig.Rank = ADC_RANK_CHANNEL_NUMBER;
 435              		.loc 1 242 3 is_stmt 1 view .LVU120
 242:Core/Src/main.c ****   sConfig.Rank = ADC_RANK_CHANNEL_NUMBER;
 436              		.loc 1 242 19 is_stmt 0 view .LVU121
ARM GAS  C:\Users\Password\AppData\Local\Temp\ccOFJB6v.s 			page 20


 437 0044 0023     		movs	r3, #0
 438 0046 0193     		str	r3, [sp, #4]
 243:Core/Src/main.c ****   sConfig.SamplingTime = ADC_SAMPLETIME_1CYCLE_5;
 439              		.loc 1 243 3 is_stmt 1 view .LVU122
 243:Core/Src/main.c ****   sConfig.SamplingTime = ADC_SAMPLETIME_1CYCLE_5;
 440              		.loc 1 243 16 is_stmt 0 view .LVU123
 441 0048 8023     		movs	r3, #128
 442 004a 5B01     		lsls	r3, r3, #5
 443 004c 0293     		str	r3, [sp, #8]
 244:Core/Src/main.c ****   if (HAL_ADC_ConfigChannel(&hadc, &sConfig) != HAL_OK)
 444              		.loc 1 244 3 is_stmt 1 view .LVU124
 244:Core/Src/main.c ****   if (HAL_ADC_ConfigChannel(&hadc, &sConfig) != HAL_OK)
 445              		.loc 1 244 24 is_stmt 0 view .LVU125
 446 004e 8023     		movs	r3, #128
 447 0050 5B05     		lsls	r3, r3, #21
 448 0052 0393     		str	r3, [sp, #12]
 245:Core/Src/main.c ****   {
 449              		.loc 1 245 3 is_stmt 1 view .LVU126
 245:Core/Src/main.c ****   {
 450              		.loc 1 245 7 is_stmt 0 view .LVU127
 451 0054 0548     		ldr	r0, .L18
 452 0056 01A9     		add	r1, sp, #4
 453 0058 FFF7FEFF 		bl	HAL_ADC_ConfigChannel
 454              	.LVL19:
 245:Core/Src/main.c ****   {
 455              		.loc 1 245 6 view .LVU128
 456 005c 0028     		cmp	r0, #0
 457 005e 03D1     		bne	.L17
 253:Core/Src/main.c **** 
 458              		.loc 1 253 1 view .LVU129
 459 0060 05B0     		add	sp, sp, #20
 460              		@ sp needed
 461 0062 00BD     		pop	{pc}
 462              	.L16:
 237:Core/Src/main.c ****   }
 463              		.loc 1 237 5 is_stmt 1 view .LVU130
 464 0064 FFF7FEFF 		bl	Error_Handler
 465              	.LVL20:
 466              	.L17:
 247:Core/Src/main.c ****   }
 467              		.loc 1 247 5 view .LVU131
 468 0068 FFF7FEFF 		bl	Error_Handler
 469              	.LVL21:
 470              	.L19:
 471              		.align	2
 472              	.L18:
 473 006c 00000000 		.word	.LANCHOR2
 474 0070 00240140 		.word	1073816576
 475              		.cfi_endproc
 476              	.LFE42:
 478              		.section	.text.MX_I2C1_Init,"ax",%progbits
 479              		.align	1
 480              		.syntax unified
 481              		.code	16
 482              		.thumb_func
 484              	MX_I2C1_Init:
 485              	.LFB43:
ARM GAS  C:\Users\Password\AppData\Local\Temp\ccOFJB6v.s 			page 21


 261:Core/Src/main.c **** 
 486              		.loc 1 261 1 view -0
 487              		.cfi_startproc
 488              		@ args = 0, pretend = 0, frame = 0
 489              		@ frame_needed = 0, uses_anonymous_args = 0
 490 0000 10B5     		push	{r4, lr}
 491              	.LCFI6:
 492              		.cfi_def_cfa_offset 8
 493              		.cfi_offset 4, -8
 494              		.cfi_offset 14, -4
 270:Core/Src/main.c ****   hi2c1.Init.Timing = 0x20303E5D;
 495              		.loc 1 270 3 view .LVU133
 270:Core/Src/main.c ****   hi2c1.Init.Timing = 0x20303E5D;
 496              		.loc 1 270 18 is_stmt 0 view .LVU134
 497 0002 1248     		ldr	r0, .L27
 498 0004 124B     		ldr	r3, .L27+4
 499 0006 0360     		str	r3, [r0]
 271:Core/Src/main.c ****   hi2c1.Init.OwnAddress1 = 0;
 500              		.loc 1 271 3 is_stmt 1 view .LVU135
 271:Core/Src/main.c ****   hi2c1.Init.OwnAddress1 = 0;
 501              		.loc 1 271 21 is_stmt 0 view .LVU136
 502 0008 124B     		ldr	r3, .L27+8
 503 000a 4360     		str	r3, [r0, #4]
 272:Core/Src/main.c ****   hi2c1.Init.AddressingMode = I2C_ADDRESSINGMODE_7BIT;
 504              		.loc 1 272 3 is_stmt 1 view .LVU137
 272:Core/Src/main.c ****   hi2c1.Init.AddressingMode = I2C_ADDRESSINGMODE_7BIT;
 505              		.loc 1 272 26 is_stmt 0 view .LVU138
 506 000c 0023     		movs	r3, #0
 507 000e 8360     		str	r3, [r0, #8]
 273:Core/Src/main.c ****   hi2c1.Init.DualAddressMode = I2C_DUALADDRESS_DISABLE;
 508              		.loc 1 273 3 is_stmt 1 view .LVU139
 273:Core/Src/main.c ****   hi2c1.Init.DualAddressMode = I2C_DUALADDRESS_DISABLE;
 509              		.loc 1 273 29 is_stmt 0 view .LVU140
 510 0010 0122     		movs	r2, #1
 511 0012 C260     		str	r2, [r0, #12]
 274:Core/Src/main.c ****   hi2c1.Init.OwnAddress2 = 0;
 512              		.loc 1 274 3 is_stmt 1 view .LVU141
 274:Core/Src/main.c ****   hi2c1.Init.OwnAddress2 = 0;
 513              		.loc 1 274 30 is_stmt 0 view .LVU142
 514 0014 0361     		str	r3, [r0, #16]
 275:Core/Src/main.c ****   hi2c1.Init.OwnAddress2Masks = I2C_OA2_NOMASK;
 515              		.loc 1 275 3 is_stmt 1 view .LVU143
 275:Core/Src/main.c ****   hi2c1.Init.OwnAddress2Masks = I2C_OA2_NOMASK;
 516              		.loc 1 275 26 is_stmt 0 view .LVU144
 517 0016 4361     		str	r3, [r0, #20]
 276:Core/Src/main.c ****   hi2c1.Init.GeneralCallMode = I2C_GENERALCALL_DISABLE;
 518              		.loc 1 276 3 is_stmt 1 view .LVU145
 276:Core/Src/main.c ****   hi2c1.Init.GeneralCallMode = I2C_GENERALCALL_DISABLE;
 519              		.loc 1 276 31 is_stmt 0 view .LVU146
 520 0018 8361     		str	r3, [r0, #24]
 277:Core/Src/main.c ****   hi2c1.Init.NoStretchMode = I2C_NOSTRETCH_DISABLE;
 521              		.loc 1 277 3 is_stmt 1 view .LVU147
 277:Core/Src/main.c ****   hi2c1.Init.NoStretchMode = I2C_NOSTRETCH_DISABLE;
 522              		.loc 1 277 30 is_stmt 0 view .LVU148
 523 001a C361     		str	r3, [r0, #28]
 278:Core/Src/main.c ****   if (HAL_I2C_Init(&hi2c1) != HAL_OK)
 524              		.loc 1 278 3 is_stmt 1 view .LVU149
ARM GAS  C:\Users\Password\AppData\Local\Temp\ccOFJB6v.s 			page 22


 278:Core/Src/main.c ****   if (HAL_I2C_Init(&hi2c1) != HAL_OK)
 525              		.loc 1 278 28 is_stmt 0 view .LVU150
 526 001c 0362     		str	r3, [r0, #32]
 279:Core/Src/main.c ****   {
 527              		.loc 1 279 3 is_stmt 1 view .LVU151
 279:Core/Src/main.c ****   {
 528              		.loc 1 279 7 is_stmt 0 view .LVU152
 529 001e FFF7FEFF 		bl	HAL_I2C_Init
 530              	.LVL22:
 279:Core/Src/main.c ****   {
 531              		.loc 1 279 6 view .LVU153
 532 0022 0028     		cmp	r0, #0
 533 0024 0CD1     		bne	.L24
 286:Core/Src/main.c ****   {
 534              		.loc 1 286 3 is_stmt 1 view .LVU154
 286:Core/Src/main.c ****   {
 535              		.loc 1 286 7 is_stmt 0 view .LVU155
 536 0026 0948     		ldr	r0, .L27
 537 0028 0021     		movs	r1, #0
 538 002a FFF7FEFF 		bl	HAL_I2CEx_ConfigAnalogFilter
 539              	.LVL23:
 286:Core/Src/main.c ****   {
 540              		.loc 1 286 6 view .LVU156
 541 002e 0028     		cmp	r0, #0
 542 0030 08D1     		bne	.L25
 293:Core/Src/main.c ****   {
 543              		.loc 1 293 3 is_stmt 1 view .LVU157
 293:Core/Src/main.c ****   {
 544              		.loc 1 293 7 is_stmt 0 view .LVU158
 545 0032 0648     		ldr	r0, .L27
 546 0034 0021     		movs	r1, #0
 547 0036 FFF7FEFF 		bl	HAL_I2CEx_ConfigDigitalFilter
 548              	.LVL24:
 293:Core/Src/main.c ****   {
 549              		.loc 1 293 6 view .LVU159
 550 003a 0028     		cmp	r0, #0
 551 003c 04D1     		bne	.L26
 301:Core/Src/main.c **** 
 552              		.loc 1 301 1 view .LVU160
 553              		@ sp needed
 554 003e 10BD     		pop	{r4, pc}
 555              	.L24:
 281:Core/Src/main.c ****   }
 556              		.loc 1 281 5 is_stmt 1 view .LVU161
 557 0040 FFF7FEFF 		bl	Error_Handler
 558              	.LVL25:
 559              	.L25:
 288:Core/Src/main.c ****   }
 560              		.loc 1 288 5 view .LVU162
 561 0044 FFF7FEFF 		bl	Error_Handler
 562              	.LVL26:
 563              	.L26:
 295:Core/Src/main.c ****   }
 564              		.loc 1 295 5 view .LVU163
 565 0048 FFF7FEFF 		bl	Error_Handler
 566              	.LVL27:
 567              	.L28:
ARM GAS  C:\Users\Password\AppData\Local\Temp\ccOFJB6v.s 			page 23


 568              		.align	2
 569              	.L27:
 570 004c 00000000 		.word	.LANCHOR3
 571 0050 00540040 		.word	1073763328
 572 0054 5D3E3020 		.word	540032605
 573              		.cfi_endproc
 574              	.LFE43:
 576              		.section	.text.MX_SPI1_Init,"ax",%progbits
 577              		.align	1
 578              		.syntax unified
 579              		.code	16
 580              		.thumb_func
 582              	MX_SPI1_Init:
 583              	.LFB44:
 309:Core/Src/main.c **** 
 584              		.loc 1 309 1 view -0
 585              		.cfi_startproc
 586              		@ args = 0, pretend = 0, frame = 0
 587              		@ frame_needed = 0, uses_anonymous_args = 0
 588 0000 10B5     		push	{r4, lr}
 589              	.LCFI7:
 590              		.cfi_def_cfa_offset 8
 591              		.cfi_offset 4, -8
 592              		.cfi_offset 14, -4
 319:Core/Src/main.c ****   hspi1.Init.Mode = SPI_MODE_MASTER;
 593              		.loc 1 319 3 view .LVU165
 319:Core/Src/main.c ****   hspi1.Init.Mode = SPI_MODE_MASTER;
 594              		.loc 1 319 18 is_stmt 0 view .LVU166
 595 0002 1048     		ldr	r0, .L32
 596 0004 104B     		ldr	r3, .L32+4
 597 0006 0360     		str	r3, [r0]
 320:Core/Src/main.c ****   hspi1.Init.Direction = SPI_DIRECTION_2LINES;
 598              		.loc 1 320 3 is_stmt 1 view .LVU167
 320:Core/Src/main.c ****   hspi1.Init.Direction = SPI_DIRECTION_2LINES;
 599              		.loc 1 320 19 is_stmt 0 view .LVU168
 600 0008 8223     		movs	r3, #130
 601 000a 5B00     		lsls	r3, r3, #1
 602 000c 4360     		str	r3, [r0, #4]
 321:Core/Src/main.c ****   hspi1.Init.DataSize = SPI_DATASIZE_4BIT;
 603              		.loc 1 321 3 is_stmt 1 view .LVU169
 321:Core/Src/main.c ****   hspi1.Init.DataSize = SPI_DATASIZE_4BIT;
 604              		.loc 1 321 24 is_stmt 0 view .LVU170
 605 000e 0023     		movs	r3, #0
 606 0010 8360     		str	r3, [r0, #8]
 322:Core/Src/main.c ****   hspi1.Init.CLKPolarity = SPI_POLARITY_LOW;
 607              		.loc 1 322 3 is_stmt 1 view .LVU171
 322:Core/Src/main.c ****   hspi1.Init.CLKPolarity = SPI_POLARITY_LOW;
 608              		.loc 1 322 23 is_stmt 0 view .LVU172
 609 0012 C022     		movs	r2, #192
 610 0014 9200     		lsls	r2, r2, #2
 611 0016 C260     		str	r2, [r0, #12]
 323:Core/Src/main.c ****   hspi1.Init.CLKPhase = SPI_PHASE_1EDGE;
 612              		.loc 1 323 3 is_stmt 1 view .LVU173
 323:Core/Src/main.c ****   hspi1.Init.CLKPhase = SPI_PHASE_1EDGE;
 613              		.loc 1 323 26 is_stmt 0 view .LVU174
 614 0018 0361     		str	r3, [r0, #16]
 324:Core/Src/main.c ****   hspi1.Init.NSS = SPI_NSS_SOFT;
ARM GAS  C:\Users\Password\AppData\Local\Temp\ccOFJB6v.s 			page 24


 615              		.loc 1 324 3 is_stmt 1 view .LVU175
 324:Core/Src/main.c ****   hspi1.Init.NSS = SPI_NSS_SOFT;
 616              		.loc 1 324 23 is_stmt 0 view .LVU176
 617 001a 4361     		str	r3, [r0, #20]
 325:Core/Src/main.c ****   hspi1.Init.BaudRatePrescaler = SPI_BAUDRATEPRESCALER_4;
 618              		.loc 1 325 3 is_stmt 1 view .LVU177
 325:Core/Src/main.c ****   hspi1.Init.BaudRatePrescaler = SPI_BAUDRATEPRESCALER_4;
 619              		.loc 1 325 18 is_stmt 0 view .LVU178
 620 001c 013A     		subs	r2, r2, #1
 621 001e FF3A     		subs	r2, r2, #255
 622 0020 8261     		str	r2, [r0, #24]
 326:Core/Src/main.c ****   hspi1.Init.FirstBit = SPI_FIRSTBIT_MSB;
 623              		.loc 1 326 3 is_stmt 1 view .LVU179
 326:Core/Src/main.c ****   hspi1.Init.FirstBit = SPI_FIRSTBIT_MSB;
 624              		.loc 1 326 32 is_stmt 0 view .LVU180
 625 0022 F93A     		subs	r2, r2, #249
 626 0024 FF3A     		subs	r2, r2, #255
 627 0026 C261     		str	r2, [r0, #28]
 327:Core/Src/main.c ****   hspi1.Init.TIMode = SPI_TIMODE_DISABLE;
 628              		.loc 1 327 3 is_stmt 1 view .LVU181
 327:Core/Src/main.c ****   hspi1.Init.TIMode = SPI_TIMODE_DISABLE;
 629              		.loc 1 327 23 is_stmt 0 view .LVU182
 630 0028 0362     		str	r3, [r0, #32]
 328:Core/Src/main.c ****   hspi1.Init.CRCCalculation = SPI_CRCCALCULATION_DISABLE;
 631              		.loc 1 328 3 is_stmt 1 view .LVU183
 328:Core/Src/main.c ****   hspi1.Init.CRCCalculation = SPI_CRCCALCULATION_DISABLE;
 632              		.loc 1 328 21 is_stmt 0 view .LVU184
 633 002a 4362     		str	r3, [r0, #36]
 329:Core/Src/main.c ****   hspi1.Init.CRCPolynomial = 7;
 634              		.loc 1 329 3 is_stmt 1 view .LVU185
 329:Core/Src/main.c ****   hspi1.Init.CRCPolynomial = 7;
 635              		.loc 1 329 29 is_stmt 0 view .LVU186
 636 002c 8362     		str	r3, [r0, #40]
 330:Core/Src/main.c ****   hspi1.Init.CRCLength = SPI_CRC_LENGTH_DATASIZE;
 637              		.loc 1 330 3 is_stmt 1 view .LVU187
 330:Core/Src/main.c ****   hspi1.Init.CRCLength = SPI_CRC_LENGTH_DATASIZE;
 638              		.loc 1 330 28 is_stmt 0 view .LVU188
 639 002e 0721     		movs	r1, #7
 640 0030 C162     		str	r1, [r0, #44]
 331:Core/Src/main.c ****   hspi1.Init.NSSPMode = SPI_NSS_PULSE_ENABLE;
 641              		.loc 1 331 3 is_stmt 1 view .LVU189
 331:Core/Src/main.c ****   hspi1.Init.NSSPMode = SPI_NSS_PULSE_ENABLE;
 642              		.loc 1 331 24 is_stmt 0 view .LVU190
 643 0032 0363     		str	r3, [r0, #48]
 332:Core/Src/main.c ****   if (HAL_SPI_Init(&hspi1) != HAL_OK)
 644              		.loc 1 332 3 is_stmt 1 view .LVU191
 332:Core/Src/main.c ****   if (HAL_SPI_Init(&hspi1) != HAL_OK)
 645              		.loc 1 332 23 is_stmt 0 view .LVU192
 646 0034 4263     		str	r2, [r0, #52]
 333:Core/Src/main.c ****   {
 647              		.loc 1 333 3 is_stmt 1 view .LVU193
 333:Core/Src/main.c ****   {
 648              		.loc 1 333 7 is_stmt 0 view .LVU194
 649 0036 FFF7FEFF 		bl	HAL_SPI_Init
 650              	.LVL28:
 333:Core/Src/main.c ****   {
 651              		.loc 1 333 6 view .LVU195
ARM GAS  C:\Users\Password\AppData\Local\Temp\ccOFJB6v.s 			page 25


 652 003a 0028     		cmp	r0, #0
 653 003c 00D1     		bne	.L31
 341:Core/Src/main.c **** 
 654              		.loc 1 341 1 view .LVU196
 655              		@ sp needed
 656 003e 10BD     		pop	{r4, pc}
 657              	.L31:
 335:Core/Src/main.c ****   }
 658              		.loc 1 335 5 is_stmt 1 view .LVU197
 659 0040 FFF7FEFF 		bl	Error_Handler
 660              	.LVL29:
 661              	.L33:
 662              		.align	2
 663              	.L32:
 664 0044 00000000 		.word	.LANCHOR4
 665 0048 00300140 		.word	1073819648
 666              		.cfi_endproc
 667              	.LFE44:
 669              		.section	.text.MX_USART1_UART_Init,"ax",%progbits
 670              		.align	1
 671              		.syntax unified
 672              		.code	16
 673              		.thumb_func
 675              	MX_USART1_UART_Init:
 676              	.LFB45:
 349:Core/Src/main.c **** 
 677              		.loc 1 349 1 view -0
 678              		.cfi_startproc
 679              		@ args = 0, pretend = 0, frame = 0
 680              		@ frame_needed = 0, uses_anonymous_args = 0
 681 0000 10B5     		push	{r4, lr}
 682              	.LCFI8:
 683              		.cfi_def_cfa_offset 8
 684              		.cfi_offset 4, -8
 685              		.cfi_offset 14, -4
 358:Core/Src/main.c ****   huart1.Init.BaudRate = 38400;
 686              		.loc 1 358 3 view .LVU199
 358:Core/Src/main.c ****   huart1.Init.BaudRate = 38400;
 687              		.loc 1 358 19 is_stmt 0 view .LVU200
 688 0002 0B48     		ldr	r0, .L37
 689 0004 0B4B     		ldr	r3, .L37+4
 690 0006 0360     		str	r3, [r0]
 359:Core/Src/main.c ****   huart1.Init.WordLength = UART_WORDLENGTH_8B;
 691              		.loc 1 359 3 is_stmt 1 view .LVU201
 359:Core/Src/main.c ****   huart1.Init.WordLength = UART_WORDLENGTH_8B;
 692              		.loc 1 359 24 is_stmt 0 view .LVU202
 693 0008 9623     		movs	r3, #150
 694 000a 1B02     		lsls	r3, r3, #8
 695 000c 4360     		str	r3, [r0, #4]
 360:Core/Src/main.c ****   huart1.Init.StopBits = UART_STOPBITS_1;
 696              		.loc 1 360 3 is_stmt 1 view .LVU203
 360:Core/Src/main.c ****   huart1.Init.StopBits = UART_STOPBITS_1;
 697              		.loc 1 360 26 is_stmt 0 view .LVU204
 698 000e 0023     		movs	r3, #0
 699 0010 8360     		str	r3, [r0, #8]
 361:Core/Src/main.c ****   huart1.Init.Parity = UART_PARITY_NONE;
 700              		.loc 1 361 3 is_stmt 1 view .LVU205
ARM GAS  C:\Users\Password\AppData\Local\Temp\ccOFJB6v.s 			page 26


 361:Core/Src/main.c ****   huart1.Init.Parity = UART_PARITY_NONE;
 701              		.loc 1 361 24 is_stmt 0 view .LVU206
 702 0012 C360     		str	r3, [r0, #12]
 362:Core/Src/main.c ****   huart1.Init.Mode = UART_MODE_TX_RX;
 703              		.loc 1 362 3 is_stmt 1 view .LVU207
 362:Core/Src/main.c ****   huart1.Init.Mode = UART_MODE_TX_RX;
 704              		.loc 1 362 22 is_stmt 0 view .LVU208
 705 0014 0361     		str	r3, [r0, #16]
 363:Core/Src/main.c ****   huart1.Init.HwFlowCtl = UART_HWCONTROL_NONE;
 706              		.loc 1 363 3 is_stmt 1 view .LVU209
 363:Core/Src/main.c ****   huart1.Init.HwFlowCtl = UART_HWCONTROL_NONE;
 707              		.loc 1 363 20 is_stmt 0 view .LVU210
 708 0016 0C22     		movs	r2, #12
 709 0018 4261     		str	r2, [r0, #20]
 364:Core/Src/main.c ****   huart1.Init.OverSampling = UART_OVERSAMPLING_16;
 710              		.loc 1 364 3 is_stmt 1 view .LVU211
 364:Core/Src/main.c ****   huart1.Init.OverSampling = UART_OVERSAMPLING_16;
 711              		.loc 1 364 25 is_stmt 0 view .LVU212
 712 001a 8361     		str	r3, [r0, #24]
 365:Core/Src/main.c ****   huart1.Init.OneBitSampling = UART_ONE_BIT_SAMPLE_DISABLE;
 713              		.loc 1 365 3 is_stmt 1 view .LVU213
 365:Core/Src/main.c ****   huart1.Init.OneBitSampling = UART_ONE_BIT_SAMPLE_DISABLE;
 714              		.loc 1 365 28 is_stmt 0 view .LVU214
 715 001c C361     		str	r3, [r0, #28]
 366:Core/Src/main.c ****   huart1.AdvancedInit.AdvFeatureInit = UART_ADVFEATURE_NO_INIT;
 716              		.loc 1 366 3 is_stmt 1 view .LVU215
 366:Core/Src/main.c ****   huart1.AdvancedInit.AdvFeatureInit = UART_ADVFEATURE_NO_INIT;
 717              		.loc 1 366 30 is_stmt 0 view .LVU216
 718 001e 0362     		str	r3, [r0, #32]
 367:Core/Src/main.c ****   if (HAL_UART_Init(&huart1) != HAL_OK)
 719              		.loc 1 367 3 is_stmt 1 view .LVU217
 367:Core/Src/main.c ****   if (HAL_UART_Init(&huart1) != HAL_OK)
 720              		.loc 1 367 38 is_stmt 0 view .LVU218
 721 0020 4362     		str	r3, [r0, #36]
 368:Core/Src/main.c ****   {
 722              		.loc 1 368 3 is_stmt 1 view .LVU219
 368:Core/Src/main.c ****   {
 723              		.loc 1 368 7 is_stmt 0 view .LVU220
 724 0022 FFF7FEFF 		bl	HAL_UART_Init
 725              	.LVL30:
 368:Core/Src/main.c ****   {
 726              		.loc 1 368 6 view .LVU221
 727 0026 0028     		cmp	r0, #0
 728 0028 00D1     		bne	.L36
 376:Core/Src/main.c **** 
 729              		.loc 1 376 1 view .LVU222
 730              		@ sp needed
 731 002a 10BD     		pop	{r4, pc}
 732              	.L36:
 370:Core/Src/main.c ****   }
 733              		.loc 1 370 5 is_stmt 1 view .LVU223
 734 002c FFF7FEFF 		bl	Error_Handler
 735              	.LVL31:
 736              	.L38:
 737              		.align	2
 738              	.L37:
 739 0030 00000000 		.word	huart1
ARM GAS  C:\Users\Password\AppData\Local\Temp\ccOFJB6v.s 			page 27


 740 0034 00380140 		.word	1073821696
 741              		.cfi_endproc
 742              	.LFE45:
 744              		.section	.text.SystemClock_Config,"ax",%progbits
 745              		.align	1
 746              		.global	SystemClock_Config
 747              		.syntax unified
 748              		.code	16
 749              		.thumb_func
 751              	SystemClock_Config:
 752              	.LFB41:
 158:Core/Src/main.c ****   RCC_OscInitTypeDef RCC_OscInitStruct = {0};
 753              		.loc 1 158 1 view -0
 754              		.cfi_startproc
 755              		@ args = 0, pretend = 0, frame = 80
 756              		@ frame_needed = 0, uses_anonymous_args = 0
 757 0000 10B5     		push	{r4, lr}
 758              	.LCFI9:
 759              		.cfi_def_cfa_offset 8
 760              		.cfi_offset 4, -8
 761              		.cfi_offset 14, -4
 762 0002 94B0     		sub	sp, sp, #80
 763              	.LCFI10:
 764              		.cfi_def_cfa_offset 88
 159:Core/Src/main.c ****   RCC_ClkInitTypeDef RCC_ClkInitStruct = {0};
 765              		.loc 1 159 3 view .LVU225
 159:Core/Src/main.c ****   RCC_ClkInitTypeDef RCC_ClkInitStruct = {0};
 766              		.loc 1 159 22 is_stmt 0 view .LVU226
 767 0004 3022     		movs	r2, #48
 768 0006 0021     		movs	r1, #0
 769 0008 08A8     		add	r0, sp, #32
 770 000a FFF7FEFF 		bl	memset
 771              	.LVL32:
 160:Core/Src/main.c ****   RCC_PeriphCLKInitTypeDef PeriphClkInit = {0};
 772              		.loc 1 160 3 is_stmt 1 view .LVU227
 160:Core/Src/main.c ****   RCC_PeriphCLKInitTypeDef PeriphClkInit = {0};
 773              		.loc 1 160 22 is_stmt 0 view .LVU228
 774 000e 1024     		movs	r4, #16
 775 0010 1022     		movs	r2, #16
 776 0012 0021     		movs	r1, #0
 777 0014 04A8     		add	r0, sp, #16
 778 0016 FFF7FEFF 		bl	memset
 779              	.LVL33:
 161:Core/Src/main.c **** 
 780              		.loc 1 161 3 is_stmt 1 view .LVU229
 161:Core/Src/main.c **** 
 781              		.loc 1 161 28 is_stmt 0 view .LVU230
 782 001a 1022     		movs	r2, #16
 783 001c 0021     		movs	r1, #0
 784 001e 6846     		mov	r0, sp
 785 0020 FFF7FEFF 		bl	memset
 786              	.LVL34:
 166:Core/Src/main.c ****   RCC_OscInitStruct.HSIState = RCC_HSI_ON;
 787              		.loc 1 166 3 is_stmt 1 view .LVU231
 166:Core/Src/main.c ****   RCC_OscInitStruct.HSIState = RCC_HSI_ON;
 788              		.loc 1 166 36 is_stmt 0 view .LVU232
 789 0024 1223     		movs	r3, #18
ARM GAS  C:\Users\Password\AppData\Local\Temp\ccOFJB6v.s 			page 28


 790 0026 0893     		str	r3, [sp, #32]
 167:Core/Src/main.c ****   RCC_OscInitStruct.HSI14State = RCC_HSI14_ON;
 791              		.loc 1 167 3 is_stmt 1 view .LVU233
 167:Core/Src/main.c ****   RCC_OscInitStruct.HSI14State = RCC_HSI14_ON;
 792              		.loc 1 167 30 is_stmt 0 view .LVU234
 793 0028 113B     		subs	r3, r3, #17
 794 002a 0B93     		str	r3, [sp, #44]
 168:Core/Src/main.c ****   RCC_OscInitStruct.HSICalibrationValue = RCC_HSICALIBRATION_DEFAULT;
 795              		.loc 1 168 3 is_stmt 1 view .LVU235
 168:Core/Src/main.c ****   RCC_OscInitStruct.HSICalibrationValue = RCC_HSICALIBRATION_DEFAULT;
 796              		.loc 1 168 32 is_stmt 0 view .LVU236
 797 002c 0D93     		str	r3, [sp, #52]
 169:Core/Src/main.c ****   RCC_OscInitStruct.HSI14CalibrationValue = 16;
 798              		.loc 1 169 3 is_stmt 1 view .LVU237
 169:Core/Src/main.c ****   RCC_OscInitStruct.HSI14CalibrationValue = 16;
 799              		.loc 1 169 41 is_stmt 0 view .LVU238
 800 002e 0C94     		str	r4, [sp, #48]
 170:Core/Src/main.c ****   RCC_OscInitStruct.PLL.PLLState = RCC_PLL_ON;
 801              		.loc 1 170 3 is_stmt 1 view .LVU239
 170:Core/Src/main.c ****   RCC_OscInitStruct.PLL.PLLState = RCC_PLL_ON;
 802              		.loc 1 170 43 is_stmt 0 view .LVU240
 803 0030 0E94     		str	r4, [sp, #56]
 171:Core/Src/main.c ****   RCC_OscInitStruct.PLL.PLLSource = RCC_PLLSOURCE_HSI;
 804              		.loc 1 171 3 is_stmt 1 view .LVU241
 171:Core/Src/main.c ****   RCC_OscInitStruct.PLL.PLLSource = RCC_PLLSOURCE_HSI;
 805              		.loc 1 171 34 is_stmt 0 view .LVU242
 806 0032 0133     		adds	r3, r3, #1
 807 0034 1093     		str	r3, [sp, #64]
 172:Core/Src/main.c ****   RCC_OscInitStruct.PLL.PLLMUL = RCC_PLL_MUL12;
 808              		.loc 1 172 3 is_stmt 1 view .LVU243
 173:Core/Src/main.c ****   RCC_OscInitStruct.PLL.PREDIV = RCC_PREDIV_DIV1;
 809              		.loc 1 173 3 view .LVU244
 173:Core/Src/main.c ****   RCC_OscInitStruct.PLL.PREDIV = RCC_PREDIV_DIV1;
 810              		.loc 1 173 32 is_stmt 0 view .LVU245
 811 0036 A023     		movs	r3, #160
 812 0038 9B03     		lsls	r3, r3, #14
 813 003a 1293     		str	r3, [sp, #72]
 174:Core/Src/main.c ****   if (HAL_RCC_OscConfig(&RCC_OscInitStruct) != HAL_OK)
 814              		.loc 1 174 3 is_stmt 1 view .LVU246
 175:Core/Src/main.c ****   {
 815              		.loc 1 175 3 view .LVU247
 175:Core/Src/main.c ****   {
 816              		.loc 1 175 7 is_stmt 0 view .LVU248
 817 003c 08A8     		add	r0, sp, #32
 818 003e FFF7FEFF 		bl	HAL_RCC_OscConfig
 819              	.LVL35:
 175:Core/Src/main.c ****   {
 820              		.loc 1 175 6 view .LVU249
 821 0042 0028     		cmp	r0, #0
 822 0044 19D1     		bne	.L43
 182:Core/Src/main.c ****                               |RCC_CLOCKTYPE_PCLK1;
 823              		.loc 1 182 3 is_stmt 1 view .LVU250
 182:Core/Src/main.c ****                               |RCC_CLOCKTYPE_PCLK1;
 824              		.loc 1 182 31 is_stmt 0 view .LVU251
 825 0046 0723     		movs	r3, #7
 826 0048 0493     		str	r3, [sp, #16]
 184:Core/Src/main.c ****   RCC_ClkInitStruct.AHBCLKDivider = RCC_SYSCLK_DIV1;
ARM GAS  C:\Users\Password\AppData\Local\Temp\ccOFJB6v.s 			page 29


 827              		.loc 1 184 3 is_stmt 1 view .LVU252
 184:Core/Src/main.c ****   RCC_ClkInitStruct.AHBCLKDivider = RCC_SYSCLK_DIV1;
 828              		.loc 1 184 34 is_stmt 0 view .LVU253
 829 004a 053B     		subs	r3, r3, #5
 830 004c 0593     		str	r3, [sp, #20]
 185:Core/Src/main.c ****   RCC_ClkInitStruct.APB1CLKDivider = RCC_HCLK_DIV1;
 831              		.loc 1 185 3 is_stmt 1 view .LVU254
 185:Core/Src/main.c ****   RCC_ClkInitStruct.APB1CLKDivider = RCC_HCLK_DIV1;
 832              		.loc 1 185 35 is_stmt 0 view .LVU255
 833 004e 0023     		movs	r3, #0
 834 0050 0693     		str	r3, [sp, #24]
 186:Core/Src/main.c **** 
 835              		.loc 1 186 3 is_stmt 1 view .LVU256
 186:Core/Src/main.c **** 
 836              		.loc 1 186 36 is_stmt 0 view .LVU257
 837 0052 0793     		str	r3, [sp, #28]
 188:Core/Src/main.c ****   {
 838              		.loc 1 188 3 is_stmt 1 view .LVU258
 188:Core/Src/main.c ****   {
 839              		.loc 1 188 7 is_stmt 0 view .LVU259
 840 0054 0121     		movs	r1, #1
 841 0056 04A8     		add	r0, sp, #16
 842 0058 FFF7FEFF 		bl	HAL_RCC_ClockConfig
 843              	.LVL36:
 188:Core/Src/main.c ****   {
 844              		.loc 1 188 6 view .LVU260
 845 005c 0028     		cmp	r0, #0
 846 005e 0ED1     		bne	.L44
 192:Core/Src/main.c ****   PeriphClkInit.Usart1ClockSelection = RCC_USART1CLKSOURCE_PCLK1;
 847              		.loc 1 192 3 is_stmt 1 view .LVU261
 192:Core/Src/main.c ****   PeriphClkInit.Usart1ClockSelection = RCC_USART1CLKSOURCE_PCLK1;
 848              		.loc 1 192 38 is_stmt 0 view .LVU262
 849 0060 2123     		movs	r3, #33
 850 0062 0093     		str	r3, [sp]
 193:Core/Src/main.c ****   PeriphClkInit.I2c1ClockSelection = RCC_I2C1CLKSOURCE_SYSCLK;
 851              		.loc 1 193 3 is_stmt 1 view .LVU263
 193:Core/Src/main.c ****   PeriphClkInit.I2c1ClockSelection = RCC_I2C1CLKSOURCE_SYSCLK;
 852              		.loc 1 193 38 is_stmt 0 view .LVU264
 853 0064 0023     		movs	r3, #0
 854 0066 0293     		str	r3, [sp, #8]
 194:Core/Src/main.c ****   if (HAL_RCCEx_PeriphCLKConfig(&PeriphClkInit) != HAL_OK)
 855              		.loc 1 194 3 is_stmt 1 view .LVU265
 194:Core/Src/main.c ****   if (HAL_RCCEx_PeriphCLKConfig(&PeriphClkInit) != HAL_OK)
 856              		.loc 1 194 36 is_stmt 0 view .LVU266
 857 0068 1033     		adds	r3, r3, #16
 858 006a 0393     		str	r3, [sp, #12]
 195:Core/Src/main.c ****   {
 859              		.loc 1 195 3 is_stmt 1 view .LVU267
 195:Core/Src/main.c ****   {
 860              		.loc 1 195 7 is_stmt 0 view .LVU268
 861 006c 6846     		mov	r0, sp
 862 006e FFF7FEFF 		bl	HAL_RCCEx_PeriphCLKConfig
 863              	.LVL37:
 195:Core/Src/main.c ****   {
 864              		.loc 1 195 6 view .LVU269
 865 0072 0028     		cmp	r0, #0
 866 0074 05D1     		bne	.L45
ARM GAS  C:\Users\Password\AppData\Local\Temp\ccOFJB6v.s 			page 30


 199:Core/Src/main.c **** 
 867              		.loc 1 199 1 view .LVU270
 868 0076 14B0     		add	sp, sp, #80
 869              		@ sp needed
 870 0078 10BD     		pop	{r4, pc}
 871              	.L43:
 177:Core/Src/main.c ****   }
 872              		.loc 1 177 5 is_stmt 1 view .LVU271
 873 007a FFF7FEFF 		bl	Error_Handler
 874              	.LVL38:
 875              	.L44:
 190:Core/Src/main.c ****   }
 876              		.loc 1 190 5 view .LVU272
 877 007e FFF7FEFF 		bl	Error_Handler
 878              	.LVL39:
 879              	.L45:
 197:Core/Src/main.c ****   }
 880              		.loc 1 197 5 view .LVU273
 881 0082 FFF7FEFF 		bl	Error_Handler
 882              	.LVL40:
 883              		.cfi_endproc
 884              	.LFE41:
 886              		.section	.text.main,"ax",%progbits
 887              		.align	1
 888              		.global	main
 889              		.syntax unified
 890              		.code	16
 891              		.thumb_func
 893              	main:
 894              	.LFB40:
  77:Core/Src/main.c ****   /* USER CODE BEGIN 1 */
 895              		.loc 1 77 1 view -0
 896              		.cfi_startproc
 897              		@ Volatile: function does not return.
 898              		@ args = 0, pretend = 0, frame = 48
 899              		@ frame_needed = 0, uses_anonymous_args = 0
 900 0000 30B5     		push	{r4, r5, lr}
 901              	.LCFI11:
 902              		.cfi_def_cfa_offset 12
 903              		.cfi_offset 4, -12
 904              		.cfi_offset 5, -8
 905              		.cfi_offset 14, -4
 906 0002 8DB0     		sub	sp, sp, #52
 907              	.LCFI12:
 908              		.cfi_def_cfa_offset 64
  85:Core/Src/main.c **** 
 909              		.loc 1 85 3 view .LVU275
 910 0004 FFF7FEFF 		bl	HAL_Init
 911              	.LVL41:
  92:Core/Src/main.c **** 
 912              		.loc 1 92 3 view .LVU276
 913 0008 FFF7FEFF 		bl	SystemClock_Config
 914              	.LVL42:
  99:Core/Src/main.c ****   MX_ADC_Init();
 915              		.loc 1 99 3 view .LVU277
 916 000c FFF7FEFF 		bl	MX_GPIO_Init
 917              	.LVL43:
ARM GAS  C:\Users\Password\AppData\Local\Temp\ccOFJB6v.s 			page 31


 100:Core/Src/main.c ****   MX_I2C1_Init();
 918              		.loc 1 100 3 view .LVU278
 919 0010 FFF7FEFF 		bl	MX_ADC_Init
 920              	.LVL44:
 101:Core/Src/main.c ****   MX_SPI1_Init();
 921              		.loc 1 101 3 view .LVU279
 922 0014 FFF7FEFF 		bl	MX_I2C1_Init
 923              	.LVL45:
 102:Core/Src/main.c ****   MX_USART1_UART_Init();
 924              		.loc 1 102 3 view .LVU280
 925 0018 FFF7FEFF 		bl	MX_SPI1_Init
 926              	.LVL46:
 103:Core/Src/main.c ****   /* USER CODE BEGIN 2 */
 927              		.loc 1 103 3 view .LVU281
 928 001c FFF7FEFF 		bl	MX_USART1_UART_Init
 929              	.LVL47:
 106:Core/Src/main.c ****   rxLoRa.CS_port = LORA_NCS_GPIO_Port;
 930              		.loc 1 106 3 view .LVU282
 106:Core/Src/main.c ****   rxLoRa.CS_port = LORA_NCS_GPIO_Port;
 931              		.loc 1 106 12 is_stmt 0 view .LVU283
 932 0020 2F4C     		ldr	r4, .L51
 933 0022 6D46     		mov	r5, sp
 934 0024 2800     		movs	r0, r5
 935 0026 FFF7FEFF 		bl	newLoRa
 936              	.LVL48:
 937 002a 2300     		movs	r3, r4
 938 002c 2800     		movs	r0, r5
 939 002e 26C8     		ldmia	r0!, {r1, r2, r5}
 940 0030 26C3     		stmia	r3!, {r1, r2, r5}
 941 0032 26C8     		ldmia	r0!, {r1, r2, r5}
 942 0034 26C3     		stmia	r3!, {r1, r2, r5}
 943 0036 26C8     		ldmia	r0!, {r1, r2, r5}
 944 0038 26C3     		stmia	r3!, {r1, r2, r5}
 945 003a 06C8     		ldmia	r0!, {r1, r2}
 946 003c 06C3     		stmia	r3!, {r1, r2}
 107:Core/Src/main.c ****   rxLoRa.CS_pin = LORA_NCS_Pin;
 947              		.loc 1 107 3 is_stmt 1 view .LVU284
 107:Core/Src/main.c ****   rxLoRa.CS_pin = LORA_NCS_Pin;
 948              		.loc 1 107 18 is_stmt 0 view .LVU285
 949 003e 9022     		movs	r2, #144
 950 0040 D205     		lsls	r2, r2, #23
 951 0042 2260     		str	r2, [r4]
 108:Core/Src/main.c ****   rxLoRa.reset_port = LORA_RST_GPIO_Port;
 952              		.loc 1 108 3 is_stmt 1 view .LVU286
 108:Core/Src/main.c ****   rxLoRa.reset_port = LORA_RST_GPIO_Port;
 953              		.loc 1 108 17 is_stmt 0 view .LVU287
 954 0044 1023     		movs	r3, #16
 955 0046 A380     		strh	r3, [r4, #4]
 109:Core/Src/main.c ****   rxLoRa.reset_pin = LORA_RST_Pin;
 956              		.loc 1 109 3 is_stmt 1 view .LVU288
 109:Core/Src/main.c ****   rxLoRa.reset_pin = LORA_RST_Pin;
 957              		.loc 1 109 21 is_stmt 0 view .LVU289
 958 0048 264B     		ldr	r3, .L51+4
 959 004a A360     		str	r3, [r4, #8]
 110:Core/Src/main.c ****   rxLoRa.DIO0_port = LORA_INT_GPIO_Port;
 960              		.loc 1 110 3 is_stmt 1 view .LVU290
 110:Core/Src/main.c ****   rxLoRa.DIO0_port = LORA_INT_GPIO_Port;
ARM GAS  C:\Users\Password\AppData\Local\Temp\ccOFJB6v.s 			page 32


 961              		.loc 1 110 20 is_stmt 0 view .LVU291
 962 004c 0223     		movs	r3, #2
 963 004e A381     		strh	r3, [r4, #12]
 111:Core/Src/main.c ****   rxLoRa.DIO0_pin = LORA_INT_Pin;
 964              		.loc 1 111 3 is_stmt 1 view .LVU292
 111:Core/Src/main.c ****   rxLoRa.DIO0_pin = LORA_INT_Pin;
 965              		.loc 1 111 20 is_stmt 0 view .LVU293
 966 0050 2261     		str	r2, [r4, #16]
 112:Core/Src/main.c ****   rxLoRa.hSPIx = &hspi1;
 967              		.loc 1 112 3 is_stmt 1 view .LVU294
 112:Core/Src/main.c ****   rxLoRa.hSPIx = &hspi1;
 968              		.loc 1 112 19 is_stmt 0 view .LVU295
 969 0052 A382     		strh	r3, [r4, #20]
 113:Core/Src/main.c **** 
 970              		.loc 1 113 3 is_stmt 1 view .LVU296
 113:Core/Src/main.c **** 
 971              		.loc 1 113 16 is_stmt 0 view .LVU297
 972 0054 244B     		ldr	r3, .L51+8
 973 0056 A361     		str	r3, [r4, #24]
 115:Core/Src/main.c ****   rxLoRa.spredingFactor = SF_7;       // default = SF_7
 974              		.loc 1 115 3 is_stmt 1 view .LVU298
 115:Core/Src/main.c ****   rxLoRa.spredingFactor = SF_7;       // default = SF_7
 975              		.loc 1 115 20 is_stmt 0 view .LVU299
 976 0058 B223     		movs	r3, #178
 977 005a FF33     		adds	r3, r3, #255
 978 005c 2362     		str	r3, [r4, #32]
 116:Core/Src/main.c ****   rxLoRa.bandWidth = BW_125KHz;       // default = BW_125KHz
 979              		.loc 1 116 3 is_stmt 1 view .LVU300
 116:Core/Src/main.c ****   rxLoRa.bandWidth = BW_125KHz;       // default = BW_125KHz
 980              		.loc 1 116 25 is_stmt 0 view .LVU301
 981 005e AB3B     		subs	r3, r3, #171
 982 0060 FF3B     		subs	r3, r3, #255
 983 0062 2422     		movs	r2, #36
 984 0064 A354     		strb	r3, [r4, r2]
 117:Core/Src/main.c ****   rxLoRa.crcRate = CR_4_5;            // default = CR_4_5
 985              		.loc 1 117 3 is_stmt 1 view .LVU302
 117:Core/Src/main.c ****   rxLoRa.crcRate = CR_4_5;            // default = CR_4_5
 986              		.loc 1 117 20 is_stmt 0 view .LVU303
 987 0066 0132     		adds	r2, r2, #1
 988 0068 A354     		strb	r3, [r4, r2]
 118:Core/Src/main.c ****   rxLoRa.power = POWER_17db;          // default = 20db
 989              		.loc 1 118 3 is_stmt 1 view .LVU304
 118:Core/Src/main.c ****   rxLoRa.power = POWER_17db;          // default = 20db
 990              		.loc 1 118 18 is_stmt 0 view .LVU305
 991 006a 1F33     		adds	r3, r3, #31
 992 006c 243A     		subs	r2, r2, #36
 993 006e E254     		strb	r2, [r4, r3]
 119:Core/Src/main.c ****   rxLoRa.overCurrentProtection = 100; // default = 100 mA
 994              		.loc 1 119 3 is_stmt 1 view .LVU306
 119:Core/Src/main.c ****   rxLoRa.overCurrentProtection = 100; // default = 100 mA
 995              		.loc 1 119 16 is_stmt 0 view .LVU307
 996 0070 0433     		adds	r3, r3, #4
 997 0072 FB32     		adds	r2, r2, #251
 998 0074 E254     		strb	r2, [r4, r3]
 120:Core/Src/main.c ****   rxLoRa.preamble = 10;               // default = 8;
 999              		.loc 1 120 3 is_stmt 1 view .LVU308
 120:Core/Src/main.c ****   rxLoRa.preamble = 10;               // default = 8;
ARM GAS  C:\Users\Password\AppData\Local\Temp\ccOFJB6v.s 			page 33


 1000              		.loc 1 120 32 is_stmt 0 view .LVU309
 1001 0076 0133     		adds	r3, r3, #1
 1002 0078 983A     		subs	r2, r2, #152
 1003 007a E254     		strb	r2, [r4, r3]
 121:Core/Src/main.c **** 
 1004              		.loc 1 121 3 is_stmt 1 view .LVU310
 121:Core/Src/main.c **** 
 1005              		.loc 1 121 19 is_stmt 0 view .LVU311
 1006 007c 213B     		subs	r3, r3, #33
 1007 007e 2385     		strh	r3, [r4, #40]
 123:Core/Src/main.c ****   LoRa_init(&rxLoRa);
 1008              		.loc 1 123 3 is_stmt 1 view .LVU312
 1009 0080 2000     		movs	r0, r4
 1010 0082 FFF7FEFF 		bl	LoRa_reset
 1011              	.LVL49:
 124:Core/Src/main.c **** 
 1012              		.loc 1 124 3 view .LVU313
 1013 0086 2000     		movs	r0, r4
 1014 0088 FFF7FEFF 		bl	LoRa_init
 1015              	.LVL50:
 130:Core/Src/main.c ****   while (1)
 1016              		.loc 1 130 3 view .LVU314
 1017 008c 0521     		movs	r1, #5
 1018 008e 2000     		movs	r0, r4
 1019 0090 FFF7FEFF 		bl	LoRa_gotoMode
 1020              	.LVL51:
 1021 0094 0AE0     		b	.L47
 1022              	.L50:
 141:Core/Src/main.c ****         HAL_GPIO_WritePin(LED_RED_GPIO_Port,LED_RED_Pin,GPIO_PIN_RESET);
 1023              		.loc 1 141 9 view .LVU315
 1024 0096 154C     		ldr	r4, .L51+12
 1025 0098 0122     		movs	r2, #1
 1026 009a 0221     		movs	r1, #2
 1027 009c 2000     		movs	r0, r4
 1028 009e FFF7FEFF 		bl	HAL_GPIO_WritePin
 1029              	.LVL52:
 142:Core/Src/main.c ****       }
 1030              		.loc 1 142 9 view .LVU316
 1031 00a2 0022     		movs	r2, #0
 1032 00a4 0121     		movs	r1, #1
 1033 00a6 2000     		movs	r0, r4
 1034 00a8 FFF7FEFF 		bl	HAL_GPIO_WritePin
 1035              	.LVL53:
 1036              	.L47:
 131:Core/Src/main.c ****   {
 1037              		.loc 1 131 3 view .LVU317
 139:Core/Src/main.c ****       if (receiveData[1] == 1){
 1038              		.loc 1 139 5 view .LVU318
 139:Core/Src/main.c ****       if (receiveData[1] == 1){
 1039              		.loc 1 139 9 is_stmt 0 view .LVU319
 1040 00ac 1049     		ldr	r1, .L51+16
 1041 00ae 0C48     		ldr	r0, .L51
 1042 00b0 0322     		movs	r2, #3
 1043 00b2 FFF7FEFF 		bl	LoRa_receive
 1044              	.LVL54:
 139:Core/Src/main.c ****       if (receiveData[1] == 1){
 1045              		.loc 1 139 8 view .LVU320
ARM GAS  C:\Users\Password\AppData\Local\Temp\ccOFJB6v.s 			page 34


 1046 00b6 0328     		cmp	r0, #3
 1047 00b8 F8D1     		bne	.L47
 140:Core/Src/main.c ****         HAL_GPIO_WritePin(LED_BLUE_GPIO_Port,LED_BLUE_Pin,GPIO_PIN_SET);
 1048              		.loc 1 140 7 is_stmt 1 view .LVU321
 140:Core/Src/main.c ****         HAL_GPIO_WritePin(LED_BLUE_GPIO_Port,LED_BLUE_Pin,GPIO_PIN_SET);
 1049              		.loc 1 140 22 is_stmt 0 view .LVU322
 1050 00ba 0D4B     		ldr	r3, .L51+16
 1051 00bc 5B78     		ldrb	r3, [r3, #1]
 140:Core/Src/main.c ****         HAL_GPIO_WritePin(LED_BLUE_GPIO_Port,LED_BLUE_Pin,GPIO_PIN_SET);
 1052              		.loc 1 140 10 view .LVU323
 1053 00be 012B     		cmp	r3, #1
 1054 00c0 E9D0     		beq	.L50
 144:Core/Src/main.c ****         HAL_GPIO_WritePin(LED_RED_GPIO_Port,LED_RED_Pin,GPIO_PIN_SET);
 1055              		.loc 1 144 12 is_stmt 1 view .LVU324
 144:Core/Src/main.c ****         HAL_GPIO_WritePin(LED_RED_GPIO_Port,LED_RED_Pin,GPIO_PIN_SET);
 1056              		.loc 1 144 15 is_stmt 0 view .LVU325
 1057 00c2 022B     		cmp	r3, #2
 1058 00c4 F2D1     		bne	.L47
 145:Core/Src/main.c ****         HAL_GPIO_WritePin(LED_BLUE_GPIO_Port,LED_BLUE_Pin,GPIO_PIN_RESET);
 1059              		.loc 1 145 9 is_stmt 1 view .LVU326
 1060 00c6 094C     		ldr	r4, .L51+12
 1061 00c8 0122     		movs	r2, #1
 1062 00ca 0121     		movs	r1, #1
 1063 00cc 2000     		movs	r0, r4
 1064 00ce FFF7FEFF 		bl	HAL_GPIO_WritePin
 1065              	.LVL55:
 146:Core/Src/main.c ****       }    
 1066              		.loc 1 146 9 view .LVU327
 1067 00d2 0022     		movs	r2, #0
 1068 00d4 0221     		movs	r1, #2
 1069 00d6 2000     		movs	r0, r4
 1070 00d8 FFF7FEFF 		bl	HAL_GPIO_WritePin
 1071              	.LVL56:
 1072 00dc E6E7     		b	.L47
 1073              	.L52:
 1074 00de C046     		.align	2
 1075              	.L51:
 1076 00e0 00000000 		.word	.LANCHOR0
 1077 00e4 00040048 		.word	1207960576
 1078 00e8 00000000 		.word	.LANCHOR4
 1079 00ec 00140048 		.word	1207964672
 1080 00f0 00000000 		.word	.LANCHOR1
 1081              		.cfi_endproc
 1082              	.LFE40:
 1084              		.global	transmitData
 1085              		.global	receiveData
 1086              		.global	huart1
 1087              		.global	hspi1
 1088              		.global	hi2c1
 1089              		.global	hadc
 1090              		.global	rxLoRa
 1091              		.section	.bss.hadc,"aw",%nobits
 1092              		.align	2
 1093              		.set	.LANCHOR2,. + 0
 1096              	hadc:
 1097 0000 00000000 		.space	64
 1097      00000000 
ARM GAS  C:\Users\Password\AppData\Local\Temp\ccOFJB6v.s 			page 35


 1097      00000000 
 1097      00000000 
 1097      00000000 
 1098              		.section	.bss.hi2c1,"aw",%nobits
 1099              		.align	2
 1100              		.set	.LANCHOR3,. + 0
 1103              	hi2c1:
 1104 0000 00000000 		.space	76
 1104      00000000 
 1104      00000000 
 1104      00000000 
 1104      00000000 
 1105              		.section	.bss.hspi1,"aw",%nobits
 1106              		.align	2
 1107              		.set	.LANCHOR4,. + 0
 1110              	hspi1:
 1111 0000 00000000 		.space	100
 1111      00000000 
 1111      00000000 
 1111      00000000 
 1111      00000000 
 1112              		.section	.bss.huart1,"aw",%nobits
 1113              		.align	2
 1116              	huart1:
 1117 0000 00000000 		.space	132
 1117      00000000 
 1117      00000000 
 1117      00000000 
 1117      00000000 
 1118              		.section	.bss.receiveData,"aw",%nobits
 1119              		.align	2
 1120              		.set	.LANCHOR1,. + 0
 1123              	receiveData:
 1124 0000 000000   		.space	3
 1125              		.section	.bss.rxLoRa,"aw",%nobits
 1126              		.align	2
 1127              		.set	.LANCHOR0,. + 0
 1130              	rxLoRa:
 1131 0000 00000000 		.space	44
 1131      00000000 
 1131      00000000 
 1131      00000000 
 1131      00000000 
 1132              		.section	.bss.transmitData,"aw",%nobits
 1133              		.align	2
 1136              	transmitData:
 1137 0000 000000   		.space	3
 1138              		.text
 1139              	.Letext0:
 1140              		.file 3 "c:\\data\\program files (x86)\\arm gnu toolchain arm-none-eabi\\11.3 rel1\\arm-none-eabi\
 1141              		.file 4 "c:\\data\\program files (x86)\\arm gnu toolchain arm-none-eabi\\11.3 rel1\\arm-none-eabi\
 1142              		.file 5 "Drivers/CMSIS/Device/ST/STM32F0xx/Include/stm32f030x6.h"
 1143              		.file 6 "Drivers/CMSIS/Device/ST/STM32F0xx/Include/stm32f0xx.h"
 1144              		.file 7 "Drivers/STM32F0xx_HAL_Driver/Inc/stm32f0xx_hal_def.h"
 1145              		.file 8 "Drivers/STM32F0xx_HAL_Driver/Inc/stm32f0xx_hal_rcc.h"
 1146              		.file 9 "Drivers/STM32F0xx_HAL_Driver/Inc/stm32f0xx_hal_rcc_ex.h"
 1147              		.file 10 "Drivers/STM32F0xx_HAL_Driver/Inc/stm32f0xx_hal_gpio.h"
ARM GAS  C:\Users\Password\AppData\Local\Temp\ccOFJB6v.s 			page 36


 1148              		.file 11 "Drivers/STM32F0xx_HAL_Driver/Inc/stm32f0xx_hal_dma.h"
 1149              		.file 12 "Drivers/STM32F0xx_HAL_Driver/Inc/stm32f0xx_hal_adc.h"
 1150              		.file 13 "Drivers/STM32F0xx_HAL_Driver/Inc/stm32f0xx_hal_i2c.h"
 1151              		.file 14 "Drivers/STM32F0xx_HAL_Driver/Inc/stm32f0xx_hal_spi.h"
 1152              		.file 15 "Drivers/STM32F0xx_HAL_Driver/Inc/stm32f0xx_hal_uart.h"
 1153              		.file 16 "Core/Inc/LoRa.h"
 1154              		.file 17 "Drivers/STM32F0xx_HAL_Driver/Inc/stm32f0xx_hal_i2c_ex.h"
 1155              		.file 18 "Drivers/STM32F0xx_HAL_Driver/Inc/stm32f0xx_hal.h"
 1156              		.file 19 "<built-in>"
ARM GAS  C:\Users\Password\AppData\Local\Temp\ccOFJB6v.s 			page 37

