ARM GAS  C:\Users\Password\AppData\Local\Temp\ccJqLrAb.s 			page 1


   1              		.cpu cortex-m0
   2              		.arch armv6s-m
   3              		.fpu softvfp
   4              		.eabi_attribute 20, 1
   5              		.eabi_attribute 21, 1
   6              		.eabi_attribute 23, 3
   7              		.eabi_attribute 24, 1
   8              		.eabi_attribute 25, 1
   9              		.eabi_attribute 26, 1
  10              		.eabi_attribute 30, 1
  11              		.eabi_attribute 34, 0
  12              		.eabi_attribute 18, 4
  13              		.file	"stm32f0xx_hal_dma.c"
  14              		.text
  15              	.Ltext0:
  16              		.cfi_sections	.debug_frame
  17              		.section	.text.DMA_SetConfig,"ax",%progbits
  18              		.align	1
  19              		.syntax unified
  20              		.code	16
  21              		.thumb_func
  23              	DMA_SetConfig:
  24              	.LVL0:
  25              	.LFB52:
  26              		.file 1 "Drivers/STM32F0xx_HAL_Driver/Src/stm32f0xx_hal_dma.c"
   1:Drivers/STM32F0xx_HAL_Driver/Src/stm32f0xx_hal_dma.c **** /**
   2:Drivers/STM32F0xx_HAL_Driver/Src/stm32f0xx_hal_dma.c ****   ******************************************************************************
   3:Drivers/STM32F0xx_HAL_Driver/Src/stm32f0xx_hal_dma.c ****   * @file    stm32f0xx_hal_dma.c
   4:Drivers/STM32F0xx_HAL_Driver/Src/stm32f0xx_hal_dma.c ****   * @author  MCD Application Team
   5:Drivers/STM32F0xx_HAL_Driver/Src/stm32f0xx_hal_dma.c ****   * @brief   DMA HAL module driver.
   6:Drivers/STM32F0xx_HAL_Driver/Src/stm32f0xx_hal_dma.c ****   *    
   7:Drivers/STM32F0xx_HAL_Driver/Src/stm32f0xx_hal_dma.c ****   *         This file provides firmware functions to manage the following 
   8:Drivers/STM32F0xx_HAL_Driver/Src/stm32f0xx_hal_dma.c ****   *         functionalities of the Direct Memory Access (DMA) peripheral:
   9:Drivers/STM32F0xx_HAL_Driver/Src/stm32f0xx_hal_dma.c ****   *           + Initialization and de-initialization functions
  10:Drivers/STM32F0xx_HAL_Driver/Src/stm32f0xx_hal_dma.c ****   *           + IO operation functions
  11:Drivers/STM32F0xx_HAL_Driver/Src/stm32f0xx_hal_dma.c ****   *           + Peripheral State and errors functions
  12:Drivers/STM32F0xx_HAL_Driver/Src/stm32f0xx_hal_dma.c ****   @verbatim     
  13:Drivers/STM32F0xx_HAL_Driver/Src/stm32f0xx_hal_dma.c ****   ==============================================================================      
  14:Drivers/STM32F0xx_HAL_Driver/Src/stm32f0xx_hal_dma.c ****                         ##### How to use this driver #####
  15:Drivers/STM32F0xx_HAL_Driver/Src/stm32f0xx_hal_dma.c ****   ============================================================================== 
  16:Drivers/STM32F0xx_HAL_Driver/Src/stm32f0xx_hal_dma.c ****   [..]
  17:Drivers/STM32F0xx_HAL_Driver/Src/stm32f0xx_hal_dma.c ****    (#) Enable and configure the peripheral to be connected to the DMA Channel
  18:Drivers/STM32F0xx_HAL_Driver/Src/stm32f0xx_hal_dma.c ****        (except for internal SRAM / FLASH memories: no initialization is 
  19:Drivers/STM32F0xx_HAL_Driver/Src/stm32f0xx_hal_dma.c ****        necessary). Please refer to Reference manual for connection between peripherals
  20:Drivers/STM32F0xx_HAL_Driver/Src/stm32f0xx_hal_dma.c ****        and DMA requests .
  21:Drivers/STM32F0xx_HAL_Driver/Src/stm32f0xx_hal_dma.c **** 
  22:Drivers/STM32F0xx_HAL_Driver/Src/stm32f0xx_hal_dma.c ****    (#) For a given Channel, program the required configuration through the following parameters:   
  23:Drivers/STM32F0xx_HAL_Driver/Src/stm32f0xx_hal_dma.c ****        Transfer Direction, Source and Destination data formats, 
  24:Drivers/STM32F0xx_HAL_Driver/Src/stm32f0xx_hal_dma.c ****        Circular or Normal mode, Channel Priority level, Source and Destination Increment mode, 
  25:Drivers/STM32F0xx_HAL_Driver/Src/stm32f0xx_hal_dma.c ****        using HAL_DMA_Init() function.
  26:Drivers/STM32F0xx_HAL_Driver/Src/stm32f0xx_hal_dma.c **** 
  27:Drivers/STM32F0xx_HAL_Driver/Src/stm32f0xx_hal_dma.c ****    (#) Use HAL_DMA_GetState() function to return the DMA state and HAL_DMA_GetError() in case of er
  28:Drivers/STM32F0xx_HAL_Driver/Src/stm32f0xx_hal_dma.c ****        detection.
  29:Drivers/STM32F0xx_HAL_Driver/Src/stm32f0xx_hal_dma.c ****                     
  30:Drivers/STM32F0xx_HAL_Driver/Src/stm32f0xx_hal_dma.c ****    (#) Use HAL_DMA_Abort() function to abort the current transfer
  31:Drivers/STM32F0xx_HAL_Driver/Src/stm32f0xx_hal_dma.c ****                    
  32:Drivers/STM32F0xx_HAL_Driver/Src/stm32f0xx_hal_dma.c ****      -@-   In Memory-to-Memory transfer mode, Circular mode is not allowed.
ARM GAS  C:\Users\Password\AppData\Local\Temp\ccJqLrAb.s 			page 2


  33:Drivers/STM32F0xx_HAL_Driver/Src/stm32f0xx_hal_dma.c ****      *** Polling mode IO operation ***
  34:Drivers/STM32F0xx_HAL_Driver/Src/stm32f0xx_hal_dma.c ****      =================================   
  35:Drivers/STM32F0xx_HAL_Driver/Src/stm32f0xx_hal_dma.c ****     [..] 
  36:Drivers/STM32F0xx_HAL_Driver/Src/stm32f0xx_hal_dma.c ****       (+) Use HAL_DMA_Start() to start DMA transfer after the configuration of Source 
  37:Drivers/STM32F0xx_HAL_Driver/Src/stm32f0xx_hal_dma.c ****           address and destination address and the Length of data to be transferred
  38:Drivers/STM32F0xx_HAL_Driver/Src/stm32f0xx_hal_dma.c ****       (+) Use HAL_DMA_PollForTransfer() to poll for the end of current transfer, in this  
  39:Drivers/STM32F0xx_HAL_Driver/Src/stm32f0xx_hal_dma.c ****           case a fixed Timeout can be configured by User depending from his application.
  40:Drivers/STM32F0xx_HAL_Driver/Src/stm32f0xx_hal_dma.c **** 
  41:Drivers/STM32F0xx_HAL_Driver/Src/stm32f0xx_hal_dma.c ****      *** Interrupt mode IO operation ***    
  42:Drivers/STM32F0xx_HAL_Driver/Src/stm32f0xx_hal_dma.c ****      =================================== 
  43:Drivers/STM32F0xx_HAL_Driver/Src/stm32f0xx_hal_dma.c ****     [..]
  44:Drivers/STM32F0xx_HAL_Driver/Src/stm32f0xx_hal_dma.c ****       (+) Configure the DMA interrupt priority using HAL_NVIC_SetPriority()
  45:Drivers/STM32F0xx_HAL_Driver/Src/stm32f0xx_hal_dma.c ****       (+) Enable the DMA IRQ handler using HAL_NVIC_EnableIRQ() 
  46:Drivers/STM32F0xx_HAL_Driver/Src/stm32f0xx_hal_dma.c ****       (+) Use HAL_DMA_Start_IT() to start DMA transfer after the configuration of  
  47:Drivers/STM32F0xx_HAL_Driver/Src/stm32f0xx_hal_dma.c ****           Source address and destination address and the Length of data to be transferred. 
  48:Drivers/STM32F0xx_HAL_Driver/Src/stm32f0xx_hal_dma.c ****           In this case the DMA interrupt is configured 
  49:Drivers/STM32F0xx_HAL_Driver/Src/stm32f0xx_hal_dma.c ****       (+) Use HAL_DMA_Channel_IRQHandler() called under DMA_IRQHandler() Interrupt subroutine
  50:Drivers/STM32F0xx_HAL_Driver/Src/stm32f0xx_hal_dma.c ****       (+) At the end of data transfer HAL_DMA_IRQHandler() function is executed and user can 
  51:Drivers/STM32F0xx_HAL_Driver/Src/stm32f0xx_hal_dma.c ****           add his own function by customization of function pointer XferCpltCallback and 
  52:Drivers/STM32F0xx_HAL_Driver/Src/stm32f0xx_hal_dma.c ****           XferErrorCallback (i.e a member of DMA handle structure). 
  53:Drivers/STM32F0xx_HAL_Driver/Src/stm32f0xx_hal_dma.c **** 
  54:Drivers/STM32F0xx_HAL_Driver/Src/stm32f0xx_hal_dma.c ****      *** DMA HAL driver macros list ***
  55:Drivers/STM32F0xx_HAL_Driver/Src/stm32f0xx_hal_dma.c ****      ============================================= 
  56:Drivers/STM32F0xx_HAL_Driver/Src/stm32f0xx_hal_dma.c ****      [..]
  57:Drivers/STM32F0xx_HAL_Driver/Src/stm32f0xx_hal_dma.c ****        Below the list of most used macros in DMA HAL driver.
  58:Drivers/STM32F0xx_HAL_Driver/Src/stm32f0xx_hal_dma.c **** 
  59:Drivers/STM32F0xx_HAL_Driver/Src/stm32f0xx_hal_dma.c ****      [..] 
  60:Drivers/STM32F0xx_HAL_Driver/Src/stm32f0xx_hal_dma.c ****       (@) You can refer to the DMA HAL driver header file for more useful macros  
  61:Drivers/STM32F0xx_HAL_Driver/Src/stm32f0xx_hal_dma.c **** 
  62:Drivers/STM32F0xx_HAL_Driver/Src/stm32f0xx_hal_dma.c ****   @endverbatim
  63:Drivers/STM32F0xx_HAL_Driver/Src/stm32f0xx_hal_dma.c ****   ******************************************************************************
  64:Drivers/STM32F0xx_HAL_Driver/Src/stm32f0xx_hal_dma.c ****   * @attention
  65:Drivers/STM32F0xx_HAL_Driver/Src/stm32f0xx_hal_dma.c ****   *
  66:Drivers/STM32F0xx_HAL_Driver/Src/stm32f0xx_hal_dma.c ****   * <h2><center>&copy; Copyright (c) 2016 STMicroelectronics.
  67:Drivers/STM32F0xx_HAL_Driver/Src/stm32f0xx_hal_dma.c ****   * All rights reserved.</center></h2>
  68:Drivers/STM32F0xx_HAL_Driver/Src/stm32f0xx_hal_dma.c ****   *
  69:Drivers/STM32F0xx_HAL_Driver/Src/stm32f0xx_hal_dma.c ****   * This software component is licensed by ST under BSD 3-Clause license,
  70:Drivers/STM32F0xx_HAL_Driver/Src/stm32f0xx_hal_dma.c ****   * the "License"; You may not use this file except in compliance with the
  71:Drivers/STM32F0xx_HAL_Driver/Src/stm32f0xx_hal_dma.c ****   * License. You may obtain a copy of the License at:
  72:Drivers/STM32F0xx_HAL_Driver/Src/stm32f0xx_hal_dma.c ****   *                        opensource.org/licenses/BSD-3-Clause
  73:Drivers/STM32F0xx_HAL_Driver/Src/stm32f0xx_hal_dma.c ****   *
  74:Drivers/STM32F0xx_HAL_Driver/Src/stm32f0xx_hal_dma.c ****   ******************************************************************************
  75:Drivers/STM32F0xx_HAL_Driver/Src/stm32f0xx_hal_dma.c ****   */
  76:Drivers/STM32F0xx_HAL_Driver/Src/stm32f0xx_hal_dma.c **** 
  77:Drivers/STM32F0xx_HAL_Driver/Src/stm32f0xx_hal_dma.c **** /* Includes ------------------------------------------------------------------*/
  78:Drivers/STM32F0xx_HAL_Driver/Src/stm32f0xx_hal_dma.c **** #include "stm32f0xx_hal.h"
  79:Drivers/STM32F0xx_HAL_Driver/Src/stm32f0xx_hal_dma.c **** 
  80:Drivers/STM32F0xx_HAL_Driver/Src/stm32f0xx_hal_dma.c **** /** @addtogroup STM32F0xx_HAL_Driver
  81:Drivers/STM32F0xx_HAL_Driver/Src/stm32f0xx_hal_dma.c ****   * @{
  82:Drivers/STM32F0xx_HAL_Driver/Src/stm32f0xx_hal_dma.c ****   */
  83:Drivers/STM32F0xx_HAL_Driver/Src/stm32f0xx_hal_dma.c **** 
  84:Drivers/STM32F0xx_HAL_Driver/Src/stm32f0xx_hal_dma.c **** 
  85:Drivers/STM32F0xx_HAL_Driver/Src/stm32f0xx_hal_dma.c **** /** @defgroup DMA DMA
  86:Drivers/STM32F0xx_HAL_Driver/Src/stm32f0xx_hal_dma.c ****   * @brief DMA HAL module driver
  87:Drivers/STM32F0xx_HAL_Driver/Src/stm32f0xx_hal_dma.c ****   * @{
  88:Drivers/STM32F0xx_HAL_Driver/Src/stm32f0xx_hal_dma.c ****   */
  89:Drivers/STM32F0xx_HAL_Driver/Src/stm32f0xx_hal_dma.c **** 
ARM GAS  C:\Users\Password\AppData\Local\Temp\ccJqLrAb.s 			page 3


  90:Drivers/STM32F0xx_HAL_Driver/Src/stm32f0xx_hal_dma.c **** #ifdef HAL_DMA_MODULE_ENABLED
  91:Drivers/STM32F0xx_HAL_Driver/Src/stm32f0xx_hal_dma.c **** 
  92:Drivers/STM32F0xx_HAL_Driver/Src/stm32f0xx_hal_dma.c **** /* Private typedef -----------------------------------------------------------*/
  93:Drivers/STM32F0xx_HAL_Driver/Src/stm32f0xx_hal_dma.c **** /* Private define ------------------------------------------------------------*/
  94:Drivers/STM32F0xx_HAL_Driver/Src/stm32f0xx_hal_dma.c **** /* Private macro -------------------------------------------------------------*/
  95:Drivers/STM32F0xx_HAL_Driver/Src/stm32f0xx_hal_dma.c **** /* Private variables ---------------------------------------------------------*/
  96:Drivers/STM32F0xx_HAL_Driver/Src/stm32f0xx_hal_dma.c **** /* Private function prototypes -----------------------------------------------*/
  97:Drivers/STM32F0xx_HAL_Driver/Src/stm32f0xx_hal_dma.c **** /** @defgroup DMA_Private_Functions DMA Private Functions
  98:Drivers/STM32F0xx_HAL_Driver/Src/stm32f0xx_hal_dma.c ****   * @{
  99:Drivers/STM32F0xx_HAL_Driver/Src/stm32f0xx_hal_dma.c ****   */
 100:Drivers/STM32F0xx_HAL_Driver/Src/stm32f0xx_hal_dma.c **** static void DMA_SetConfig(DMA_HandleTypeDef *hdma, uint32_t SrcAddress, uint32_t DstAddress, uint32
 101:Drivers/STM32F0xx_HAL_Driver/Src/stm32f0xx_hal_dma.c **** static void DMA_CalcBaseAndBitshift(DMA_HandleTypeDef *hdma);
 102:Drivers/STM32F0xx_HAL_Driver/Src/stm32f0xx_hal_dma.c **** /**
 103:Drivers/STM32F0xx_HAL_Driver/Src/stm32f0xx_hal_dma.c ****   * @}
 104:Drivers/STM32F0xx_HAL_Driver/Src/stm32f0xx_hal_dma.c ****   */
 105:Drivers/STM32F0xx_HAL_Driver/Src/stm32f0xx_hal_dma.c **** 
 106:Drivers/STM32F0xx_HAL_Driver/Src/stm32f0xx_hal_dma.c **** /* Exported functions ---------------------------------------------------------*/
 107:Drivers/STM32F0xx_HAL_Driver/Src/stm32f0xx_hal_dma.c **** 
 108:Drivers/STM32F0xx_HAL_Driver/Src/stm32f0xx_hal_dma.c **** /** @defgroup DMA_Exported_Functions DMA Exported Functions
 109:Drivers/STM32F0xx_HAL_Driver/Src/stm32f0xx_hal_dma.c ****   * @{
 110:Drivers/STM32F0xx_HAL_Driver/Src/stm32f0xx_hal_dma.c ****   */
 111:Drivers/STM32F0xx_HAL_Driver/Src/stm32f0xx_hal_dma.c **** 
 112:Drivers/STM32F0xx_HAL_Driver/Src/stm32f0xx_hal_dma.c **** /** @defgroup DMA_Exported_Functions_Group1 Initialization and de-initialization functions
 113:Drivers/STM32F0xx_HAL_Driver/Src/stm32f0xx_hal_dma.c ****  *  @brief   Initialization and de-initialization functions 
 114:Drivers/STM32F0xx_HAL_Driver/Src/stm32f0xx_hal_dma.c ****  *
 115:Drivers/STM32F0xx_HAL_Driver/Src/stm32f0xx_hal_dma.c **** @verbatim   
 116:Drivers/STM32F0xx_HAL_Driver/Src/stm32f0xx_hal_dma.c ****  ===============================================================================
 117:Drivers/STM32F0xx_HAL_Driver/Src/stm32f0xx_hal_dma.c ****              ##### Initialization and de-initialization functions  #####
 118:Drivers/STM32F0xx_HAL_Driver/Src/stm32f0xx_hal_dma.c ****  ===============================================================================  
 119:Drivers/STM32F0xx_HAL_Driver/Src/stm32f0xx_hal_dma.c ****     [..]
 120:Drivers/STM32F0xx_HAL_Driver/Src/stm32f0xx_hal_dma.c ****     This section provides functions allowing to initialize the DMA Channel source
 121:Drivers/STM32F0xx_HAL_Driver/Src/stm32f0xx_hal_dma.c ****     and destination addresses, incrementation and data sizes, transfer direction, 
 122:Drivers/STM32F0xx_HAL_Driver/Src/stm32f0xx_hal_dma.c ****     circular/normal mode selection, memory-to-memory mode selection and Channel priority value.
 123:Drivers/STM32F0xx_HAL_Driver/Src/stm32f0xx_hal_dma.c ****     [..]
 124:Drivers/STM32F0xx_HAL_Driver/Src/stm32f0xx_hal_dma.c ****     The HAL_DMA_Init() function follows the DMA configuration procedures as described in
 125:Drivers/STM32F0xx_HAL_Driver/Src/stm32f0xx_hal_dma.c ****     reference manual.  
 126:Drivers/STM32F0xx_HAL_Driver/Src/stm32f0xx_hal_dma.c **** 
 127:Drivers/STM32F0xx_HAL_Driver/Src/stm32f0xx_hal_dma.c **** @endverbatim
 128:Drivers/STM32F0xx_HAL_Driver/Src/stm32f0xx_hal_dma.c ****   * @{
 129:Drivers/STM32F0xx_HAL_Driver/Src/stm32f0xx_hal_dma.c ****   */
 130:Drivers/STM32F0xx_HAL_Driver/Src/stm32f0xx_hal_dma.c ****   
 131:Drivers/STM32F0xx_HAL_Driver/Src/stm32f0xx_hal_dma.c **** /**
 132:Drivers/STM32F0xx_HAL_Driver/Src/stm32f0xx_hal_dma.c ****   * @brief  Initialize the DMA according to the specified
 133:Drivers/STM32F0xx_HAL_Driver/Src/stm32f0xx_hal_dma.c ****   *         parameters in the DMA_InitTypeDef and initialize the associated handle.
 134:Drivers/STM32F0xx_HAL_Driver/Src/stm32f0xx_hal_dma.c ****   * @param  hdma Pointer to a DMA_HandleTypeDef structure that contains
 135:Drivers/STM32F0xx_HAL_Driver/Src/stm32f0xx_hal_dma.c ****   *               the configuration information for the specified DMA Channel.  
 136:Drivers/STM32F0xx_HAL_Driver/Src/stm32f0xx_hal_dma.c ****   * @retval HAL status
 137:Drivers/STM32F0xx_HAL_Driver/Src/stm32f0xx_hal_dma.c ****   */
 138:Drivers/STM32F0xx_HAL_Driver/Src/stm32f0xx_hal_dma.c **** HAL_StatusTypeDef HAL_DMA_Init(DMA_HandleTypeDef *hdma)
 139:Drivers/STM32F0xx_HAL_Driver/Src/stm32f0xx_hal_dma.c **** { 
 140:Drivers/STM32F0xx_HAL_Driver/Src/stm32f0xx_hal_dma.c ****   uint32_t tmp = 0U;
 141:Drivers/STM32F0xx_HAL_Driver/Src/stm32f0xx_hal_dma.c ****   
 142:Drivers/STM32F0xx_HAL_Driver/Src/stm32f0xx_hal_dma.c ****   /* Check the DMA handle allocation */
 143:Drivers/STM32F0xx_HAL_Driver/Src/stm32f0xx_hal_dma.c ****   if(NULL == hdma)
 144:Drivers/STM32F0xx_HAL_Driver/Src/stm32f0xx_hal_dma.c ****   {
 145:Drivers/STM32F0xx_HAL_Driver/Src/stm32f0xx_hal_dma.c ****     return HAL_ERROR;
 146:Drivers/STM32F0xx_HAL_Driver/Src/stm32f0xx_hal_dma.c ****   }
ARM GAS  C:\Users\Password\AppData\Local\Temp\ccJqLrAb.s 			page 4


 147:Drivers/STM32F0xx_HAL_Driver/Src/stm32f0xx_hal_dma.c ****   
 148:Drivers/STM32F0xx_HAL_Driver/Src/stm32f0xx_hal_dma.c ****   /* Check the parameters */
 149:Drivers/STM32F0xx_HAL_Driver/Src/stm32f0xx_hal_dma.c ****   assert_param(IS_DMA_ALL_INSTANCE(hdma->Instance));
 150:Drivers/STM32F0xx_HAL_Driver/Src/stm32f0xx_hal_dma.c ****   assert_param(IS_DMA_DIRECTION(hdma->Init.Direction));
 151:Drivers/STM32F0xx_HAL_Driver/Src/stm32f0xx_hal_dma.c ****   assert_param(IS_DMA_PERIPHERAL_INC_STATE(hdma->Init.PeriphInc));
 152:Drivers/STM32F0xx_HAL_Driver/Src/stm32f0xx_hal_dma.c ****   assert_param(IS_DMA_MEMORY_INC_STATE(hdma->Init.MemInc));
 153:Drivers/STM32F0xx_HAL_Driver/Src/stm32f0xx_hal_dma.c ****   assert_param(IS_DMA_PERIPHERAL_DATA_SIZE(hdma->Init.PeriphDataAlignment));
 154:Drivers/STM32F0xx_HAL_Driver/Src/stm32f0xx_hal_dma.c ****   assert_param(IS_DMA_MEMORY_DATA_SIZE(hdma->Init.MemDataAlignment));
 155:Drivers/STM32F0xx_HAL_Driver/Src/stm32f0xx_hal_dma.c ****   assert_param(IS_DMA_MODE(hdma->Init.Mode));
 156:Drivers/STM32F0xx_HAL_Driver/Src/stm32f0xx_hal_dma.c ****   assert_param(IS_DMA_PRIORITY(hdma->Init.Priority));
 157:Drivers/STM32F0xx_HAL_Driver/Src/stm32f0xx_hal_dma.c ****   
 158:Drivers/STM32F0xx_HAL_Driver/Src/stm32f0xx_hal_dma.c ****   /* Change DMA peripheral state */
 159:Drivers/STM32F0xx_HAL_Driver/Src/stm32f0xx_hal_dma.c ****   hdma->State = HAL_DMA_STATE_BUSY;
 160:Drivers/STM32F0xx_HAL_Driver/Src/stm32f0xx_hal_dma.c **** 
 161:Drivers/STM32F0xx_HAL_Driver/Src/stm32f0xx_hal_dma.c ****   /* Get the CR register value */
 162:Drivers/STM32F0xx_HAL_Driver/Src/stm32f0xx_hal_dma.c ****   tmp = hdma->Instance->CCR;
 163:Drivers/STM32F0xx_HAL_Driver/Src/stm32f0xx_hal_dma.c ****   
 164:Drivers/STM32F0xx_HAL_Driver/Src/stm32f0xx_hal_dma.c ****   /* Clear PL, MSIZE, PSIZE, MINC, PINC, CIRC, DIR bits */
 165:Drivers/STM32F0xx_HAL_Driver/Src/stm32f0xx_hal_dma.c ****   tmp &= ((uint32_t)~(DMA_CCR_PL    | DMA_CCR_MSIZE  | DMA_CCR_PSIZE  | \
 166:Drivers/STM32F0xx_HAL_Driver/Src/stm32f0xx_hal_dma.c ****                       DMA_CCR_MINC  | DMA_CCR_PINC   | DMA_CCR_CIRC   | \
 167:Drivers/STM32F0xx_HAL_Driver/Src/stm32f0xx_hal_dma.c ****                       DMA_CCR_DIR));
 168:Drivers/STM32F0xx_HAL_Driver/Src/stm32f0xx_hal_dma.c ****   
 169:Drivers/STM32F0xx_HAL_Driver/Src/stm32f0xx_hal_dma.c ****   /* Prepare the DMA Channel configuration */
 170:Drivers/STM32F0xx_HAL_Driver/Src/stm32f0xx_hal_dma.c ****   tmp |=  hdma->Init.Direction        |
 171:Drivers/STM32F0xx_HAL_Driver/Src/stm32f0xx_hal_dma.c ****           hdma->Init.PeriphInc           | hdma->Init.MemInc           |
 172:Drivers/STM32F0xx_HAL_Driver/Src/stm32f0xx_hal_dma.c ****           hdma->Init.PeriphDataAlignment | hdma->Init.MemDataAlignment |
 173:Drivers/STM32F0xx_HAL_Driver/Src/stm32f0xx_hal_dma.c ****           hdma->Init.Mode                | hdma->Init.Priority;
 174:Drivers/STM32F0xx_HAL_Driver/Src/stm32f0xx_hal_dma.c **** 
 175:Drivers/STM32F0xx_HAL_Driver/Src/stm32f0xx_hal_dma.c ****   /* Write to DMA Channel CR register */
 176:Drivers/STM32F0xx_HAL_Driver/Src/stm32f0xx_hal_dma.c ****   hdma->Instance->CCR = tmp;  
 177:Drivers/STM32F0xx_HAL_Driver/Src/stm32f0xx_hal_dma.c ****   
 178:Drivers/STM32F0xx_HAL_Driver/Src/stm32f0xx_hal_dma.c ****   /* Initialize DmaBaseAddress and ChannelIndex parameters used 
 179:Drivers/STM32F0xx_HAL_Driver/Src/stm32f0xx_hal_dma.c ****      by HAL_DMA_IRQHandler() and HAL_DMA_PollForTransfer() */
 180:Drivers/STM32F0xx_HAL_Driver/Src/stm32f0xx_hal_dma.c ****   DMA_CalcBaseAndBitshift(hdma);
 181:Drivers/STM32F0xx_HAL_Driver/Src/stm32f0xx_hal_dma.c ****   
 182:Drivers/STM32F0xx_HAL_Driver/Src/stm32f0xx_hal_dma.c ****   /* Initialise the error code */
 183:Drivers/STM32F0xx_HAL_Driver/Src/stm32f0xx_hal_dma.c ****   hdma->ErrorCode = HAL_DMA_ERROR_NONE;
 184:Drivers/STM32F0xx_HAL_Driver/Src/stm32f0xx_hal_dma.c **** 
 185:Drivers/STM32F0xx_HAL_Driver/Src/stm32f0xx_hal_dma.c ****   /* Initialize the DMA state*/
 186:Drivers/STM32F0xx_HAL_Driver/Src/stm32f0xx_hal_dma.c ****   hdma->State = HAL_DMA_STATE_READY;
 187:Drivers/STM32F0xx_HAL_Driver/Src/stm32f0xx_hal_dma.c ****   
 188:Drivers/STM32F0xx_HAL_Driver/Src/stm32f0xx_hal_dma.c ****   /* Allocate lock resource and initialize it */
 189:Drivers/STM32F0xx_HAL_Driver/Src/stm32f0xx_hal_dma.c ****   hdma->Lock = HAL_UNLOCKED;
 190:Drivers/STM32F0xx_HAL_Driver/Src/stm32f0xx_hal_dma.c ****   
 191:Drivers/STM32F0xx_HAL_Driver/Src/stm32f0xx_hal_dma.c ****   return HAL_OK;
 192:Drivers/STM32F0xx_HAL_Driver/Src/stm32f0xx_hal_dma.c **** }  
 193:Drivers/STM32F0xx_HAL_Driver/Src/stm32f0xx_hal_dma.c ****   
 194:Drivers/STM32F0xx_HAL_Driver/Src/stm32f0xx_hal_dma.c **** /**
 195:Drivers/STM32F0xx_HAL_Driver/Src/stm32f0xx_hal_dma.c ****   * @brief  DeInitialize the DMA peripheral 
 196:Drivers/STM32F0xx_HAL_Driver/Src/stm32f0xx_hal_dma.c ****   * @param  hdma pointer to a DMA_HandleTypeDef structure that contains
 197:Drivers/STM32F0xx_HAL_Driver/Src/stm32f0xx_hal_dma.c ****   *               the configuration information for the specified DMA Channel.  
 198:Drivers/STM32F0xx_HAL_Driver/Src/stm32f0xx_hal_dma.c ****   * @retval HAL status
 199:Drivers/STM32F0xx_HAL_Driver/Src/stm32f0xx_hal_dma.c ****   */
 200:Drivers/STM32F0xx_HAL_Driver/Src/stm32f0xx_hal_dma.c **** HAL_StatusTypeDef HAL_DMA_DeInit(DMA_HandleTypeDef *hdma)
 201:Drivers/STM32F0xx_HAL_Driver/Src/stm32f0xx_hal_dma.c **** {
 202:Drivers/STM32F0xx_HAL_Driver/Src/stm32f0xx_hal_dma.c ****   /* Check the DMA handle allocation */
 203:Drivers/STM32F0xx_HAL_Driver/Src/stm32f0xx_hal_dma.c ****   if(NULL == hdma)
ARM GAS  C:\Users\Password\AppData\Local\Temp\ccJqLrAb.s 			page 5


 204:Drivers/STM32F0xx_HAL_Driver/Src/stm32f0xx_hal_dma.c ****   {
 205:Drivers/STM32F0xx_HAL_Driver/Src/stm32f0xx_hal_dma.c ****     return HAL_ERROR;
 206:Drivers/STM32F0xx_HAL_Driver/Src/stm32f0xx_hal_dma.c ****   }
 207:Drivers/STM32F0xx_HAL_Driver/Src/stm32f0xx_hal_dma.c ****   
 208:Drivers/STM32F0xx_HAL_Driver/Src/stm32f0xx_hal_dma.c ****   /* Check the parameters */
 209:Drivers/STM32F0xx_HAL_Driver/Src/stm32f0xx_hal_dma.c ****   assert_param(IS_DMA_ALL_INSTANCE(hdma->Instance));
 210:Drivers/STM32F0xx_HAL_Driver/Src/stm32f0xx_hal_dma.c **** 
 211:Drivers/STM32F0xx_HAL_Driver/Src/stm32f0xx_hal_dma.c ****   /* Disable the selected DMA Channelx */
 212:Drivers/STM32F0xx_HAL_Driver/Src/stm32f0xx_hal_dma.c ****   hdma->Instance->CCR &= ~DMA_CCR_EN;
 213:Drivers/STM32F0xx_HAL_Driver/Src/stm32f0xx_hal_dma.c **** 
 214:Drivers/STM32F0xx_HAL_Driver/Src/stm32f0xx_hal_dma.c ****   /* Reset DMA Channel control register */
 215:Drivers/STM32F0xx_HAL_Driver/Src/stm32f0xx_hal_dma.c ****   hdma->Instance->CCR  = 0U;
 216:Drivers/STM32F0xx_HAL_Driver/Src/stm32f0xx_hal_dma.c **** 
 217:Drivers/STM32F0xx_HAL_Driver/Src/stm32f0xx_hal_dma.c ****   /* Reset DMA Channel Number of Data to Transfer register */
 218:Drivers/STM32F0xx_HAL_Driver/Src/stm32f0xx_hal_dma.c ****   hdma->Instance->CNDTR = 0U;
 219:Drivers/STM32F0xx_HAL_Driver/Src/stm32f0xx_hal_dma.c **** 
 220:Drivers/STM32F0xx_HAL_Driver/Src/stm32f0xx_hal_dma.c ****   /* Reset DMA Channel peripheral address register */
 221:Drivers/STM32F0xx_HAL_Driver/Src/stm32f0xx_hal_dma.c ****   hdma->Instance->CPAR  = 0U;
 222:Drivers/STM32F0xx_HAL_Driver/Src/stm32f0xx_hal_dma.c ****   
 223:Drivers/STM32F0xx_HAL_Driver/Src/stm32f0xx_hal_dma.c ****   /* Reset DMA Channel memory address register */
 224:Drivers/STM32F0xx_HAL_Driver/Src/stm32f0xx_hal_dma.c ****   hdma->Instance->CMAR = 0U;
 225:Drivers/STM32F0xx_HAL_Driver/Src/stm32f0xx_hal_dma.c **** 
 226:Drivers/STM32F0xx_HAL_Driver/Src/stm32f0xx_hal_dma.c **** /* Get DMA Base Address */  
 227:Drivers/STM32F0xx_HAL_Driver/Src/stm32f0xx_hal_dma.c ****   DMA_CalcBaseAndBitshift(hdma);
 228:Drivers/STM32F0xx_HAL_Driver/Src/stm32f0xx_hal_dma.c **** 
 229:Drivers/STM32F0xx_HAL_Driver/Src/stm32f0xx_hal_dma.c ****   /* Clear all flags */
 230:Drivers/STM32F0xx_HAL_Driver/Src/stm32f0xx_hal_dma.c ****   hdma->DmaBaseAddress->IFCR = DMA_FLAG_GL1 << hdma->ChannelIndex;
 231:Drivers/STM32F0xx_HAL_Driver/Src/stm32f0xx_hal_dma.c **** 
 232:Drivers/STM32F0xx_HAL_Driver/Src/stm32f0xx_hal_dma.c ****   /* Clean callbacks */
 233:Drivers/STM32F0xx_HAL_Driver/Src/stm32f0xx_hal_dma.c ****   hdma->XferCpltCallback = NULL;
 234:Drivers/STM32F0xx_HAL_Driver/Src/stm32f0xx_hal_dma.c ****   hdma->XferHalfCpltCallback = NULL;
 235:Drivers/STM32F0xx_HAL_Driver/Src/stm32f0xx_hal_dma.c ****   hdma->XferErrorCallback = NULL;
 236:Drivers/STM32F0xx_HAL_Driver/Src/stm32f0xx_hal_dma.c ****   hdma->XferAbortCallback = NULL;
 237:Drivers/STM32F0xx_HAL_Driver/Src/stm32f0xx_hal_dma.c **** 
 238:Drivers/STM32F0xx_HAL_Driver/Src/stm32f0xx_hal_dma.c ****   /* Reset the error code */
 239:Drivers/STM32F0xx_HAL_Driver/Src/stm32f0xx_hal_dma.c ****   hdma->ErrorCode = HAL_DMA_ERROR_NONE;
 240:Drivers/STM32F0xx_HAL_Driver/Src/stm32f0xx_hal_dma.c **** 
 241:Drivers/STM32F0xx_HAL_Driver/Src/stm32f0xx_hal_dma.c ****   /* Reset the DMA state */
 242:Drivers/STM32F0xx_HAL_Driver/Src/stm32f0xx_hal_dma.c ****   hdma->State = HAL_DMA_STATE_RESET;
 243:Drivers/STM32F0xx_HAL_Driver/Src/stm32f0xx_hal_dma.c **** 
 244:Drivers/STM32F0xx_HAL_Driver/Src/stm32f0xx_hal_dma.c ****   /* Release Lock */
 245:Drivers/STM32F0xx_HAL_Driver/Src/stm32f0xx_hal_dma.c ****   __HAL_UNLOCK(hdma);
 246:Drivers/STM32F0xx_HAL_Driver/Src/stm32f0xx_hal_dma.c **** 
 247:Drivers/STM32F0xx_HAL_Driver/Src/stm32f0xx_hal_dma.c ****   return HAL_OK;
 248:Drivers/STM32F0xx_HAL_Driver/Src/stm32f0xx_hal_dma.c **** }
 249:Drivers/STM32F0xx_HAL_Driver/Src/stm32f0xx_hal_dma.c **** 
 250:Drivers/STM32F0xx_HAL_Driver/Src/stm32f0xx_hal_dma.c **** /**
 251:Drivers/STM32F0xx_HAL_Driver/Src/stm32f0xx_hal_dma.c ****   * @}
 252:Drivers/STM32F0xx_HAL_Driver/Src/stm32f0xx_hal_dma.c ****   */
 253:Drivers/STM32F0xx_HAL_Driver/Src/stm32f0xx_hal_dma.c **** 
 254:Drivers/STM32F0xx_HAL_Driver/Src/stm32f0xx_hal_dma.c **** /** @defgroup DMA_Exported_Functions_Group2 Input and Output operation functions 
 255:Drivers/STM32F0xx_HAL_Driver/Src/stm32f0xx_hal_dma.c ****  *  @brief   I/O operation functions  
 256:Drivers/STM32F0xx_HAL_Driver/Src/stm32f0xx_hal_dma.c ****  *
 257:Drivers/STM32F0xx_HAL_Driver/Src/stm32f0xx_hal_dma.c **** @verbatim   
 258:Drivers/STM32F0xx_HAL_Driver/Src/stm32f0xx_hal_dma.c ****  ===============================================================================
 259:Drivers/STM32F0xx_HAL_Driver/Src/stm32f0xx_hal_dma.c ****                       #####  IO operation functions  #####
 260:Drivers/STM32F0xx_HAL_Driver/Src/stm32f0xx_hal_dma.c ****  ===============================================================================  
ARM GAS  C:\Users\Password\AppData\Local\Temp\ccJqLrAb.s 			page 6


 261:Drivers/STM32F0xx_HAL_Driver/Src/stm32f0xx_hal_dma.c ****     [..]  This section provides functions allowing to:
 262:Drivers/STM32F0xx_HAL_Driver/Src/stm32f0xx_hal_dma.c ****       (+) Configure the source, destination address and data length and Start DMA transfer
 263:Drivers/STM32F0xx_HAL_Driver/Src/stm32f0xx_hal_dma.c ****       (+) Configure the source, destination address and data length and 
 264:Drivers/STM32F0xx_HAL_Driver/Src/stm32f0xx_hal_dma.c ****           Start DMA transfer with interrupt
 265:Drivers/STM32F0xx_HAL_Driver/Src/stm32f0xx_hal_dma.c ****       (+) Abort DMA transfer
 266:Drivers/STM32F0xx_HAL_Driver/Src/stm32f0xx_hal_dma.c ****       (+) Poll for transfer complete
 267:Drivers/STM32F0xx_HAL_Driver/Src/stm32f0xx_hal_dma.c ****       (+) Handle DMA interrupt request  
 268:Drivers/STM32F0xx_HAL_Driver/Src/stm32f0xx_hal_dma.c **** 
 269:Drivers/STM32F0xx_HAL_Driver/Src/stm32f0xx_hal_dma.c **** @endverbatim
 270:Drivers/STM32F0xx_HAL_Driver/Src/stm32f0xx_hal_dma.c ****   * @{
 271:Drivers/STM32F0xx_HAL_Driver/Src/stm32f0xx_hal_dma.c ****   */
 272:Drivers/STM32F0xx_HAL_Driver/Src/stm32f0xx_hal_dma.c **** 
 273:Drivers/STM32F0xx_HAL_Driver/Src/stm32f0xx_hal_dma.c **** /**
 274:Drivers/STM32F0xx_HAL_Driver/Src/stm32f0xx_hal_dma.c ****   * @brief  Start the DMA Transfer.
 275:Drivers/STM32F0xx_HAL_Driver/Src/stm32f0xx_hal_dma.c ****   * @param  hdma pointer to a DMA_HandleTypeDef structure that contains
 276:Drivers/STM32F0xx_HAL_Driver/Src/stm32f0xx_hal_dma.c ****   *              the configuration information for the specified DMA Channel.  
 277:Drivers/STM32F0xx_HAL_Driver/Src/stm32f0xx_hal_dma.c ****   * @param  SrcAddress The source memory Buffer address
 278:Drivers/STM32F0xx_HAL_Driver/Src/stm32f0xx_hal_dma.c ****   * @param  DstAddress The destination memory Buffer address
 279:Drivers/STM32F0xx_HAL_Driver/Src/stm32f0xx_hal_dma.c ****   * @param  DataLength The length of data to be transferred from source to destination
 280:Drivers/STM32F0xx_HAL_Driver/Src/stm32f0xx_hal_dma.c ****   * @retval HAL status
 281:Drivers/STM32F0xx_HAL_Driver/Src/stm32f0xx_hal_dma.c ****   */
 282:Drivers/STM32F0xx_HAL_Driver/Src/stm32f0xx_hal_dma.c **** HAL_StatusTypeDef HAL_DMA_Start(DMA_HandleTypeDef *hdma, uint32_t SrcAddress, uint32_t DstAddress, 
 283:Drivers/STM32F0xx_HAL_Driver/Src/stm32f0xx_hal_dma.c **** {
 284:Drivers/STM32F0xx_HAL_Driver/Src/stm32f0xx_hal_dma.c **** 	HAL_StatusTypeDef status = HAL_OK;
 285:Drivers/STM32F0xx_HAL_Driver/Src/stm32f0xx_hal_dma.c **** 
 286:Drivers/STM32F0xx_HAL_Driver/Src/stm32f0xx_hal_dma.c ****   /* Check the parameters */
 287:Drivers/STM32F0xx_HAL_Driver/Src/stm32f0xx_hal_dma.c ****   assert_param(IS_DMA_BUFFER_SIZE(DataLength));
 288:Drivers/STM32F0xx_HAL_Driver/Src/stm32f0xx_hal_dma.c ****   
 289:Drivers/STM32F0xx_HAL_Driver/Src/stm32f0xx_hal_dma.c ****   /* Process locked */
 290:Drivers/STM32F0xx_HAL_Driver/Src/stm32f0xx_hal_dma.c ****   __HAL_LOCK(hdma);
 291:Drivers/STM32F0xx_HAL_Driver/Src/stm32f0xx_hal_dma.c ****   
 292:Drivers/STM32F0xx_HAL_Driver/Src/stm32f0xx_hal_dma.c ****   if(HAL_DMA_STATE_READY == hdma->State)
 293:Drivers/STM32F0xx_HAL_Driver/Src/stm32f0xx_hal_dma.c ****   {
 294:Drivers/STM32F0xx_HAL_Driver/Src/stm32f0xx_hal_dma.c ****   	/* Change DMA peripheral state */  
 295:Drivers/STM32F0xx_HAL_Driver/Src/stm32f0xx_hal_dma.c ****   	hdma->State = HAL_DMA_STATE_BUSY;
 296:Drivers/STM32F0xx_HAL_Driver/Src/stm32f0xx_hal_dma.c ****   	
 297:Drivers/STM32F0xx_HAL_Driver/Src/stm32f0xx_hal_dma.c ****   	hdma->ErrorCode = HAL_DMA_ERROR_NONE;
 298:Drivers/STM32F0xx_HAL_Driver/Src/stm32f0xx_hal_dma.c ****   	
 299:Drivers/STM32F0xx_HAL_Driver/Src/stm32f0xx_hal_dma.c ****   	/* Disable the peripheral */
 300:Drivers/STM32F0xx_HAL_Driver/Src/stm32f0xx_hal_dma.c ****   	hdma->Instance->CCR &= ~DMA_CCR_EN;  
 301:Drivers/STM32F0xx_HAL_Driver/Src/stm32f0xx_hal_dma.c ****   	
 302:Drivers/STM32F0xx_HAL_Driver/Src/stm32f0xx_hal_dma.c ****   	/* Configure the source, destination address and the data length */
 303:Drivers/STM32F0xx_HAL_Driver/Src/stm32f0xx_hal_dma.c ****   	DMA_SetConfig(hdma, SrcAddress, DstAddress, DataLength);
 304:Drivers/STM32F0xx_HAL_Driver/Src/stm32f0xx_hal_dma.c ****   	
 305:Drivers/STM32F0xx_HAL_Driver/Src/stm32f0xx_hal_dma.c ****   	/* Enable the Peripheral */
 306:Drivers/STM32F0xx_HAL_Driver/Src/stm32f0xx_hal_dma.c ****   	hdma->Instance->CCR |= DMA_CCR_EN;  
 307:Drivers/STM32F0xx_HAL_Driver/Src/stm32f0xx_hal_dma.c ****   }
 308:Drivers/STM32F0xx_HAL_Driver/Src/stm32f0xx_hal_dma.c ****   else
 309:Drivers/STM32F0xx_HAL_Driver/Src/stm32f0xx_hal_dma.c ****   {
 310:Drivers/STM32F0xx_HAL_Driver/Src/stm32f0xx_hal_dma.c ****   	/* Process Unlocked */
 311:Drivers/STM32F0xx_HAL_Driver/Src/stm32f0xx_hal_dma.c ****   	__HAL_UNLOCK(hdma);
 312:Drivers/STM32F0xx_HAL_Driver/Src/stm32f0xx_hal_dma.c ****   	
 313:Drivers/STM32F0xx_HAL_Driver/Src/stm32f0xx_hal_dma.c ****   	/* Remain BUSY */
 314:Drivers/STM32F0xx_HAL_Driver/Src/stm32f0xx_hal_dma.c ****   	status = HAL_BUSY;
 315:Drivers/STM32F0xx_HAL_Driver/Src/stm32f0xx_hal_dma.c ****   }  
 316:Drivers/STM32F0xx_HAL_Driver/Src/stm32f0xx_hal_dma.c **** 
 317:Drivers/STM32F0xx_HAL_Driver/Src/stm32f0xx_hal_dma.c ****   return status; 
ARM GAS  C:\Users\Password\AppData\Local\Temp\ccJqLrAb.s 			page 7


 318:Drivers/STM32F0xx_HAL_Driver/Src/stm32f0xx_hal_dma.c **** } 
 319:Drivers/STM32F0xx_HAL_Driver/Src/stm32f0xx_hal_dma.c **** 
 320:Drivers/STM32F0xx_HAL_Driver/Src/stm32f0xx_hal_dma.c **** /**
 321:Drivers/STM32F0xx_HAL_Driver/Src/stm32f0xx_hal_dma.c ****   * @brief  Start the DMA Transfer with interrupt enabled.
 322:Drivers/STM32F0xx_HAL_Driver/Src/stm32f0xx_hal_dma.c ****   * @param  hdma       pointer to a DMA_HandleTypeDef structure that contains
 323:Drivers/STM32F0xx_HAL_Driver/Src/stm32f0xx_hal_dma.c ****   *                     the configuration information for the specified DMA Channel.  
 324:Drivers/STM32F0xx_HAL_Driver/Src/stm32f0xx_hal_dma.c ****   * @param  SrcAddress The source memory Buffer address
 325:Drivers/STM32F0xx_HAL_Driver/Src/stm32f0xx_hal_dma.c ****   * @param  DstAddress The destination memory Buffer address
 326:Drivers/STM32F0xx_HAL_Driver/Src/stm32f0xx_hal_dma.c ****   * @param  DataLength The length of data to be transferred from source to destination
 327:Drivers/STM32F0xx_HAL_Driver/Src/stm32f0xx_hal_dma.c ****   * @retval HAL status
 328:Drivers/STM32F0xx_HAL_Driver/Src/stm32f0xx_hal_dma.c ****   */
 329:Drivers/STM32F0xx_HAL_Driver/Src/stm32f0xx_hal_dma.c **** HAL_StatusTypeDef HAL_DMA_Start_IT(DMA_HandleTypeDef *hdma, uint32_t SrcAddress, uint32_t DstAddres
 330:Drivers/STM32F0xx_HAL_Driver/Src/stm32f0xx_hal_dma.c **** {
 331:Drivers/STM32F0xx_HAL_Driver/Src/stm32f0xx_hal_dma.c **** 	HAL_StatusTypeDef status = HAL_OK;
 332:Drivers/STM32F0xx_HAL_Driver/Src/stm32f0xx_hal_dma.c **** 
 333:Drivers/STM32F0xx_HAL_Driver/Src/stm32f0xx_hal_dma.c ****   /* Check the parameters */
 334:Drivers/STM32F0xx_HAL_Driver/Src/stm32f0xx_hal_dma.c ****   assert_param(IS_DMA_BUFFER_SIZE(DataLength));
 335:Drivers/STM32F0xx_HAL_Driver/Src/stm32f0xx_hal_dma.c ****   
 336:Drivers/STM32F0xx_HAL_Driver/Src/stm32f0xx_hal_dma.c ****   /* Process locked */
 337:Drivers/STM32F0xx_HAL_Driver/Src/stm32f0xx_hal_dma.c ****   __HAL_LOCK(hdma);
 338:Drivers/STM32F0xx_HAL_Driver/Src/stm32f0xx_hal_dma.c ****   
 339:Drivers/STM32F0xx_HAL_Driver/Src/stm32f0xx_hal_dma.c ****   if(HAL_DMA_STATE_READY == hdma->State)
 340:Drivers/STM32F0xx_HAL_Driver/Src/stm32f0xx_hal_dma.c ****   {
 341:Drivers/STM32F0xx_HAL_Driver/Src/stm32f0xx_hal_dma.c ****   	/* Change DMA peripheral state */  
 342:Drivers/STM32F0xx_HAL_Driver/Src/stm32f0xx_hal_dma.c ****   	hdma->State = HAL_DMA_STATE_BUSY;
 343:Drivers/STM32F0xx_HAL_Driver/Src/stm32f0xx_hal_dma.c ****   	
 344:Drivers/STM32F0xx_HAL_Driver/Src/stm32f0xx_hal_dma.c ****   	hdma->ErrorCode = HAL_DMA_ERROR_NONE;
 345:Drivers/STM32F0xx_HAL_Driver/Src/stm32f0xx_hal_dma.c ****   	
 346:Drivers/STM32F0xx_HAL_Driver/Src/stm32f0xx_hal_dma.c ****   	/* Disable the peripheral */
 347:Drivers/STM32F0xx_HAL_Driver/Src/stm32f0xx_hal_dma.c ****   	hdma->Instance->CCR &= ~DMA_CCR_EN;
 348:Drivers/STM32F0xx_HAL_Driver/Src/stm32f0xx_hal_dma.c ****   	
 349:Drivers/STM32F0xx_HAL_Driver/Src/stm32f0xx_hal_dma.c ****   	/* Configure the source, destination address and the data length */  
 350:Drivers/STM32F0xx_HAL_Driver/Src/stm32f0xx_hal_dma.c ****   	DMA_SetConfig(hdma, SrcAddress, DstAddress, DataLength);
 351:Drivers/STM32F0xx_HAL_Driver/Src/stm32f0xx_hal_dma.c ****   	
 352:Drivers/STM32F0xx_HAL_Driver/Src/stm32f0xx_hal_dma.c ****   	/* Enable the transfer complete, & transfer error interrupts */
 353:Drivers/STM32F0xx_HAL_Driver/Src/stm32f0xx_hal_dma.c ****   	/* Half transfer interrupt is optional: enable it only if associated callback is available */
 354:Drivers/STM32F0xx_HAL_Driver/Src/stm32f0xx_hal_dma.c ****     if(NULL != hdma->XferHalfCpltCallback )
 355:Drivers/STM32F0xx_HAL_Driver/Src/stm32f0xx_hal_dma.c ****     {
 356:Drivers/STM32F0xx_HAL_Driver/Src/stm32f0xx_hal_dma.c ****       hdma->Instance->CCR |= (DMA_IT_TC | DMA_IT_HT | DMA_IT_TE);
 357:Drivers/STM32F0xx_HAL_Driver/Src/stm32f0xx_hal_dma.c ****     }
 358:Drivers/STM32F0xx_HAL_Driver/Src/stm32f0xx_hal_dma.c ****   	else
 359:Drivers/STM32F0xx_HAL_Driver/Src/stm32f0xx_hal_dma.c ****   	{
 360:Drivers/STM32F0xx_HAL_Driver/Src/stm32f0xx_hal_dma.c ****   		hdma->Instance->CCR |= (DMA_IT_TC | DMA_IT_TE);
 361:Drivers/STM32F0xx_HAL_Driver/Src/stm32f0xx_hal_dma.c ****   		hdma->Instance->CCR &= ~DMA_IT_HT;
 362:Drivers/STM32F0xx_HAL_Driver/Src/stm32f0xx_hal_dma.c ****   	}
 363:Drivers/STM32F0xx_HAL_Driver/Src/stm32f0xx_hal_dma.c ****   	
 364:Drivers/STM32F0xx_HAL_Driver/Src/stm32f0xx_hal_dma.c ****   	/* Enable the Peripheral */
 365:Drivers/STM32F0xx_HAL_Driver/Src/stm32f0xx_hal_dma.c ****   	hdma->Instance->CCR |= DMA_CCR_EN;
 366:Drivers/STM32F0xx_HAL_Driver/Src/stm32f0xx_hal_dma.c ****   }
 367:Drivers/STM32F0xx_HAL_Driver/Src/stm32f0xx_hal_dma.c ****   else
 368:Drivers/STM32F0xx_HAL_Driver/Src/stm32f0xx_hal_dma.c ****   {
 369:Drivers/STM32F0xx_HAL_Driver/Src/stm32f0xx_hal_dma.c ****   	/* Process Unlocked */
 370:Drivers/STM32F0xx_HAL_Driver/Src/stm32f0xx_hal_dma.c ****     __HAL_UNLOCK(hdma); 
 371:Drivers/STM32F0xx_HAL_Driver/Src/stm32f0xx_hal_dma.c ****   
 372:Drivers/STM32F0xx_HAL_Driver/Src/stm32f0xx_hal_dma.c ****     /* Remain BUSY */
 373:Drivers/STM32F0xx_HAL_Driver/Src/stm32f0xx_hal_dma.c ****     status = HAL_BUSY;
 374:Drivers/STM32F0xx_HAL_Driver/Src/stm32f0xx_hal_dma.c ****   }     
ARM GAS  C:\Users\Password\AppData\Local\Temp\ccJqLrAb.s 			page 8


 375:Drivers/STM32F0xx_HAL_Driver/Src/stm32f0xx_hal_dma.c ****   
 376:Drivers/STM32F0xx_HAL_Driver/Src/stm32f0xx_hal_dma.c ****   return status;    
 377:Drivers/STM32F0xx_HAL_Driver/Src/stm32f0xx_hal_dma.c **** } 
 378:Drivers/STM32F0xx_HAL_Driver/Src/stm32f0xx_hal_dma.c **** 
 379:Drivers/STM32F0xx_HAL_Driver/Src/stm32f0xx_hal_dma.c **** /**
 380:Drivers/STM32F0xx_HAL_Driver/Src/stm32f0xx_hal_dma.c ****   * @brief  Abort the DMA Transfer.
 381:Drivers/STM32F0xx_HAL_Driver/Src/stm32f0xx_hal_dma.c ****   * @param  hdma  pointer to a DMA_HandleTypeDef structure that contains
 382:Drivers/STM32F0xx_HAL_Driver/Src/stm32f0xx_hal_dma.c ****   *               the configuration information for the specified DMA Channel.
 383:Drivers/STM32F0xx_HAL_Driver/Src/stm32f0xx_hal_dma.c ****   * @retval HAL status
 384:Drivers/STM32F0xx_HAL_Driver/Src/stm32f0xx_hal_dma.c ****   */
 385:Drivers/STM32F0xx_HAL_Driver/Src/stm32f0xx_hal_dma.c **** HAL_StatusTypeDef HAL_DMA_Abort(DMA_HandleTypeDef *hdma)
 386:Drivers/STM32F0xx_HAL_Driver/Src/stm32f0xx_hal_dma.c **** {
 387:Drivers/STM32F0xx_HAL_Driver/Src/stm32f0xx_hal_dma.c ****   if(hdma->State != HAL_DMA_STATE_BUSY)
 388:Drivers/STM32F0xx_HAL_Driver/Src/stm32f0xx_hal_dma.c ****   {
 389:Drivers/STM32F0xx_HAL_Driver/Src/stm32f0xx_hal_dma.c ****     /* no transfer ongoing */
 390:Drivers/STM32F0xx_HAL_Driver/Src/stm32f0xx_hal_dma.c ****     hdma->ErrorCode = HAL_DMA_ERROR_NO_XFER;
 391:Drivers/STM32F0xx_HAL_Driver/Src/stm32f0xx_hal_dma.c ****     
 392:Drivers/STM32F0xx_HAL_Driver/Src/stm32f0xx_hal_dma.c ****     /* Process Unlocked */
 393:Drivers/STM32F0xx_HAL_Driver/Src/stm32f0xx_hal_dma.c ****     __HAL_UNLOCK(hdma);
 394:Drivers/STM32F0xx_HAL_Driver/Src/stm32f0xx_hal_dma.c ****     
 395:Drivers/STM32F0xx_HAL_Driver/Src/stm32f0xx_hal_dma.c ****     return HAL_ERROR;
 396:Drivers/STM32F0xx_HAL_Driver/Src/stm32f0xx_hal_dma.c ****   }
 397:Drivers/STM32F0xx_HAL_Driver/Src/stm32f0xx_hal_dma.c ****   else
 398:Drivers/STM32F0xx_HAL_Driver/Src/stm32f0xx_hal_dma.c ****   {
 399:Drivers/STM32F0xx_HAL_Driver/Src/stm32f0xx_hal_dma.c ****     /* Disable DMA IT */
 400:Drivers/STM32F0xx_HAL_Driver/Src/stm32f0xx_hal_dma.c ****     hdma->Instance->CCR &= ~(DMA_IT_TC | DMA_IT_HT | DMA_IT_TE);
 401:Drivers/STM32F0xx_HAL_Driver/Src/stm32f0xx_hal_dma.c ****     
 402:Drivers/STM32F0xx_HAL_Driver/Src/stm32f0xx_hal_dma.c ****     /* Disable the channel */
 403:Drivers/STM32F0xx_HAL_Driver/Src/stm32f0xx_hal_dma.c ****     hdma->Instance->CCR &= ~DMA_CCR_EN;
 404:Drivers/STM32F0xx_HAL_Driver/Src/stm32f0xx_hal_dma.c ****     
 405:Drivers/STM32F0xx_HAL_Driver/Src/stm32f0xx_hal_dma.c ****     /* Clear all flags */
 406:Drivers/STM32F0xx_HAL_Driver/Src/stm32f0xx_hal_dma.c ****     hdma->DmaBaseAddress->IFCR = (DMA_FLAG_GL1 << hdma->ChannelIndex);
 407:Drivers/STM32F0xx_HAL_Driver/Src/stm32f0xx_hal_dma.c ****   }
 408:Drivers/STM32F0xx_HAL_Driver/Src/stm32f0xx_hal_dma.c ****   /* Change the DMA state*/
 409:Drivers/STM32F0xx_HAL_Driver/Src/stm32f0xx_hal_dma.c ****   hdma->State = HAL_DMA_STATE_READY; 
 410:Drivers/STM32F0xx_HAL_Driver/Src/stm32f0xx_hal_dma.c ****   
 411:Drivers/STM32F0xx_HAL_Driver/Src/stm32f0xx_hal_dma.c ****   /* Process Unlocked */
 412:Drivers/STM32F0xx_HAL_Driver/Src/stm32f0xx_hal_dma.c ****   __HAL_UNLOCK(hdma);
 413:Drivers/STM32F0xx_HAL_Driver/Src/stm32f0xx_hal_dma.c ****   
 414:Drivers/STM32F0xx_HAL_Driver/Src/stm32f0xx_hal_dma.c ****   return HAL_OK;
 415:Drivers/STM32F0xx_HAL_Driver/Src/stm32f0xx_hal_dma.c **** }
 416:Drivers/STM32F0xx_HAL_Driver/Src/stm32f0xx_hal_dma.c **** 
 417:Drivers/STM32F0xx_HAL_Driver/Src/stm32f0xx_hal_dma.c **** /**
 418:Drivers/STM32F0xx_HAL_Driver/Src/stm32f0xx_hal_dma.c ****   * @brief  Abort the DMA Transfer in Interrupt mode.
 419:Drivers/STM32F0xx_HAL_Driver/Src/stm32f0xx_hal_dma.c ****   * @param  hdma  pointer to a DMA_HandleTypeDef structure that contains
 420:Drivers/STM32F0xx_HAL_Driver/Src/stm32f0xx_hal_dma.c ****   *               the configuration information for the specified DMA Stream.
 421:Drivers/STM32F0xx_HAL_Driver/Src/stm32f0xx_hal_dma.c ****   * @retval HAL status
 422:Drivers/STM32F0xx_HAL_Driver/Src/stm32f0xx_hal_dma.c ****   */
 423:Drivers/STM32F0xx_HAL_Driver/Src/stm32f0xx_hal_dma.c **** HAL_StatusTypeDef HAL_DMA_Abort_IT(DMA_HandleTypeDef *hdma)
 424:Drivers/STM32F0xx_HAL_Driver/Src/stm32f0xx_hal_dma.c **** {  
 425:Drivers/STM32F0xx_HAL_Driver/Src/stm32f0xx_hal_dma.c ****   HAL_StatusTypeDef status = HAL_OK;
 426:Drivers/STM32F0xx_HAL_Driver/Src/stm32f0xx_hal_dma.c ****   
 427:Drivers/STM32F0xx_HAL_Driver/Src/stm32f0xx_hal_dma.c ****   if(HAL_DMA_STATE_BUSY != hdma->State)
 428:Drivers/STM32F0xx_HAL_Driver/Src/stm32f0xx_hal_dma.c ****   {
 429:Drivers/STM32F0xx_HAL_Driver/Src/stm32f0xx_hal_dma.c ****     /* no transfer ongoing */
 430:Drivers/STM32F0xx_HAL_Driver/Src/stm32f0xx_hal_dma.c ****     hdma->ErrorCode = HAL_DMA_ERROR_NO_XFER;
 431:Drivers/STM32F0xx_HAL_Driver/Src/stm32f0xx_hal_dma.c ****         
ARM GAS  C:\Users\Password\AppData\Local\Temp\ccJqLrAb.s 			page 9


 432:Drivers/STM32F0xx_HAL_Driver/Src/stm32f0xx_hal_dma.c ****     status = HAL_ERROR;
 433:Drivers/STM32F0xx_HAL_Driver/Src/stm32f0xx_hal_dma.c ****   }
 434:Drivers/STM32F0xx_HAL_Driver/Src/stm32f0xx_hal_dma.c ****   else
 435:Drivers/STM32F0xx_HAL_Driver/Src/stm32f0xx_hal_dma.c ****   { 
 436:Drivers/STM32F0xx_HAL_Driver/Src/stm32f0xx_hal_dma.c ****   
 437:Drivers/STM32F0xx_HAL_Driver/Src/stm32f0xx_hal_dma.c ****     /* Disable DMA IT */
 438:Drivers/STM32F0xx_HAL_Driver/Src/stm32f0xx_hal_dma.c ****     hdma->Instance->CCR &= ~(DMA_IT_TC | DMA_IT_HT | DMA_IT_TE);
 439:Drivers/STM32F0xx_HAL_Driver/Src/stm32f0xx_hal_dma.c ****     
 440:Drivers/STM32F0xx_HAL_Driver/Src/stm32f0xx_hal_dma.c ****     /* Disable the channel */
 441:Drivers/STM32F0xx_HAL_Driver/Src/stm32f0xx_hal_dma.c ****     hdma->Instance->CCR &= ~DMA_CCR_EN;
 442:Drivers/STM32F0xx_HAL_Driver/Src/stm32f0xx_hal_dma.c ****     
 443:Drivers/STM32F0xx_HAL_Driver/Src/stm32f0xx_hal_dma.c ****     /* Clear all flags */
 444:Drivers/STM32F0xx_HAL_Driver/Src/stm32f0xx_hal_dma.c ****     hdma->DmaBaseAddress->IFCR = DMA_FLAG_GL1 << hdma->ChannelIndex;
 445:Drivers/STM32F0xx_HAL_Driver/Src/stm32f0xx_hal_dma.c ****     
 446:Drivers/STM32F0xx_HAL_Driver/Src/stm32f0xx_hal_dma.c ****     /* Change the DMA state */
 447:Drivers/STM32F0xx_HAL_Driver/Src/stm32f0xx_hal_dma.c ****     hdma->State = HAL_DMA_STATE_READY;
 448:Drivers/STM32F0xx_HAL_Driver/Src/stm32f0xx_hal_dma.c ****     
 449:Drivers/STM32F0xx_HAL_Driver/Src/stm32f0xx_hal_dma.c ****     /* Process Unlocked */
 450:Drivers/STM32F0xx_HAL_Driver/Src/stm32f0xx_hal_dma.c ****     __HAL_UNLOCK(hdma);
 451:Drivers/STM32F0xx_HAL_Driver/Src/stm32f0xx_hal_dma.c ****     
 452:Drivers/STM32F0xx_HAL_Driver/Src/stm32f0xx_hal_dma.c ****     /* Call User Abort callback */ 
 453:Drivers/STM32F0xx_HAL_Driver/Src/stm32f0xx_hal_dma.c ****     if(hdma->XferAbortCallback != NULL)
 454:Drivers/STM32F0xx_HAL_Driver/Src/stm32f0xx_hal_dma.c ****     {
 455:Drivers/STM32F0xx_HAL_Driver/Src/stm32f0xx_hal_dma.c ****       hdma->XferAbortCallback(hdma);
 456:Drivers/STM32F0xx_HAL_Driver/Src/stm32f0xx_hal_dma.c ****     } 
 457:Drivers/STM32F0xx_HAL_Driver/Src/stm32f0xx_hal_dma.c ****   }
 458:Drivers/STM32F0xx_HAL_Driver/Src/stm32f0xx_hal_dma.c ****   return status;
 459:Drivers/STM32F0xx_HAL_Driver/Src/stm32f0xx_hal_dma.c **** }
 460:Drivers/STM32F0xx_HAL_Driver/Src/stm32f0xx_hal_dma.c **** 
 461:Drivers/STM32F0xx_HAL_Driver/Src/stm32f0xx_hal_dma.c **** /**
 462:Drivers/STM32F0xx_HAL_Driver/Src/stm32f0xx_hal_dma.c ****   * @brief  Polling for transfer complete.
 463:Drivers/STM32F0xx_HAL_Driver/Src/stm32f0xx_hal_dma.c ****   * @param  hdma    pointer to a DMA_HandleTypeDef structure that contains
 464:Drivers/STM32F0xx_HAL_Driver/Src/stm32f0xx_hal_dma.c ****   *                  the configuration information for the specified DMA Channel.
 465:Drivers/STM32F0xx_HAL_Driver/Src/stm32f0xx_hal_dma.c ****   * @param  CompleteLevel Specifies the DMA level complete.  
 466:Drivers/STM32F0xx_HAL_Driver/Src/stm32f0xx_hal_dma.c ****   * @param  Timeout       Timeout duration.
 467:Drivers/STM32F0xx_HAL_Driver/Src/stm32f0xx_hal_dma.c ****   * @retval HAL status
 468:Drivers/STM32F0xx_HAL_Driver/Src/stm32f0xx_hal_dma.c ****   */
 469:Drivers/STM32F0xx_HAL_Driver/Src/stm32f0xx_hal_dma.c **** HAL_StatusTypeDef HAL_DMA_PollForTransfer(DMA_HandleTypeDef *hdma, uint32_t CompleteLevel, uint32_t
 470:Drivers/STM32F0xx_HAL_Driver/Src/stm32f0xx_hal_dma.c **** {
 471:Drivers/STM32F0xx_HAL_Driver/Src/stm32f0xx_hal_dma.c ****   uint32_t temp;
 472:Drivers/STM32F0xx_HAL_Driver/Src/stm32f0xx_hal_dma.c ****   uint32_t tickstart = 0U;
 473:Drivers/STM32F0xx_HAL_Driver/Src/stm32f0xx_hal_dma.c ****   
 474:Drivers/STM32F0xx_HAL_Driver/Src/stm32f0xx_hal_dma.c ****   if(HAL_DMA_STATE_BUSY != hdma->State)
 475:Drivers/STM32F0xx_HAL_Driver/Src/stm32f0xx_hal_dma.c ****   {
 476:Drivers/STM32F0xx_HAL_Driver/Src/stm32f0xx_hal_dma.c ****     /* no transfer ongoing */
 477:Drivers/STM32F0xx_HAL_Driver/Src/stm32f0xx_hal_dma.c ****     hdma->ErrorCode = HAL_DMA_ERROR_NO_XFER;
 478:Drivers/STM32F0xx_HAL_Driver/Src/stm32f0xx_hal_dma.c ****     __HAL_UNLOCK(hdma);
 479:Drivers/STM32F0xx_HAL_Driver/Src/stm32f0xx_hal_dma.c ****     return HAL_ERROR;
 480:Drivers/STM32F0xx_HAL_Driver/Src/stm32f0xx_hal_dma.c ****   }
 481:Drivers/STM32F0xx_HAL_Driver/Src/stm32f0xx_hal_dma.c ****   
 482:Drivers/STM32F0xx_HAL_Driver/Src/stm32f0xx_hal_dma.c ****   /* Polling mode not supported in circular mode */
 483:Drivers/STM32F0xx_HAL_Driver/Src/stm32f0xx_hal_dma.c ****   if (RESET != (hdma->Instance->CCR & DMA_CCR_CIRC))
 484:Drivers/STM32F0xx_HAL_Driver/Src/stm32f0xx_hal_dma.c ****   {
 485:Drivers/STM32F0xx_HAL_Driver/Src/stm32f0xx_hal_dma.c ****     hdma->ErrorCode = HAL_DMA_ERROR_NOT_SUPPORTED;
 486:Drivers/STM32F0xx_HAL_Driver/Src/stm32f0xx_hal_dma.c ****     return HAL_ERROR;
 487:Drivers/STM32F0xx_HAL_Driver/Src/stm32f0xx_hal_dma.c ****   }
 488:Drivers/STM32F0xx_HAL_Driver/Src/stm32f0xx_hal_dma.c ****   
ARM GAS  C:\Users\Password\AppData\Local\Temp\ccJqLrAb.s 			page 10


 489:Drivers/STM32F0xx_HAL_Driver/Src/stm32f0xx_hal_dma.c ****   /* Get the level transfer complete flag */
 490:Drivers/STM32F0xx_HAL_Driver/Src/stm32f0xx_hal_dma.c ****   if(HAL_DMA_FULL_TRANSFER == CompleteLevel)
 491:Drivers/STM32F0xx_HAL_Driver/Src/stm32f0xx_hal_dma.c ****   {
 492:Drivers/STM32F0xx_HAL_Driver/Src/stm32f0xx_hal_dma.c ****     /* Transfer Complete flag */
 493:Drivers/STM32F0xx_HAL_Driver/Src/stm32f0xx_hal_dma.c ****     temp = DMA_FLAG_TC1 << hdma->ChannelIndex;
 494:Drivers/STM32F0xx_HAL_Driver/Src/stm32f0xx_hal_dma.c ****   }
 495:Drivers/STM32F0xx_HAL_Driver/Src/stm32f0xx_hal_dma.c ****   else
 496:Drivers/STM32F0xx_HAL_Driver/Src/stm32f0xx_hal_dma.c ****   {
 497:Drivers/STM32F0xx_HAL_Driver/Src/stm32f0xx_hal_dma.c ****     /* Half Transfer Complete flag */
 498:Drivers/STM32F0xx_HAL_Driver/Src/stm32f0xx_hal_dma.c ****     temp = DMA_FLAG_HT1 << hdma->ChannelIndex;
 499:Drivers/STM32F0xx_HAL_Driver/Src/stm32f0xx_hal_dma.c ****   }
 500:Drivers/STM32F0xx_HAL_Driver/Src/stm32f0xx_hal_dma.c **** 
 501:Drivers/STM32F0xx_HAL_Driver/Src/stm32f0xx_hal_dma.c ****   /* Get tick */
 502:Drivers/STM32F0xx_HAL_Driver/Src/stm32f0xx_hal_dma.c ****   tickstart = HAL_GetTick();
 503:Drivers/STM32F0xx_HAL_Driver/Src/stm32f0xx_hal_dma.c **** 
 504:Drivers/STM32F0xx_HAL_Driver/Src/stm32f0xx_hal_dma.c ****   while(RESET == (hdma->DmaBaseAddress->ISR & temp))
 505:Drivers/STM32F0xx_HAL_Driver/Src/stm32f0xx_hal_dma.c ****   {
 506:Drivers/STM32F0xx_HAL_Driver/Src/stm32f0xx_hal_dma.c ****     if(RESET != (hdma->DmaBaseAddress->ISR & (DMA_FLAG_TE1 << hdma->ChannelIndex)))
 507:Drivers/STM32F0xx_HAL_Driver/Src/stm32f0xx_hal_dma.c ****     {      
 508:Drivers/STM32F0xx_HAL_Driver/Src/stm32f0xx_hal_dma.c ****       /* When a DMA transfer error occurs */
 509:Drivers/STM32F0xx_HAL_Driver/Src/stm32f0xx_hal_dma.c ****       /* A hardware clear of its EN bits is performed */
 510:Drivers/STM32F0xx_HAL_Driver/Src/stm32f0xx_hal_dma.c ****       /* Clear all flags */
 511:Drivers/STM32F0xx_HAL_Driver/Src/stm32f0xx_hal_dma.c ****       hdma->DmaBaseAddress->IFCR = DMA_FLAG_GL1 << hdma->ChannelIndex;
 512:Drivers/STM32F0xx_HAL_Driver/Src/stm32f0xx_hal_dma.c ****       
 513:Drivers/STM32F0xx_HAL_Driver/Src/stm32f0xx_hal_dma.c ****       /* Update error code */
 514:Drivers/STM32F0xx_HAL_Driver/Src/stm32f0xx_hal_dma.c ****       hdma->ErrorCode = HAL_DMA_ERROR_TE;
 515:Drivers/STM32F0xx_HAL_Driver/Src/stm32f0xx_hal_dma.c **** 
 516:Drivers/STM32F0xx_HAL_Driver/Src/stm32f0xx_hal_dma.c ****       /* Change the DMA state */
 517:Drivers/STM32F0xx_HAL_Driver/Src/stm32f0xx_hal_dma.c ****       hdma->State= HAL_DMA_STATE_READY;       
 518:Drivers/STM32F0xx_HAL_Driver/Src/stm32f0xx_hal_dma.c ****       
 519:Drivers/STM32F0xx_HAL_Driver/Src/stm32f0xx_hal_dma.c ****       /* Process Unlocked */
 520:Drivers/STM32F0xx_HAL_Driver/Src/stm32f0xx_hal_dma.c ****       __HAL_UNLOCK(hdma);
 521:Drivers/STM32F0xx_HAL_Driver/Src/stm32f0xx_hal_dma.c ****       
 522:Drivers/STM32F0xx_HAL_Driver/Src/stm32f0xx_hal_dma.c ****       return HAL_ERROR;      
 523:Drivers/STM32F0xx_HAL_Driver/Src/stm32f0xx_hal_dma.c ****     }      
 524:Drivers/STM32F0xx_HAL_Driver/Src/stm32f0xx_hal_dma.c ****     /* Check for the Timeout */
 525:Drivers/STM32F0xx_HAL_Driver/Src/stm32f0xx_hal_dma.c ****     if(Timeout != HAL_MAX_DELAY)
 526:Drivers/STM32F0xx_HAL_Driver/Src/stm32f0xx_hal_dma.c ****     {
 527:Drivers/STM32F0xx_HAL_Driver/Src/stm32f0xx_hal_dma.c ****       if((Timeout == 0U) || ((HAL_GetTick() - tickstart) > Timeout))
 528:Drivers/STM32F0xx_HAL_Driver/Src/stm32f0xx_hal_dma.c ****       {
 529:Drivers/STM32F0xx_HAL_Driver/Src/stm32f0xx_hal_dma.c ****         /* Update error code */
 530:Drivers/STM32F0xx_HAL_Driver/Src/stm32f0xx_hal_dma.c ****         hdma->ErrorCode = HAL_DMA_ERROR_TIMEOUT;
 531:Drivers/STM32F0xx_HAL_Driver/Src/stm32f0xx_hal_dma.c ****         
 532:Drivers/STM32F0xx_HAL_Driver/Src/stm32f0xx_hal_dma.c ****         /* Change the DMA state */
 533:Drivers/STM32F0xx_HAL_Driver/Src/stm32f0xx_hal_dma.c ****         hdma->State = HAL_DMA_STATE_READY;
 534:Drivers/STM32F0xx_HAL_Driver/Src/stm32f0xx_hal_dma.c **** 
 535:Drivers/STM32F0xx_HAL_Driver/Src/stm32f0xx_hal_dma.c ****         /* Process Unlocked */
 536:Drivers/STM32F0xx_HAL_Driver/Src/stm32f0xx_hal_dma.c ****         __HAL_UNLOCK(hdma);
 537:Drivers/STM32F0xx_HAL_Driver/Src/stm32f0xx_hal_dma.c **** 
 538:Drivers/STM32F0xx_HAL_Driver/Src/stm32f0xx_hal_dma.c ****         return HAL_ERROR;
 539:Drivers/STM32F0xx_HAL_Driver/Src/stm32f0xx_hal_dma.c ****       }
 540:Drivers/STM32F0xx_HAL_Driver/Src/stm32f0xx_hal_dma.c ****     }
 541:Drivers/STM32F0xx_HAL_Driver/Src/stm32f0xx_hal_dma.c ****   }
 542:Drivers/STM32F0xx_HAL_Driver/Src/stm32f0xx_hal_dma.c **** 
 543:Drivers/STM32F0xx_HAL_Driver/Src/stm32f0xx_hal_dma.c ****   if(HAL_DMA_FULL_TRANSFER == CompleteLevel)
 544:Drivers/STM32F0xx_HAL_Driver/Src/stm32f0xx_hal_dma.c ****   {
 545:Drivers/STM32F0xx_HAL_Driver/Src/stm32f0xx_hal_dma.c ****     /* Clear the transfer complete flag */
ARM GAS  C:\Users\Password\AppData\Local\Temp\ccJqLrAb.s 			page 11


 546:Drivers/STM32F0xx_HAL_Driver/Src/stm32f0xx_hal_dma.c ****     hdma->DmaBaseAddress->IFCR = DMA_FLAG_TC1 << hdma->ChannelIndex;
 547:Drivers/STM32F0xx_HAL_Driver/Src/stm32f0xx_hal_dma.c **** 
 548:Drivers/STM32F0xx_HAL_Driver/Src/stm32f0xx_hal_dma.c ****     /* The selected Channelx EN bit is cleared (DMA is disabled and 
 549:Drivers/STM32F0xx_HAL_Driver/Src/stm32f0xx_hal_dma.c ****     all transfers are complete) */
 550:Drivers/STM32F0xx_HAL_Driver/Src/stm32f0xx_hal_dma.c ****     hdma->State = HAL_DMA_STATE_READY;
 551:Drivers/STM32F0xx_HAL_Driver/Src/stm32f0xx_hal_dma.c ****   }
 552:Drivers/STM32F0xx_HAL_Driver/Src/stm32f0xx_hal_dma.c ****   else
 553:Drivers/STM32F0xx_HAL_Driver/Src/stm32f0xx_hal_dma.c ****   { 
 554:Drivers/STM32F0xx_HAL_Driver/Src/stm32f0xx_hal_dma.c ****     /* Clear the half transfer complete flag */
 555:Drivers/STM32F0xx_HAL_Driver/Src/stm32f0xx_hal_dma.c ****     hdma->DmaBaseAddress->IFCR = DMA_FLAG_HT1 << hdma->ChannelIndex;
 556:Drivers/STM32F0xx_HAL_Driver/Src/stm32f0xx_hal_dma.c ****   }
 557:Drivers/STM32F0xx_HAL_Driver/Src/stm32f0xx_hal_dma.c ****   
 558:Drivers/STM32F0xx_HAL_Driver/Src/stm32f0xx_hal_dma.c ****   /* Process unlocked */
 559:Drivers/STM32F0xx_HAL_Driver/Src/stm32f0xx_hal_dma.c ****   __HAL_UNLOCK(hdma);  
 560:Drivers/STM32F0xx_HAL_Driver/Src/stm32f0xx_hal_dma.c **** 
 561:Drivers/STM32F0xx_HAL_Driver/Src/stm32f0xx_hal_dma.c ****   return HAL_OK;
 562:Drivers/STM32F0xx_HAL_Driver/Src/stm32f0xx_hal_dma.c **** }
 563:Drivers/STM32F0xx_HAL_Driver/Src/stm32f0xx_hal_dma.c **** 
 564:Drivers/STM32F0xx_HAL_Driver/Src/stm32f0xx_hal_dma.c **** /**
 565:Drivers/STM32F0xx_HAL_Driver/Src/stm32f0xx_hal_dma.c ****   * @brief  Handle DMA interrupt request.
 566:Drivers/STM32F0xx_HAL_Driver/Src/stm32f0xx_hal_dma.c ****   * @param  hdma pointer to a DMA_HandleTypeDef structure that contains
 567:Drivers/STM32F0xx_HAL_Driver/Src/stm32f0xx_hal_dma.c ****   *               the configuration information for the specified DMA Channel.  
 568:Drivers/STM32F0xx_HAL_Driver/Src/stm32f0xx_hal_dma.c ****   * @retval None
 569:Drivers/STM32F0xx_HAL_Driver/Src/stm32f0xx_hal_dma.c ****   */
 570:Drivers/STM32F0xx_HAL_Driver/Src/stm32f0xx_hal_dma.c **** void HAL_DMA_IRQHandler(DMA_HandleTypeDef *hdma)
 571:Drivers/STM32F0xx_HAL_Driver/Src/stm32f0xx_hal_dma.c **** {
 572:Drivers/STM32F0xx_HAL_Driver/Src/stm32f0xx_hal_dma.c **** 	uint32_t flag_it = hdma->DmaBaseAddress->ISR;
 573:Drivers/STM32F0xx_HAL_Driver/Src/stm32f0xx_hal_dma.c ****   uint32_t source_it = hdma->Instance->CCR;
 574:Drivers/STM32F0xx_HAL_Driver/Src/stm32f0xx_hal_dma.c ****           
 575:Drivers/STM32F0xx_HAL_Driver/Src/stm32f0xx_hal_dma.c ****   /* Half Transfer Complete Interrupt management ******************************/
 576:Drivers/STM32F0xx_HAL_Driver/Src/stm32f0xx_hal_dma.c ****   if ((RESET != (flag_it & (DMA_FLAG_HT1 << hdma->ChannelIndex))) && (RESET != (source_it & DMA_IT_
 577:Drivers/STM32F0xx_HAL_Driver/Src/stm32f0xx_hal_dma.c ****   {
 578:Drivers/STM32F0xx_HAL_Driver/Src/stm32f0xx_hal_dma.c ****   	/* Disable the half transfer interrupt if the DMA mode is not CIRCULAR */
 579:Drivers/STM32F0xx_HAL_Driver/Src/stm32f0xx_hal_dma.c ****   	if((hdma->Instance->CCR & DMA_CCR_CIRC) == 0U)
 580:Drivers/STM32F0xx_HAL_Driver/Src/stm32f0xx_hal_dma.c ****   	{
 581:Drivers/STM32F0xx_HAL_Driver/Src/stm32f0xx_hal_dma.c ****   		/* Disable the half transfer interrupt */
 582:Drivers/STM32F0xx_HAL_Driver/Src/stm32f0xx_hal_dma.c ****   		hdma->Instance->CCR &= ~DMA_IT_HT;
 583:Drivers/STM32F0xx_HAL_Driver/Src/stm32f0xx_hal_dma.c ****   	}
 584:Drivers/STM32F0xx_HAL_Driver/Src/stm32f0xx_hal_dma.c ****   	
 585:Drivers/STM32F0xx_HAL_Driver/Src/stm32f0xx_hal_dma.c ****   	/* Clear the half transfer complete flag */
 586:Drivers/STM32F0xx_HAL_Driver/Src/stm32f0xx_hal_dma.c ****   	hdma->DmaBaseAddress->IFCR = DMA_FLAG_HT1 << hdma->ChannelIndex;
 587:Drivers/STM32F0xx_HAL_Driver/Src/stm32f0xx_hal_dma.c ****   	
 588:Drivers/STM32F0xx_HAL_Driver/Src/stm32f0xx_hal_dma.c ****   	/* DMA peripheral state is not updated in Half Transfer */
 589:Drivers/STM32F0xx_HAL_Driver/Src/stm32f0xx_hal_dma.c ****   	/* State is updated only in Transfer Complete case */
 590:Drivers/STM32F0xx_HAL_Driver/Src/stm32f0xx_hal_dma.c ****   	
 591:Drivers/STM32F0xx_HAL_Driver/Src/stm32f0xx_hal_dma.c ****   	if(hdma->XferHalfCpltCallback != NULL)
 592:Drivers/STM32F0xx_HAL_Driver/Src/stm32f0xx_hal_dma.c ****   	{
 593:Drivers/STM32F0xx_HAL_Driver/Src/stm32f0xx_hal_dma.c ****   		/* Half transfer callback */
 594:Drivers/STM32F0xx_HAL_Driver/Src/stm32f0xx_hal_dma.c ****   		hdma->XferHalfCpltCallback(hdma);
 595:Drivers/STM32F0xx_HAL_Driver/Src/stm32f0xx_hal_dma.c ****   	}
 596:Drivers/STM32F0xx_HAL_Driver/Src/stm32f0xx_hal_dma.c ****   }
 597:Drivers/STM32F0xx_HAL_Driver/Src/stm32f0xx_hal_dma.c ****   
 598:Drivers/STM32F0xx_HAL_Driver/Src/stm32f0xx_hal_dma.c ****   /* Transfer Complete Interrupt management ***********************************/
 599:Drivers/STM32F0xx_HAL_Driver/Src/stm32f0xx_hal_dma.c ****   else if ((RESET != (flag_it & (DMA_FLAG_TC1 << hdma->ChannelIndex))) && (RESET != (source_it & DM
 600:Drivers/STM32F0xx_HAL_Driver/Src/stm32f0xx_hal_dma.c ****   {
 601:Drivers/STM32F0xx_HAL_Driver/Src/stm32f0xx_hal_dma.c ****   	if((hdma->Instance->CCR & DMA_CCR_CIRC) == 0U)
 602:Drivers/STM32F0xx_HAL_Driver/Src/stm32f0xx_hal_dma.c ****   	{
ARM GAS  C:\Users\Password\AppData\Local\Temp\ccJqLrAb.s 			page 12


 603:Drivers/STM32F0xx_HAL_Driver/Src/stm32f0xx_hal_dma.c ****   		/* Disable the transfer complete  & transfer error interrupts */
 604:Drivers/STM32F0xx_HAL_Driver/Src/stm32f0xx_hal_dma.c ****   		/* if the DMA mode is not CIRCULAR */
 605:Drivers/STM32F0xx_HAL_Driver/Src/stm32f0xx_hal_dma.c ****   		hdma->Instance->CCR &= ~(DMA_IT_TC | DMA_IT_TE);
 606:Drivers/STM32F0xx_HAL_Driver/Src/stm32f0xx_hal_dma.c ****   		
 607:Drivers/STM32F0xx_HAL_Driver/Src/stm32f0xx_hal_dma.c ****   		/* Change the DMA state */
 608:Drivers/STM32F0xx_HAL_Driver/Src/stm32f0xx_hal_dma.c ****   		hdma->State = HAL_DMA_STATE_READY;
 609:Drivers/STM32F0xx_HAL_Driver/Src/stm32f0xx_hal_dma.c ****   	}
 610:Drivers/STM32F0xx_HAL_Driver/Src/stm32f0xx_hal_dma.c ****   	
 611:Drivers/STM32F0xx_HAL_Driver/Src/stm32f0xx_hal_dma.c ****   	/* Clear the transfer complete flag */
 612:Drivers/STM32F0xx_HAL_Driver/Src/stm32f0xx_hal_dma.c ****   	hdma->DmaBaseAddress->IFCR = DMA_FLAG_TC1 << hdma->ChannelIndex;
 613:Drivers/STM32F0xx_HAL_Driver/Src/stm32f0xx_hal_dma.c ****   	
 614:Drivers/STM32F0xx_HAL_Driver/Src/stm32f0xx_hal_dma.c ****   	/* Process Unlocked */
 615:Drivers/STM32F0xx_HAL_Driver/Src/stm32f0xx_hal_dma.c ****   	__HAL_UNLOCK(hdma);
 616:Drivers/STM32F0xx_HAL_Driver/Src/stm32f0xx_hal_dma.c ****   	
 617:Drivers/STM32F0xx_HAL_Driver/Src/stm32f0xx_hal_dma.c ****   	if(hdma->XferCpltCallback != NULL)
 618:Drivers/STM32F0xx_HAL_Driver/Src/stm32f0xx_hal_dma.c ****   	{
 619:Drivers/STM32F0xx_HAL_Driver/Src/stm32f0xx_hal_dma.c ****   		/* Transfer complete callback */
 620:Drivers/STM32F0xx_HAL_Driver/Src/stm32f0xx_hal_dma.c ****   		hdma->XferCpltCallback(hdma);
 621:Drivers/STM32F0xx_HAL_Driver/Src/stm32f0xx_hal_dma.c ****   	}
 622:Drivers/STM32F0xx_HAL_Driver/Src/stm32f0xx_hal_dma.c ****   }
 623:Drivers/STM32F0xx_HAL_Driver/Src/stm32f0xx_hal_dma.c ****   
 624:Drivers/STM32F0xx_HAL_Driver/Src/stm32f0xx_hal_dma.c ****   /* Transfer Error Interrupt management ***************************************/
 625:Drivers/STM32F0xx_HAL_Driver/Src/stm32f0xx_hal_dma.c ****   else if (( RESET != (flag_it & (DMA_FLAG_TE1 << hdma->ChannelIndex))) && (RESET != (source_it & D
 626:Drivers/STM32F0xx_HAL_Driver/Src/stm32f0xx_hal_dma.c ****   {
 627:Drivers/STM32F0xx_HAL_Driver/Src/stm32f0xx_hal_dma.c ****   	/* When a DMA transfer error occurs */
 628:Drivers/STM32F0xx_HAL_Driver/Src/stm32f0xx_hal_dma.c ****     /* A hardware clear of its EN bits is performed */
 629:Drivers/STM32F0xx_HAL_Driver/Src/stm32f0xx_hal_dma.c ****     /* Then, disable all DMA interrupts */
 630:Drivers/STM32F0xx_HAL_Driver/Src/stm32f0xx_hal_dma.c ****     hdma->Instance->CCR &= ~(DMA_IT_TC | DMA_IT_HT | DMA_IT_TE);
 631:Drivers/STM32F0xx_HAL_Driver/Src/stm32f0xx_hal_dma.c ****     
 632:Drivers/STM32F0xx_HAL_Driver/Src/stm32f0xx_hal_dma.c ****     /* Clear all flags */
 633:Drivers/STM32F0xx_HAL_Driver/Src/stm32f0xx_hal_dma.c ****     hdma->DmaBaseAddress->IFCR = DMA_FLAG_GL1 << hdma->ChannelIndex;
 634:Drivers/STM32F0xx_HAL_Driver/Src/stm32f0xx_hal_dma.c ****     
 635:Drivers/STM32F0xx_HAL_Driver/Src/stm32f0xx_hal_dma.c ****     /* Update error code */
 636:Drivers/STM32F0xx_HAL_Driver/Src/stm32f0xx_hal_dma.c ****     hdma->ErrorCode = HAL_DMA_ERROR_TE;
 637:Drivers/STM32F0xx_HAL_Driver/Src/stm32f0xx_hal_dma.c ****     
 638:Drivers/STM32F0xx_HAL_Driver/Src/stm32f0xx_hal_dma.c ****     /* Change the DMA state */
 639:Drivers/STM32F0xx_HAL_Driver/Src/stm32f0xx_hal_dma.c ****     hdma->State = HAL_DMA_STATE_READY;    
 640:Drivers/STM32F0xx_HAL_Driver/Src/stm32f0xx_hal_dma.c ****     
 641:Drivers/STM32F0xx_HAL_Driver/Src/stm32f0xx_hal_dma.c ****     /* Process Unlocked */
 642:Drivers/STM32F0xx_HAL_Driver/Src/stm32f0xx_hal_dma.c ****     __HAL_UNLOCK(hdma); 
 643:Drivers/STM32F0xx_HAL_Driver/Src/stm32f0xx_hal_dma.c ****     
 644:Drivers/STM32F0xx_HAL_Driver/Src/stm32f0xx_hal_dma.c ****     if(hdma->XferErrorCallback != NULL)
 645:Drivers/STM32F0xx_HAL_Driver/Src/stm32f0xx_hal_dma.c ****     {
 646:Drivers/STM32F0xx_HAL_Driver/Src/stm32f0xx_hal_dma.c ****     	/* Transfer error callback */
 647:Drivers/STM32F0xx_HAL_Driver/Src/stm32f0xx_hal_dma.c ****     	hdma->XferErrorCallback(hdma);
 648:Drivers/STM32F0xx_HAL_Driver/Src/stm32f0xx_hal_dma.c ****     }
 649:Drivers/STM32F0xx_HAL_Driver/Src/stm32f0xx_hal_dma.c ****    }
 650:Drivers/STM32F0xx_HAL_Driver/Src/stm32f0xx_hal_dma.c **** }  
 651:Drivers/STM32F0xx_HAL_Driver/Src/stm32f0xx_hal_dma.c **** 
 652:Drivers/STM32F0xx_HAL_Driver/Src/stm32f0xx_hal_dma.c **** /**
 653:Drivers/STM32F0xx_HAL_Driver/Src/stm32f0xx_hal_dma.c ****   * @brief  Register callbacks
 654:Drivers/STM32F0xx_HAL_Driver/Src/stm32f0xx_hal_dma.c ****   * @param  hdma                 pointer to a DMA_HandleTypeDef structure that contains
 655:Drivers/STM32F0xx_HAL_Driver/Src/stm32f0xx_hal_dma.c ****   *                               the configuration information for the specified DMA Stream.
 656:Drivers/STM32F0xx_HAL_Driver/Src/stm32f0xx_hal_dma.c ****   * @param  CallbackID           User Callback identifer
 657:Drivers/STM32F0xx_HAL_Driver/Src/stm32f0xx_hal_dma.c ****   *                               a HAL_DMA_CallbackIDTypeDef ENUM as parameter.
 658:Drivers/STM32F0xx_HAL_Driver/Src/stm32f0xx_hal_dma.c ****   * @param  pCallback            pointer to private callback function which has pointer to 
 659:Drivers/STM32F0xx_HAL_Driver/Src/stm32f0xx_hal_dma.c ****   *                               a DMA_HandleTypeDef structure as parameter.
ARM GAS  C:\Users\Password\AppData\Local\Temp\ccJqLrAb.s 			page 13


 660:Drivers/STM32F0xx_HAL_Driver/Src/stm32f0xx_hal_dma.c ****   * @retval HAL status
 661:Drivers/STM32F0xx_HAL_Driver/Src/stm32f0xx_hal_dma.c ****   */                          
 662:Drivers/STM32F0xx_HAL_Driver/Src/stm32f0xx_hal_dma.c **** HAL_StatusTypeDef HAL_DMA_RegisterCallback(DMA_HandleTypeDef *hdma, HAL_DMA_CallbackIDTypeDef Callb
 663:Drivers/STM32F0xx_HAL_Driver/Src/stm32f0xx_hal_dma.c **** {
 664:Drivers/STM32F0xx_HAL_Driver/Src/stm32f0xx_hal_dma.c ****   HAL_StatusTypeDef status = HAL_OK;
 665:Drivers/STM32F0xx_HAL_Driver/Src/stm32f0xx_hal_dma.c ****   
 666:Drivers/STM32F0xx_HAL_Driver/Src/stm32f0xx_hal_dma.c ****   /* Process locked */
 667:Drivers/STM32F0xx_HAL_Driver/Src/stm32f0xx_hal_dma.c ****   __HAL_LOCK(hdma);
 668:Drivers/STM32F0xx_HAL_Driver/Src/stm32f0xx_hal_dma.c ****   
 669:Drivers/STM32F0xx_HAL_Driver/Src/stm32f0xx_hal_dma.c ****   if(HAL_DMA_STATE_READY == hdma->State)
 670:Drivers/STM32F0xx_HAL_Driver/Src/stm32f0xx_hal_dma.c ****   {
 671:Drivers/STM32F0xx_HAL_Driver/Src/stm32f0xx_hal_dma.c ****     switch (CallbackID)
 672:Drivers/STM32F0xx_HAL_Driver/Src/stm32f0xx_hal_dma.c ****     {
 673:Drivers/STM32F0xx_HAL_Driver/Src/stm32f0xx_hal_dma.c ****      case  HAL_DMA_XFER_CPLT_CB_ID:
 674:Drivers/STM32F0xx_HAL_Driver/Src/stm32f0xx_hal_dma.c ****            hdma->XferCpltCallback = pCallback;
 675:Drivers/STM32F0xx_HAL_Driver/Src/stm32f0xx_hal_dma.c ****            break;
 676:Drivers/STM32F0xx_HAL_Driver/Src/stm32f0xx_hal_dma.c ****        
 677:Drivers/STM32F0xx_HAL_Driver/Src/stm32f0xx_hal_dma.c ****      case  HAL_DMA_XFER_HALFCPLT_CB_ID:
 678:Drivers/STM32F0xx_HAL_Driver/Src/stm32f0xx_hal_dma.c ****            hdma->XferHalfCpltCallback = pCallback;
 679:Drivers/STM32F0xx_HAL_Driver/Src/stm32f0xx_hal_dma.c ****            break;         
 680:Drivers/STM32F0xx_HAL_Driver/Src/stm32f0xx_hal_dma.c **** 
 681:Drivers/STM32F0xx_HAL_Driver/Src/stm32f0xx_hal_dma.c ****      case  HAL_DMA_XFER_ERROR_CB_ID:
 682:Drivers/STM32F0xx_HAL_Driver/Src/stm32f0xx_hal_dma.c ****            hdma->XferErrorCallback = pCallback;
 683:Drivers/STM32F0xx_HAL_Driver/Src/stm32f0xx_hal_dma.c ****            break;         
 684:Drivers/STM32F0xx_HAL_Driver/Src/stm32f0xx_hal_dma.c ****            
 685:Drivers/STM32F0xx_HAL_Driver/Src/stm32f0xx_hal_dma.c ****      case  HAL_DMA_XFER_ABORT_CB_ID:
 686:Drivers/STM32F0xx_HAL_Driver/Src/stm32f0xx_hal_dma.c ****            hdma->XferAbortCallback = pCallback;
 687:Drivers/STM32F0xx_HAL_Driver/Src/stm32f0xx_hal_dma.c ****            break; 
 688:Drivers/STM32F0xx_HAL_Driver/Src/stm32f0xx_hal_dma.c ****            
 689:Drivers/STM32F0xx_HAL_Driver/Src/stm32f0xx_hal_dma.c ****      default:
 690:Drivers/STM32F0xx_HAL_Driver/Src/stm32f0xx_hal_dma.c ****            status = HAL_ERROR;
 691:Drivers/STM32F0xx_HAL_Driver/Src/stm32f0xx_hal_dma.c ****            break;                                                            
 692:Drivers/STM32F0xx_HAL_Driver/Src/stm32f0xx_hal_dma.c ****     }
 693:Drivers/STM32F0xx_HAL_Driver/Src/stm32f0xx_hal_dma.c ****   }
 694:Drivers/STM32F0xx_HAL_Driver/Src/stm32f0xx_hal_dma.c ****   else
 695:Drivers/STM32F0xx_HAL_Driver/Src/stm32f0xx_hal_dma.c ****   {
 696:Drivers/STM32F0xx_HAL_Driver/Src/stm32f0xx_hal_dma.c ****     status = HAL_ERROR;
 697:Drivers/STM32F0xx_HAL_Driver/Src/stm32f0xx_hal_dma.c ****   } 
 698:Drivers/STM32F0xx_HAL_Driver/Src/stm32f0xx_hal_dma.c ****   
 699:Drivers/STM32F0xx_HAL_Driver/Src/stm32f0xx_hal_dma.c ****   /* Release Lock */
 700:Drivers/STM32F0xx_HAL_Driver/Src/stm32f0xx_hal_dma.c ****   __HAL_UNLOCK(hdma);
 701:Drivers/STM32F0xx_HAL_Driver/Src/stm32f0xx_hal_dma.c ****   
 702:Drivers/STM32F0xx_HAL_Driver/Src/stm32f0xx_hal_dma.c ****   return status;
 703:Drivers/STM32F0xx_HAL_Driver/Src/stm32f0xx_hal_dma.c **** }
 704:Drivers/STM32F0xx_HAL_Driver/Src/stm32f0xx_hal_dma.c **** 
 705:Drivers/STM32F0xx_HAL_Driver/Src/stm32f0xx_hal_dma.c **** /**
 706:Drivers/STM32F0xx_HAL_Driver/Src/stm32f0xx_hal_dma.c ****   * @brief  UnRegister callbacks
 707:Drivers/STM32F0xx_HAL_Driver/Src/stm32f0xx_hal_dma.c ****   * @param  hdma                 pointer to a DMA_HandleTypeDef structure that contains
 708:Drivers/STM32F0xx_HAL_Driver/Src/stm32f0xx_hal_dma.c ****   *                               the configuration information for the specified DMA Stream.
 709:Drivers/STM32F0xx_HAL_Driver/Src/stm32f0xx_hal_dma.c ****   * @param  CallbackID           User Callback identifer
 710:Drivers/STM32F0xx_HAL_Driver/Src/stm32f0xx_hal_dma.c ****   *                               a HAL_DMA_CallbackIDTypeDef ENUM as parameter.
 711:Drivers/STM32F0xx_HAL_Driver/Src/stm32f0xx_hal_dma.c ****   * @retval HAL status
 712:Drivers/STM32F0xx_HAL_Driver/Src/stm32f0xx_hal_dma.c ****   */              
 713:Drivers/STM32F0xx_HAL_Driver/Src/stm32f0xx_hal_dma.c **** HAL_StatusTypeDef HAL_DMA_UnRegisterCallback(DMA_HandleTypeDef *hdma, HAL_DMA_CallbackIDTypeDef Cal
 714:Drivers/STM32F0xx_HAL_Driver/Src/stm32f0xx_hal_dma.c **** {
 715:Drivers/STM32F0xx_HAL_Driver/Src/stm32f0xx_hal_dma.c ****   HAL_StatusTypeDef status = HAL_OK;
 716:Drivers/STM32F0xx_HAL_Driver/Src/stm32f0xx_hal_dma.c **** 
ARM GAS  C:\Users\Password\AppData\Local\Temp\ccJqLrAb.s 			page 14


 717:Drivers/STM32F0xx_HAL_Driver/Src/stm32f0xx_hal_dma.c ****     /* Process locked */
 718:Drivers/STM32F0xx_HAL_Driver/Src/stm32f0xx_hal_dma.c ****   __HAL_LOCK(hdma);
 719:Drivers/STM32F0xx_HAL_Driver/Src/stm32f0xx_hal_dma.c ****   
 720:Drivers/STM32F0xx_HAL_Driver/Src/stm32f0xx_hal_dma.c ****   if(HAL_DMA_STATE_READY == hdma->State)
 721:Drivers/STM32F0xx_HAL_Driver/Src/stm32f0xx_hal_dma.c ****   {
 722:Drivers/STM32F0xx_HAL_Driver/Src/stm32f0xx_hal_dma.c ****     switch (CallbackID)
 723:Drivers/STM32F0xx_HAL_Driver/Src/stm32f0xx_hal_dma.c ****     {
 724:Drivers/STM32F0xx_HAL_Driver/Src/stm32f0xx_hal_dma.c ****      case  HAL_DMA_XFER_CPLT_CB_ID:
 725:Drivers/STM32F0xx_HAL_Driver/Src/stm32f0xx_hal_dma.c ****            hdma->XferCpltCallback = NULL;
 726:Drivers/STM32F0xx_HAL_Driver/Src/stm32f0xx_hal_dma.c ****            break;
 727:Drivers/STM32F0xx_HAL_Driver/Src/stm32f0xx_hal_dma.c ****        
 728:Drivers/STM32F0xx_HAL_Driver/Src/stm32f0xx_hal_dma.c ****      case  HAL_DMA_XFER_HALFCPLT_CB_ID:
 729:Drivers/STM32F0xx_HAL_Driver/Src/stm32f0xx_hal_dma.c ****            hdma->XferHalfCpltCallback = NULL;
 730:Drivers/STM32F0xx_HAL_Driver/Src/stm32f0xx_hal_dma.c ****            break;         
 731:Drivers/STM32F0xx_HAL_Driver/Src/stm32f0xx_hal_dma.c **** 
 732:Drivers/STM32F0xx_HAL_Driver/Src/stm32f0xx_hal_dma.c ****      case  HAL_DMA_XFER_ERROR_CB_ID:
 733:Drivers/STM32F0xx_HAL_Driver/Src/stm32f0xx_hal_dma.c ****            hdma->XferErrorCallback = NULL;
 734:Drivers/STM32F0xx_HAL_Driver/Src/stm32f0xx_hal_dma.c ****            break;         
 735:Drivers/STM32F0xx_HAL_Driver/Src/stm32f0xx_hal_dma.c ****            
 736:Drivers/STM32F0xx_HAL_Driver/Src/stm32f0xx_hal_dma.c ****      case  HAL_DMA_XFER_ABORT_CB_ID:
 737:Drivers/STM32F0xx_HAL_Driver/Src/stm32f0xx_hal_dma.c ****            hdma->XferAbortCallback = NULL;
 738:Drivers/STM32F0xx_HAL_Driver/Src/stm32f0xx_hal_dma.c ****            break; 
 739:Drivers/STM32F0xx_HAL_Driver/Src/stm32f0xx_hal_dma.c ****      
 740:Drivers/STM32F0xx_HAL_Driver/Src/stm32f0xx_hal_dma.c ****     case   HAL_DMA_XFER_ALL_CB_ID:
 741:Drivers/STM32F0xx_HAL_Driver/Src/stm32f0xx_hal_dma.c ****            hdma->XferCpltCallback = NULL;
 742:Drivers/STM32F0xx_HAL_Driver/Src/stm32f0xx_hal_dma.c ****            hdma->XferHalfCpltCallback = NULL;
 743:Drivers/STM32F0xx_HAL_Driver/Src/stm32f0xx_hal_dma.c ****            hdma->XferErrorCallback = NULL;
 744:Drivers/STM32F0xx_HAL_Driver/Src/stm32f0xx_hal_dma.c ****            hdma->XferAbortCallback = NULL;
 745:Drivers/STM32F0xx_HAL_Driver/Src/stm32f0xx_hal_dma.c ****            break; 
 746:Drivers/STM32F0xx_HAL_Driver/Src/stm32f0xx_hal_dma.c ****      
 747:Drivers/STM32F0xx_HAL_Driver/Src/stm32f0xx_hal_dma.c ****     default:
 748:Drivers/STM32F0xx_HAL_Driver/Src/stm32f0xx_hal_dma.c ****            status = HAL_ERROR;
 749:Drivers/STM32F0xx_HAL_Driver/Src/stm32f0xx_hal_dma.c ****            break;                                                            
 750:Drivers/STM32F0xx_HAL_Driver/Src/stm32f0xx_hal_dma.c ****     }
 751:Drivers/STM32F0xx_HAL_Driver/Src/stm32f0xx_hal_dma.c ****   }
 752:Drivers/STM32F0xx_HAL_Driver/Src/stm32f0xx_hal_dma.c ****   else
 753:Drivers/STM32F0xx_HAL_Driver/Src/stm32f0xx_hal_dma.c ****   {
 754:Drivers/STM32F0xx_HAL_Driver/Src/stm32f0xx_hal_dma.c ****     status = HAL_ERROR;
 755:Drivers/STM32F0xx_HAL_Driver/Src/stm32f0xx_hal_dma.c ****   } 
 756:Drivers/STM32F0xx_HAL_Driver/Src/stm32f0xx_hal_dma.c ****   
 757:Drivers/STM32F0xx_HAL_Driver/Src/stm32f0xx_hal_dma.c ****   /* Release Lock */
 758:Drivers/STM32F0xx_HAL_Driver/Src/stm32f0xx_hal_dma.c ****   __HAL_UNLOCK(hdma);
 759:Drivers/STM32F0xx_HAL_Driver/Src/stm32f0xx_hal_dma.c ****   
 760:Drivers/STM32F0xx_HAL_Driver/Src/stm32f0xx_hal_dma.c ****   return status;
 761:Drivers/STM32F0xx_HAL_Driver/Src/stm32f0xx_hal_dma.c **** }
 762:Drivers/STM32F0xx_HAL_Driver/Src/stm32f0xx_hal_dma.c **** 
 763:Drivers/STM32F0xx_HAL_Driver/Src/stm32f0xx_hal_dma.c **** /**
 764:Drivers/STM32F0xx_HAL_Driver/Src/stm32f0xx_hal_dma.c ****   * @}
 765:Drivers/STM32F0xx_HAL_Driver/Src/stm32f0xx_hal_dma.c ****   */
 766:Drivers/STM32F0xx_HAL_Driver/Src/stm32f0xx_hal_dma.c **** 
 767:Drivers/STM32F0xx_HAL_Driver/Src/stm32f0xx_hal_dma.c **** /** @defgroup DMA_Exported_Functions_Group3 Peripheral State functions
 768:Drivers/STM32F0xx_HAL_Driver/Src/stm32f0xx_hal_dma.c ****  *  @brief    Peripheral State functions 
 769:Drivers/STM32F0xx_HAL_Driver/Src/stm32f0xx_hal_dma.c ****  *
 770:Drivers/STM32F0xx_HAL_Driver/Src/stm32f0xx_hal_dma.c **** @verbatim   
 771:Drivers/STM32F0xx_HAL_Driver/Src/stm32f0xx_hal_dma.c ****  ===============================================================================
 772:Drivers/STM32F0xx_HAL_Driver/Src/stm32f0xx_hal_dma.c ****                     ##### State and Errors functions #####
 773:Drivers/STM32F0xx_HAL_Driver/Src/stm32f0xx_hal_dma.c ****  ===============================================================================  
ARM GAS  C:\Users\Password\AppData\Local\Temp\ccJqLrAb.s 			page 15


 774:Drivers/STM32F0xx_HAL_Driver/Src/stm32f0xx_hal_dma.c ****     [..]
 775:Drivers/STM32F0xx_HAL_Driver/Src/stm32f0xx_hal_dma.c ****     This subsection provides functions allowing to
 776:Drivers/STM32F0xx_HAL_Driver/Src/stm32f0xx_hal_dma.c ****       (+) Check the DMA state
 777:Drivers/STM32F0xx_HAL_Driver/Src/stm32f0xx_hal_dma.c ****       (+) Get error code
 778:Drivers/STM32F0xx_HAL_Driver/Src/stm32f0xx_hal_dma.c **** 
 779:Drivers/STM32F0xx_HAL_Driver/Src/stm32f0xx_hal_dma.c **** @endverbatim
 780:Drivers/STM32F0xx_HAL_Driver/Src/stm32f0xx_hal_dma.c ****   * @{
 781:Drivers/STM32F0xx_HAL_Driver/Src/stm32f0xx_hal_dma.c ****   */  
 782:Drivers/STM32F0xx_HAL_Driver/Src/stm32f0xx_hal_dma.c **** 
 783:Drivers/STM32F0xx_HAL_Driver/Src/stm32f0xx_hal_dma.c **** /**
 784:Drivers/STM32F0xx_HAL_Driver/Src/stm32f0xx_hal_dma.c ****   * @brief  Returns the DMA state.
 785:Drivers/STM32F0xx_HAL_Driver/Src/stm32f0xx_hal_dma.c ****   * @param  hdma pointer to a DMA_HandleTypeDef structure that contains
 786:Drivers/STM32F0xx_HAL_Driver/Src/stm32f0xx_hal_dma.c ****   *               the configuration information for the specified DMA Channel.  
 787:Drivers/STM32F0xx_HAL_Driver/Src/stm32f0xx_hal_dma.c ****   * @retval HAL state
 788:Drivers/STM32F0xx_HAL_Driver/Src/stm32f0xx_hal_dma.c ****   */
 789:Drivers/STM32F0xx_HAL_Driver/Src/stm32f0xx_hal_dma.c **** HAL_DMA_StateTypeDef HAL_DMA_GetState(DMA_HandleTypeDef *hdma)
 790:Drivers/STM32F0xx_HAL_Driver/Src/stm32f0xx_hal_dma.c **** {
 791:Drivers/STM32F0xx_HAL_Driver/Src/stm32f0xx_hal_dma.c ****   return hdma->State;
 792:Drivers/STM32F0xx_HAL_Driver/Src/stm32f0xx_hal_dma.c **** }
 793:Drivers/STM32F0xx_HAL_Driver/Src/stm32f0xx_hal_dma.c **** 
 794:Drivers/STM32F0xx_HAL_Driver/Src/stm32f0xx_hal_dma.c **** /**
 795:Drivers/STM32F0xx_HAL_Driver/Src/stm32f0xx_hal_dma.c ****   * @brief  Return the DMA error code
 796:Drivers/STM32F0xx_HAL_Driver/Src/stm32f0xx_hal_dma.c ****   * @param  hdma pointer to a DMA_HandleTypeDef structure that contains
 797:Drivers/STM32F0xx_HAL_Driver/Src/stm32f0xx_hal_dma.c ****   *              the configuration information for the specified DMA Channel.
 798:Drivers/STM32F0xx_HAL_Driver/Src/stm32f0xx_hal_dma.c ****   * @retval DMA Error Code
 799:Drivers/STM32F0xx_HAL_Driver/Src/stm32f0xx_hal_dma.c ****   */
 800:Drivers/STM32F0xx_HAL_Driver/Src/stm32f0xx_hal_dma.c **** uint32_t HAL_DMA_GetError(DMA_HandleTypeDef *hdma)
 801:Drivers/STM32F0xx_HAL_Driver/Src/stm32f0xx_hal_dma.c **** {
 802:Drivers/STM32F0xx_HAL_Driver/Src/stm32f0xx_hal_dma.c ****   return hdma->ErrorCode;
 803:Drivers/STM32F0xx_HAL_Driver/Src/stm32f0xx_hal_dma.c **** }
 804:Drivers/STM32F0xx_HAL_Driver/Src/stm32f0xx_hal_dma.c **** 
 805:Drivers/STM32F0xx_HAL_Driver/Src/stm32f0xx_hal_dma.c **** /**
 806:Drivers/STM32F0xx_HAL_Driver/Src/stm32f0xx_hal_dma.c ****   * @}
 807:Drivers/STM32F0xx_HAL_Driver/Src/stm32f0xx_hal_dma.c ****   */
 808:Drivers/STM32F0xx_HAL_Driver/Src/stm32f0xx_hal_dma.c **** 
 809:Drivers/STM32F0xx_HAL_Driver/Src/stm32f0xx_hal_dma.c **** /**
 810:Drivers/STM32F0xx_HAL_Driver/Src/stm32f0xx_hal_dma.c ****   * @}
 811:Drivers/STM32F0xx_HAL_Driver/Src/stm32f0xx_hal_dma.c ****   */
 812:Drivers/STM32F0xx_HAL_Driver/Src/stm32f0xx_hal_dma.c **** 
 813:Drivers/STM32F0xx_HAL_Driver/Src/stm32f0xx_hal_dma.c **** /** @addtogroup DMA_Private_Functions
 814:Drivers/STM32F0xx_HAL_Driver/Src/stm32f0xx_hal_dma.c ****   * @{
 815:Drivers/STM32F0xx_HAL_Driver/Src/stm32f0xx_hal_dma.c ****   */
 816:Drivers/STM32F0xx_HAL_Driver/Src/stm32f0xx_hal_dma.c **** 
 817:Drivers/STM32F0xx_HAL_Driver/Src/stm32f0xx_hal_dma.c **** /**
 818:Drivers/STM32F0xx_HAL_Driver/Src/stm32f0xx_hal_dma.c ****   * @brief  Set the DMA Transfer parameters.
 819:Drivers/STM32F0xx_HAL_Driver/Src/stm32f0xx_hal_dma.c ****   * @param  hdma       pointer to a DMA_HandleTypeDef structure that contains
 820:Drivers/STM32F0xx_HAL_Driver/Src/stm32f0xx_hal_dma.c ****   *                     the configuration information for the specified DMA Channel.  
 821:Drivers/STM32F0xx_HAL_Driver/Src/stm32f0xx_hal_dma.c ****   * @param  SrcAddress The source memory Buffer address
 822:Drivers/STM32F0xx_HAL_Driver/Src/stm32f0xx_hal_dma.c ****   * @param  DstAddress The destination memory Buffer address
 823:Drivers/STM32F0xx_HAL_Driver/Src/stm32f0xx_hal_dma.c ****   * @param  DataLength The length of data to be transferred from source to destination
 824:Drivers/STM32F0xx_HAL_Driver/Src/stm32f0xx_hal_dma.c ****   * @retval HAL status
 825:Drivers/STM32F0xx_HAL_Driver/Src/stm32f0xx_hal_dma.c ****   */
 826:Drivers/STM32F0xx_HAL_Driver/Src/stm32f0xx_hal_dma.c **** static void DMA_SetConfig(DMA_HandleTypeDef *hdma, uint32_t SrcAddress, uint32_t DstAddress, uint32
 827:Drivers/STM32F0xx_HAL_Driver/Src/stm32f0xx_hal_dma.c **** {
  27              		.loc 1 827 1 view -0
  28              		.cfi_startproc
  29              		@ args = 0, pretend = 0, frame = 0
ARM GAS  C:\Users\Password\AppData\Local\Temp\ccJqLrAb.s 			page 16


  30              		@ frame_needed = 0, uses_anonymous_args = 0
  31              		.loc 1 827 1 is_stmt 0 view .LVU1
  32 0000 70B5     		push	{r4, r5, r6, lr}
  33              	.LCFI0:
  34              		.cfi_def_cfa_offset 16
  35              		.cfi_offset 4, -16
  36              		.cfi_offset 5, -12
  37              		.cfi_offset 6, -8
  38              		.cfi_offset 14, -4
 828:Drivers/STM32F0xx_HAL_Driver/Src/stm32f0xx_hal_dma.c **** 	/* Clear all flags */
 829:Drivers/STM32F0xx_HAL_Driver/Src/stm32f0xx_hal_dma.c ****   hdma->DmaBaseAddress->IFCR  = (DMA_FLAG_GL1 << hdma->ChannelIndex);
  39              		.loc 1 829 3 is_stmt 1 view .LVU2
  40              		.loc 1 829 54 is_stmt 0 view .LVU3
  41 0002 066C     		ldr	r6, [r0, #64]
  42              		.loc 1 829 7 view .LVU4
  43 0004 C56B     		ldr	r5, [r0, #60]
  44              		.loc 1 829 47 view .LVU5
  45 0006 0124     		movs	r4, #1
  46 0008 B440     		lsls	r4, r4, r6
  47              		.loc 1 829 31 view .LVU6
  48 000a 6C60     		str	r4, [r5, #4]
 830:Drivers/STM32F0xx_HAL_Driver/Src/stm32f0xx_hal_dma.c ****   
 831:Drivers/STM32F0xx_HAL_Driver/Src/stm32f0xx_hal_dma.c ****   /* Configure DMA Channel data length */
 832:Drivers/STM32F0xx_HAL_Driver/Src/stm32f0xx_hal_dma.c ****   hdma->Instance->CNDTR = DataLength;
  49              		.loc 1 832 3 is_stmt 1 view .LVU7
  50              		.loc 1 832 7 is_stmt 0 view .LVU8
  51 000c 0468     		ldr	r4, [r0]
  52              		.loc 1 832 25 view .LVU9
  53 000e 6360     		str	r3, [r4, #4]
 833:Drivers/STM32F0xx_HAL_Driver/Src/stm32f0xx_hal_dma.c ****   
 834:Drivers/STM32F0xx_HAL_Driver/Src/stm32f0xx_hal_dma.c ****   /* Memory to Peripheral */
 835:Drivers/STM32F0xx_HAL_Driver/Src/stm32f0xx_hal_dma.c ****   if((hdma->Init.Direction) == DMA_MEMORY_TO_PERIPH)
  54              		.loc 1 835 3 is_stmt 1 view .LVU10
  55              		.loc 1 835 17 is_stmt 0 view .LVU11
  56 0010 4368     		ldr	r3, [r0, #4]
  57              	.LVL1:
  58              		.loc 1 835 5 view .LVU12
  59 0012 102B     		cmp	r3, #16
  60 0014 04D0     		beq	.L4
 836:Drivers/STM32F0xx_HAL_Driver/Src/stm32f0xx_hal_dma.c ****   {   
 837:Drivers/STM32F0xx_HAL_Driver/Src/stm32f0xx_hal_dma.c ****     /* Configure DMA Channel destination address */
 838:Drivers/STM32F0xx_HAL_Driver/Src/stm32f0xx_hal_dma.c ****     hdma->Instance->CPAR = DstAddress;
 839:Drivers/STM32F0xx_HAL_Driver/Src/stm32f0xx_hal_dma.c ****     
 840:Drivers/STM32F0xx_HAL_Driver/Src/stm32f0xx_hal_dma.c ****     /* Configure DMA Channel source address */
 841:Drivers/STM32F0xx_HAL_Driver/Src/stm32f0xx_hal_dma.c ****     hdma->Instance->CMAR = SrcAddress;
 842:Drivers/STM32F0xx_HAL_Driver/Src/stm32f0xx_hal_dma.c ****   }
 843:Drivers/STM32F0xx_HAL_Driver/Src/stm32f0xx_hal_dma.c ****   /* Peripheral to Memory */
 844:Drivers/STM32F0xx_HAL_Driver/Src/stm32f0xx_hal_dma.c ****   else
 845:Drivers/STM32F0xx_HAL_Driver/Src/stm32f0xx_hal_dma.c ****   {
 846:Drivers/STM32F0xx_HAL_Driver/Src/stm32f0xx_hal_dma.c ****     /* Configure DMA Channel source address */
 847:Drivers/STM32F0xx_HAL_Driver/Src/stm32f0xx_hal_dma.c ****     hdma->Instance->CPAR = SrcAddress;
  61              		.loc 1 847 5 is_stmt 1 view .LVU13
  62              		.loc 1 847 9 is_stmt 0 view .LVU14
  63 0016 0368     		ldr	r3, [r0]
  64              		.loc 1 847 26 view .LVU15
  65 0018 9960     		str	r1, [r3, #8]
  66              	.LVL2:
ARM GAS  C:\Users\Password\AppData\Local\Temp\ccJqLrAb.s 			page 17


 848:Drivers/STM32F0xx_HAL_Driver/Src/stm32f0xx_hal_dma.c ****     
 849:Drivers/STM32F0xx_HAL_Driver/Src/stm32f0xx_hal_dma.c ****     /* Configure DMA Channel destination address */
 850:Drivers/STM32F0xx_HAL_Driver/Src/stm32f0xx_hal_dma.c ****     hdma->Instance->CMAR = DstAddress;
  67              		.loc 1 850 5 is_stmt 1 view .LVU16
  68              		.loc 1 850 9 is_stmt 0 view .LVU17
  69 001a 0368     		ldr	r3, [r0]
  70              		.loc 1 850 26 view .LVU18
  71 001c DA60     		str	r2, [r3, #12]
  72              	.L1:
 851:Drivers/STM32F0xx_HAL_Driver/Src/stm32f0xx_hal_dma.c ****   }
 852:Drivers/STM32F0xx_HAL_Driver/Src/stm32f0xx_hal_dma.c **** }
  73              		.loc 1 852 1 view .LVU19
  74              		@ sp needed
  75 001e 70BD     		pop	{r4, r5, r6, pc}
  76              	.LVL3:
  77              	.L4:
 838:Drivers/STM32F0xx_HAL_Driver/Src/stm32f0xx_hal_dma.c ****     
  78              		.loc 1 838 5 is_stmt 1 view .LVU20
 838:Drivers/STM32F0xx_HAL_Driver/Src/stm32f0xx_hal_dma.c ****     
  79              		.loc 1 838 9 is_stmt 0 view .LVU21
  80 0020 0368     		ldr	r3, [r0]
 838:Drivers/STM32F0xx_HAL_Driver/Src/stm32f0xx_hal_dma.c ****     
  81              		.loc 1 838 26 view .LVU22
  82 0022 9A60     		str	r2, [r3, #8]
  83              	.LVL4:
 841:Drivers/STM32F0xx_HAL_Driver/Src/stm32f0xx_hal_dma.c ****   }
  84              		.loc 1 841 5 is_stmt 1 view .LVU23
 841:Drivers/STM32F0xx_HAL_Driver/Src/stm32f0xx_hal_dma.c ****   }
  85              		.loc 1 841 9 is_stmt 0 view .LVU24
  86 0024 0368     		ldr	r3, [r0]
 841:Drivers/STM32F0xx_HAL_Driver/Src/stm32f0xx_hal_dma.c ****   }
  87              		.loc 1 841 26 view .LVU25
  88 0026 D960     		str	r1, [r3, #12]
  89 0028 F9E7     		b	.L1
  90              		.cfi_endproc
  91              	.LFE52:
  93              		.global	__aeabi_uidiv
  94              		.section	.text.DMA_CalcBaseAndBitshift,"ax",%progbits
  95              		.align	1
  96              		.syntax unified
  97              		.code	16
  98              		.thumb_func
 100              	DMA_CalcBaseAndBitshift:
 101              	.LVL5:
 102              	.LFB53:
 853:Drivers/STM32F0xx_HAL_Driver/Src/stm32f0xx_hal_dma.c **** 
 854:Drivers/STM32F0xx_HAL_Driver/Src/stm32f0xx_hal_dma.c **** /**
 855:Drivers/STM32F0xx_HAL_Driver/Src/stm32f0xx_hal_dma.c ****   * @brief  set the DMA base address and channel index depending on DMA instance
 856:Drivers/STM32F0xx_HAL_Driver/Src/stm32f0xx_hal_dma.c ****   * @param  hdma       pointer to a DMA_HandleTypeDef structure that contains
 857:Drivers/STM32F0xx_HAL_Driver/Src/stm32f0xx_hal_dma.c ****   *                     the configuration information for the specified DMA Stream. 
 858:Drivers/STM32F0xx_HAL_Driver/Src/stm32f0xx_hal_dma.c ****   * @retval None
 859:Drivers/STM32F0xx_HAL_Driver/Src/stm32f0xx_hal_dma.c ****   */
 860:Drivers/STM32F0xx_HAL_Driver/Src/stm32f0xx_hal_dma.c **** static void DMA_CalcBaseAndBitshift(DMA_HandleTypeDef *hdma)
 861:Drivers/STM32F0xx_HAL_Driver/Src/stm32f0xx_hal_dma.c **** {
 103              		.loc 1 861 1 is_stmt 1 view -0
 104              		.cfi_startproc
 105              		@ args = 0, pretend = 0, frame = 0
ARM GAS  C:\Users\Password\AppData\Local\Temp\ccJqLrAb.s 			page 18


 106              		@ frame_needed = 0, uses_anonymous_args = 0
 107              		.loc 1 861 1 is_stmt 0 view .LVU27
 108 0000 10B5     		push	{r4, lr}
 109              	.LCFI1:
 110              		.cfi_def_cfa_offset 8
 111              		.cfi_offset 4, -8
 112              		.cfi_offset 14, -4
 113 0002 0400     		movs	r4, r0
 862:Drivers/STM32F0xx_HAL_Driver/Src/stm32f0xx_hal_dma.c **** #if defined (DMA2)
 863:Drivers/STM32F0xx_HAL_Driver/Src/stm32f0xx_hal_dma.c ****   /* calculation of the channel index */
 864:Drivers/STM32F0xx_HAL_Driver/Src/stm32f0xx_hal_dma.c ****   if ((uint32_t)(hdma->Instance) < (uint32_t)(DMA2_Channel1))
 865:Drivers/STM32F0xx_HAL_Driver/Src/stm32f0xx_hal_dma.c ****   {
 866:Drivers/STM32F0xx_HAL_Driver/Src/stm32f0xx_hal_dma.c ****     /* DMA1 */
 867:Drivers/STM32F0xx_HAL_Driver/Src/stm32f0xx_hal_dma.c ****     hdma->ChannelIndex = (((uint32_t)hdma->Instance - (uint32_t)DMA1_Channel1) / ((uint32_t)DMA1_Ch
 868:Drivers/STM32F0xx_HAL_Driver/Src/stm32f0xx_hal_dma.c ****     hdma->DmaBaseAddress = DMA1;
 869:Drivers/STM32F0xx_HAL_Driver/Src/stm32f0xx_hal_dma.c ****   }
 870:Drivers/STM32F0xx_HAL_Driver/Src/stm32f0xx_hal_dma.c ****   else 
 871:Drivers/STM32F0xx_HAL_Driver/Src/stm32f0xx_hal_dma.c ****   {
 872:Drivers/STM32F0xx_HAL_Driver/Src/stm32f0xx_hal_dma.c ****     /* DMA2 */
 873:Drivers/STM32F0xx_HAL_Driver/Src/stm32f0xx_hal_dma.c ****     hdma->ChannelIndex = (((uint32_t)hdma->Instance - (uint32_t)DMA2_Channel1) / ((uint32_t)DMA2_Ch
 874:Drivers/STM32F0xx_HAL_Driver/Src/stm32f0xx_hal_dma.c ****     hdma->DmaBaseAddress = DMA2;
 875:Drivers/STM32F0xx_HAL_Driver/Src/stm32f0xx_hal_dma.c ****   }
 876:Drivers/STM32F0xx_HAL_Driver/Src/stm32f0xx_hal_dma.c **** #else
 877:Drivers/STM32F0xx_HAL_Driver/Src/stm32f0xx_hal_dma.c ****   /* calculation of the channel index */
 878:Drivers/STM32F0xx_HAL_Driver/Src/stm32f0xx_hal_dma.c ****   /* DMA1 */
 879:Drivers/STM32F0xx_HAL_Driver/Src/stm32f0xx_hal_dma.c ****   hdma->ChannelIndex = (((uint32_t)hdma->Instance - (uint32_t)DMA1_Channel1) / ((uint32_t)DMA1_Chan
 114              		.loc 1 879 3 is_stmt 1 view .LVU28
 115              		.loc 1 879 40 is_stmt 0 view .LVU29
 116 0004 0068     		ldr	r0, [r0]
 117              	.LVL6:
 118              		.loc 1 879 51 view .LVU30
 119 0006 054B     		ldr	r3, .L6
 120 0008 9C46     		mov	ip, r3
 121 000a 6044     		add	r0, r0, ip
 122              		.loc 1 879 78 view .LVU31
 123 000c 1421     		movs	r1, #20
 124 000e FFF7FEFF 		bl	__aeabi_uidiv
 125              	.LVL7:
 126              		.loc 1 879 133 view .LVU32
 127 0012 8000     		lsls	r0, r0, #2
 128              		.loc 1 879 22 view .LVU33
 129 0014 2064     		str	r0, [r4, #64]
 880:Drivers/STM32F0xx_HAL_Driver/Src/stm32f0xx_hal_dma.c ****   hdma->DmaBaseAddress = DMA1;
 130              		.loc 1 880 3 is_stmt 1 view .LVU34
 131              		.loc 1 880 24 is_stmt 0 view .LVU35
 132 0016 024B     		ldr	r3, .L6+4
 133 0018 E363     		str	r3, [r4, #60]
 881:Drivers/STM32F0xx_HAL_Driver/Src/stm32f0xx_hal_dma.c **** #endif
 882:Drivers/STM32F0xx_HAL_Driver/Src/stm32f0xx_hal_dma.c **** }
 134              		.loc 1 882 1 view .LVU36
 135              		@ sp needed
 136              	.LVL8:
 137              		.loc 1 882 1 view .LVU37
 138 001a 10BD     		pop	{r4, pc}
 139              	.L7:
 140              		.align	2
 141              	.L6:
ARM GAS  C:\Users\Password\AppData\Local\Temp\ccJqLrAb.s 			page 19


 142 001c F8FFFDBF 		.word	-1073872904
 143 0020 00000240 		.word	1073872896
 144              		.cfi_endproc
 145              	.LFE53:
 147              		.section	.text.HAL_DMA_Init,"ax",%progbits
 148              		.align	1
 149              		.global	HAL_DMA_Init
 150              		.syntax unified
 151              		.code	16
 152              		.thumb_func
 154              	HAL_DMA_Init:
 155              	.LVL9:
 156              	.LFB40:
 139:Drivers/STM32F0xx_HAL_Driver/Src/stm32f0xx_hal_dma.c ****   uint32_t tmp = 0U;
 157              		.loc 1 139 1 is_stmt 1 view -0
 158              		.cfi_startproc
 159              		@ args = 0, pretend = 0, frame = 0
 160              		@ frame_needed = 0, uses_anonymous_args = 0
 139:Drivers/STM32F0xx_HAL_Driver/Src/stm32f0xx_hal_dma.c ****   uint32_t tmp = 0U;
 161              		.loc 1 139 1 is_stmt 0 view .LVU39
 162 0000 70B5     		push	{r4, r5, r6, lr}
 163              	.LCFI2:
 164              		.cfi_def_cfa_offset 16
 165              		.cfi_offset 4, -16
 166              		.cfi_offset 5, -12
 167              		.cfi_offset 6, -8
 168              		.cfi_offset 14, -4
 169 0002 041E     		subs	r4, r0, #0
 140:Drivers/STM32F0xx_HAL_Driver/Src/stm32f0xx_hal_dma.c ****   
 170              		.loc 1 140 3 is_stmt 1 view .LVU40
 171              	.LVL10:
 143:Drivers/STM32F0xx_HAL_Driver/Src/stm32f0xx_hal_dma.c ****   {
 172              		.loc 1 143 3 view .LVU41
 143:Drivers/STM32F0xx_HAL_Driver/Src/stm32f0xx_hal_dma.c ****   {
 173              		.loc 1 143 5 is_stmt 0 view .LVU42
 174 0004 20D0     		beq	.L10
 149:Drivers/STM32F0xx_HAL_Driver/Src/stm32f0xx_hal_dma.c ****   assert_param(IS_DMA_DIRECTION(hdma->Init.Direction));
 175              		.loc 1 149 3 is_stmt 1 view .LVU43
 150:Drivers/STM32F0xx_HAL_Driver/Src/stm32f0xx_hal_dma.c ****   assert_param(IS_DMA_PERIPHERAL_INC_STATE(hdma->Init.PeriphInc));
 176              		.loc 1 150 3 view .LVU44
 151:Drivers/STM32F0xx_HAL_Driver/Src/stm32f0xx_hal_dma.c ****   assert_param(IS_DMA_MEMORY_INC_STATE(hdma->Init.MemInc));
 177              		.loc 1 151 3 view .LVU45
 152:Drivers/STM32F0xx_HAL_Driver/Src/stm32f0xx_hal_dma.c ****   assert_param(IS_DMA_PERIPHERAL_DATA_SIZE(hdma->Init.PeriphDataAlignment));
 178              		.loc 1 152 3 view .LVU46
 153:Drivers/STM32F0xx_HAL_Driver/Src/stm32f0xx_hal_dma.c ****   assert_param(IS_DMA_MEMORY_DATA_SIZE(hdma->Init.MemDataAlignment));
 179              		.loc 1 153 3 view .LVU47
 154:Drivers/STM32F0xx_HAL_Driver/Src/stm32f0xx_hal_dma.c ****   assert_param(IS_DMA_MODE(hdma->Init.Mode));
 180              		.loc 1 154 3 view .LVU48
 155:Drivers/STM32F0xx_HAL_Driver/Src/stm32f0xx_hal_dma.c ****   assert_param(IS_DMA_PRIORITY(hdma->Init.Priority));
 181              		.loc 1 155 3 view .LVU49
 156:Drivers/STM32F0xx_HAL_Driver/Src/stm32f0xx_hal_dma.c ****   
 182              		.loc 1 156 3 view .LVU50
 159:Drivers/STM32F0xx_HAL_Driver/Src/stm32f0xx_hal_dma.c **** 
 183              		.loc 1 159 3 view .LVU51
 159:Drivers/STM32F0xx_HAL_Driver/Src/stm32f0xx_hal_dma.c **** 
 184              		.loc 1 159 15 is_stmt 0 view .LVU52
 185 0006 2125     		movs	r5, #33
ARM GAS  C:\Users\Password\AppData\Local\Temp\ccJqLrAb.s 			page 20


 186 0008 0223     		movs	r3, #2
 187 000a 4355     		strb	r3, [r0, r5]
 162:Drivers/STM32F0xx_HAL_Driver/Src/stm32f0xx_hal_dma.c ****   
 188              		.loc 1 162 3 is_stmt 1 view .LVU53
 162:Drivers/STM32F0xx_HAL_Driver/Src/stm32f0xx_hal_dma.c ****   
 189              		.loc 1 162 13 is_stmt 0 view .LVU54
 190 000c 0168     		ldr	r1, [r0]
 162:Drivers/STM32F0xx_HAL_Driver/Src/stm32f0xx_hal_dma.c ****   
 191              		.loc 1 162 7 view .LVU55
 192 000e 0A68     		ldr	r2, [r1]
 193              	.LVL11:
 165:Drivers/STM32F0xx_HAL_Driver/Src/stm32f0xx_hal_dma.c ****                       DMA_CCR_MINC  | DMA_CCR_PINC   | DMA_CCR_CIRC   | \
 194              		.loc 1 165 3 is_stmt 1 view .LVU56
 165:Drivers/STM32F0xx_HAL_Driver/Src/stm32f0xx_hal_dma.c ****                       DMA_CCR_MINC  | DMA_CCR_PINC   | DMA_CCR_CIRC   | \
 195              		.loc 1 165 7 is_stmt 0 view .LVU57
 196 0010 0E4B     		ldr	r3, .L11
 197 0012 1A40     		ands	r2, r3
 198              	.LVL12:
 170:Drivers/STM32F0xx_HAL_Driver/Src/stm32f0xx_hal_dma.c ****           hdma->Init.PeriphInc           | hdma->Init.MemInc           |
 199              		.loc 1 170 3 is_stmt 1 view .LVU58
 170:Drivers/STM32F0xx_HAL_Driver/Src/stm32f0xx_hal_dma.c ****           hdma->Init.PeriphInc           | hdma->Init.MemInc           |
 200              		.loc 1 170 21 is_stmt 0 view .LVU59
 201 0014 4368     		ldr	r3, [r0, #4]
 171:Drivers/STM32F0xx_HAL_Driver/Src/stm32f0xx_hal_dma.c ****           hdma->Init.PeriphDataAlignment | hdma->Init.MemDataAlignment |
 202              		.loc 1 171 21 view .LVU60
 203 0016 8068     		ldr	r0, [r0, #8]
 204              	.LVL13:
 170:Drivers/STM32F0xx_HAL_Driver/Src/stm32f0xx_hal_dma.c ****           hdma->Init.PeriphInc           | hdma->Init.MemInc           |
 205              		.loc 1 170 39 view .LVU61
 206 0018 0343     		orrs	r3, r0
 171:Drivers/STM32F0xx_HAL_Driver/Src/stm32f0xx_hal_dma.c ****           hdma->Init.PeriphDataAlignment | hdma->Init.MemDataAlignment |
 207              		.loc 1 171 54 view .LVU62
 208 001a E068     		ldr	r0, [r4, #12]
 171:Drivers/STM32F0xx_HAL_Driver/Src/stm32f0xx_hal_dma.c ****           hdma->Init.PeriphDataAlignment | hdma->Init.MemDataAlignment |
 209              		.loc 1 171 42 view .LVU63
 210 001c 0343     		orrs	r3, r0
 172:Drivers/STM32F0xx_HAL_Driver/Src/stm32f0xx_hal_dma.c ****           hdma->Init.Mode                | hdma->Init.Priority;
 211              		.loc 1 172 21 view .LVU64
 212 001e 2069     		ldr	r0, [r4, #16]
 171:Drivers/STM32F0xx_HAL_Driver/Src/stm32f0xx_hal_dma.c ****           hdma->Init.PeriphDataAlignment | hdma->Init.MemDataAlignment |
 213              		.loc 1 171 72 view .LVU65
 214 0020 0343     		orrs	r3, r0
 172:Drivers/STM32F0xx_HAL_Driver/Src/stm32f0xx_hal_dma.c ****           hdma->Init.Mode                | hdma->Init.Priority;
 215              		.loc 1 172 54 view .LVU66
 216 0022 6069     		ldr	r0, [r4, #20]
 172:Drivers/STM32F0xx_HAL_Driver/Src/stm32f0xx_hal_dma.c ****           hdma->Init.Mode                | hdma->Init.Priority;
 217              		.loc 1 172 42 view .LVU67
 218 0024 0343     		orrs	r3, r0
 173:Drivers/STM32F0xx_HAL_Driver/Src/stm32f0xx_hal_dma.c **** 
 219              		.loc 1 173 21 view .LVU68
 220 0026 A069     		ldr	r0, [r4, #24]
 172:Drivers/STM32F0xx_HAL_Driver/Src/stm32f0xx_hal_dma.c ****           hdma->Init.Mode                | hdma->Init.Priority;
 221              		.loc 1 172 72 view .LVU69
 222 0028 0343     		orrs	r3, r0
 173:Drivers/STM32F0xx_HAL_Driver/Src/stm32f0xx_hal_dma.c **** 
 223              		.loc 1 173 54 view .LVU70
 224 002a E069     		ldr	r0, [r4, #28]
ARM GAS  C:\Users\Password\AppData\Local\Temp\ccJqLrAb.s 			page 21


 173:Drivers/STM32F0xx_HAL_Driver/Src/stm32f0xx_hal_dma.c **** 
 225              		.loc 1 173 42 view .LVU71
 226 002c 0343     		orrs	r3, r0
 170:Drivers/STM32F0xx_HAL_Driver/Src/stm32f0xx_hal_dma.c ****           hdma->Init.PeriphInc           | hdma->Init.MemInc           |
 227              		.loc 1 170 7 view .LVU72
 228 002e 1343     		orrs	r3, r2
 229              	.LVL14:
 176:Drivers/STM32F0xx_HAL_Driver/Src/stm32f0xx_hal_dma.c ****   
 230              		.loc 1 176 3 is_stmt 1 view .LVU73
 176:Drivers/STM32F0xx_HAL_Driver/Src/stm32f0xx_hal_dma.c ****   
 231              		.loc 1 176 23 is_stmt 0 view .LVU74
 232 0030 0B60     		str	r3, [r1]
 180:Drivers/STM32F0xx_HAL_Driver/Src/stm32f0xx_hal_dma.c ****   
 233              		.loc 1 180 3 is_stmt 1 view .LVU75
 234 0032 2000     		movs	r0, r4
 235 0034 FFF7FEFF 		bl	DMA_CalcBaseAndBitshift
 236              	.LVL15:
 183:Drivers/STM32F0xx_HAL_Driver/Src/stm32f0xx_hal_dma.c **** 
 237              		.loc 1 183 3 view .LVU76
 183:Drivers/STM32F0xx_HAL_Driver/Src/stm32f0xx_hal_dma.c **** 
 238              		.loc 1 183 19 is_stmt 0 view .LVU77
 239 0038 0023     		movs	r3, #0
 240 003a A363     		str	r3, [r4, #56]
 186:Drivers/STM32F0xx_HAL_Driver/Src/stm32f0xx_hal_dma.c ****   
 241              		.loc 1 186 3 is_stmt 1 view .LVU78
 186:Drivers/STM32F0xx_HAL_Driver/Src/stm32f0xx_hal_dma.c ****   
 242              		.loc 1 186 15 is_stmt 0 view .LVU79
 243 003c 0122     		movs	r2, #1
 244 003e 6255     		strb	r2, [r4, r5]
 189:Drivers/STM32F0xx_HAL_Driver/Src/stm32f0xx_hal_dma.c ****   
 245              		.loc 1 189 3 is_stmt 1 view .LVU80
 189:Drivers/STM32F0xx_HAL_Driver/Src/stm32f0xx_hal_dma.c ****   
 246              		.loc 1 189 14 is_stmt 0 view .LVU81
 247 0040 1F32     		adds	r2, r2, #31
 248 0042 A354     		strb	r3, [r4, r2]
 191:Drivers/STM32F0xx_HAL_Driver/Src/stm32f0xx_hal_dma.c **** }  
 249              		.loc 1 191 3 is_stmt 1 view .LVU82
 191:Drivers/STM32F0xx_HAL_Driver/Src/stm32f0xx_hal_dma.c **** }  
 250              		.loc 1 191 10 is_stmt 0 view .LVU83
 251 0044 0020     		movs	r0, #0
 252              	.L9:
 192:Drivers/STM32F0xx_HAL_Driver/Src/stm32f0xx_hal_dma.c ****   
 253              		.loc 1 192 1 view .LVU84
 254              		@ sp needed
 255              	.LVL16:
 192:Drivers/STM32F0xx_HAL_Driver/Src/stm32f0xx_hal_dma.c ****   
 256              		.loc 1 192 1 view .LVU85
 257 0046 70BD     		pop	{r4, r5, r6, pc}
 258              	.LVL17:
 259              	.L10:
 145:Drivers/STM32F0xx_HAL_Driver/Src/stm32f0xx_hal_dma.c ****   }
 260              		.loc 1 145 12 view .LVU86
 261 0048 0120     		movs	r0, #1
 262              	.LVL18:
 145:Drivers/STM32F0xx_HAL_Driver/Src/stm32f0xx_hal_dma.c ****   }
 263              		.loc 1 145 12 view .LVU87
 264 004a FCE7     		b	.L9
ARM GAS  C:\Users\Password\AppData\Local\Temp\ccJqLrAb.s 			page 22


 265              	.L12:
 266              		.align	2
 267              	.L11:
 268 004c 0FC0FFFF 		.word	-16369
 269              		.cfi_endproc
 270              	.LFE40:
 272              		.section	.text.HAL_DMA_DeInit,"ax",%progbits
 273              		.align	1
 274              		.global	HAL_DMA_DeInit
 275              		.syntax unified
 276              		.code	16
 277              		.thumb_func
 279              	HAL_DMA_DeInit:
 280              	.LVL19:
 281              	.LFB41:
 201:Drivers/STM32F0xx_HAL_Driver/Src/stm32f0xx_hal_dma.c ****   /* Check the DMA handle allocation */
 282              		.loc 1 201 1 is_stmt 1 view -0
 283              		.cfi_startproc
 284              		@ args = 0, pretend = 0, frame = 0
 285              		@ frame_needed = 0, uses_anonymous_args = 0
 201:Drivers/STM32F0xx_HAL_Driver/Src/stm32f0xx_hal_dma.c ****   /* Check the DMA handle allocation */
 286              		.loc 1 201 1 is_stmt 0 view .LVU89
 287 0000 70B5     		push	{r4, r5, r6, lr}
 288              	.LCFI3:
 289              		.cfi_def_cfa_offset 16
 290              		.cfi_offset 4, -16
 291              		.cfi_offset 5, -12
 292              		.cfi_offset 6, -8
 293              		.cfi_offset 14, -4
 294 0002 041E     		subs	r4, r0, #0
 203:Drivers/STM32F0xx_HAL_Driver/Src/stm32f0xx_hal_dma.c ****   {
 295              		.loc 1 203 3 is_stmt 1 view .LVU90
 203:Drivers/STM32F0xx_HAL_Driver/Src/stm32f0xx_hal_dma.c ****   {
 296              		.loc 1 203 5 is_stmt 0 view .LVU91
 297 0004 1ED0     		beq	.L15
 209:Drivers/STM32F0xx_HAL_Driver/Src/stm32f0xx_hal_dma.c **** 
 298              		.loc 1 209 3 is_stmt 1 view .LVU92
 212:Drivers/STM32F0xx_HAL_Driver/Src/stm32f0xx_hal_dma.c **** 
 299              		.loc 1 212 3 view .LVU93
 212:Drivers/STM32F0xx_HAL_Driver/Src/stm32f0xx_hal_dma.c **** 
 300              		.loc 1 212 7 is_stmt 0 view .LVU94
 301 0006 0268     		ldr	r2, [r0]
 212:Drivers/STM32F0xx_HAL_Driver/Src/stm32f0xx_hal_dma.c **** 
 302              		.loc 1 212 23 view .LVU95
 303 0008 1368     		ldr	r3, [r2]
 304 000a 0126     		movs	r6, #1
 305 000c B343     		bics	r3, r6
 306 000e 1360     		str	r3, [r2]
 215:Drivers/STM32F0xx_HAL_Driver/Src/stm32f0xx_hal_dma.c **** 
 307              		.loc 1 215 3 is_stmt 1 view .LVU96
 215:Drivers/STM32F0xx_HAL_Driver/Src/stm32f0xx_hal_dma.c **** 
 308              		.loc 1 215 7 is_stmt 0 view .LVU97
 309 0010 0368     		ldr	r3, [r0]
 215:Drivers/STM32F0xx_HAL_Driver/Src/stm32f0xx_hal_dma.c **** 
 310              		.loc 1 215 24 view .LVU98
 311 0012 0025     		movs	r5, #0
 312 0014 1D60     		str	r5, [r3]
ARM GAS  C:\Users\Password\AppData\Local\Temp\ccJqLrAb.s 			page 23


 218:Drivers/STM32F0xx_HAL_Driver/Src/stm32f0xx_hal_dma.c **** 
 313              		.loc 1 218 3 is_stmt 1 view .LVU99
 218:Drivers/STM32F0xx_HAL_Driver/Src/stm32f0xx_hal_dma.c **** 
 314              		.loc 1 218 7 is_stmt 0 view .LVU100
 315 0016 0368     		ldr	r3, [r0]
 218:Drivers/STM32F0xx_HAL_Driver/Src/stm32f0xx_hal_dma.c **** 
 316              		.loc 1 218 25 view .LVU101
 317 0018 5D60     		str	r5, [r3, #4]
 221:Drivers/STM32F0xx_HAL_Driver/Src/stm32f0xx_hal_dma.c ****   
 318              		.loc 1 221 3 is_stmt 1 view .LVU102
 221:Drivers/STM32F0xx_HAL_Driver/Src/stm32f0xx_hal_dma.c ****   
 319              		.loc 1 221 7 is_stmt 0 view .LVU103
 320 001a 0368     		ldr	r3, [r0]
 221:Drivers/STM32F0xx_HAL_Driver/Src/stm32f0xx_hal_dma.c ****   
 321              		.loc 1 221 25 view .LVU104
 322 001c 9D60     		str	r5, [r3, #8]
 224:Drivers/STM32F0xx_HAL_Driver/Src/stm32f0xx_hal_dma.c **** 
 323              		.loc 1 224 3 is_stmt 1 view .LVU105
 224:Drivers/STM32F0xx_HAL_Driver/Src/stm32f0xx_hal_dma.c **** 
 324              		.loc 1 224 7 is_stmt 0 view .LVU106
 325 001e 0368     		ldr	r3, [r0]
 224:Drivers/STM32F0xx_HAL_Driver/Src/stm32f0xx_hal_dma.c **** 
 326              		.loc 1 224 24 view .LVU107
 327 0020 DD60     		str	r5, [r3, #12]
 227:Drivers/STM32F0xx_HAL_Driver/Src/stm32f0xx_hal_dma.c **** 
 328              		.loc 1 227 3 is_stmt 1 view .LVU108
 329 0022 FFF7FEFF 		bl	DMA_CalcBaseAndBitshift
 330              	.LVL20:
 230:Drivers/STM32F0xx_HAL_Driver/Src/stm32f0xx_hal_dma.c **** 
 331              		.loc 1 230 3 view .LVU109
 230:Drivers/STM32F0xx_HAL_Driver/Src/stm32f0xx_hal_dma.c **** 
 332              		.loc 1 230 52 is_stmt 0 view .LVU110
 333 0026 226C     		ldr	r2, [r4, #64]
 230:Drivers/STM32F0xx_HAL_Driver/Src/stm32f0xx_hal_dma.c **** 
 334              		.loc 1 230 7 view .LVU111
 335 0028 E36B     		ldr	r3, [r4, #60]
 230:Drivers/STM32F0xx_HAL_Driver/Src/stm32f0xx_hal_dma.c **** 
 336              		.loc 1 230 45 view .LVU112
 337 002a 9640     		lsls	r6, r6, r2
 230:Drivers/STM32F0xx_HAL_Driver/Src/stm32f0xx_hal_dma.c **** 
 338              		.loc 1 230 30 view .LVU113
 339 002c 5E60     		str	r6, [r3, #4]
 233:Drivers/STM32F0xx_HAL_Driver/Src/stm32f0xx_hal_dma.c ****   hdma->XferHalfCpltCallback = NULL;
 340              		.loc 1 233 3 is_stmt 1 view .LVU114
 233:Drivers/STM32F0xx_HAL_Driver/Src/stm32f0xx_hal_dma.c ****   hdma->XferHalfCpltCallback = NULL;
 341              		.loc 1 233 26 is_stmt 0 view .LVU115
 342 002e A562     		str	r5, [r4, #40]
 234:Drivers/STM32F0xx_HAL_Driver/Src/stm32f0xx_hal_dma.c ****   hdma->XferErrorCallback = NULL;
 343              		.loc 1 234 3 is_stmt 1 view .LVU116
 234:Drivers/STM32F0xx_HAL_Driver/Src/stm32f0xx_hal_dma.c ****   hdma->XferErrorCallback = NULL;
 344              		.loc 1 234 30 is_stmt 0 view .LVU117
 345 0030 E562     		str	r5, [r4, #44]
 235:Drivers/STM32F0xx_HAL_Driver/Src/stm32f0xx_hal_dma.c ****   hdma->XferAbortCallback = NULL;
 346              		.loc 1 235 3 is_stmt 1 view .LVU118
 235:Drivers/STM32F0xx_HAL_Driver/Src/stm32f0xx_hal_dma.c ****   hdma->XferAbortCallback = NULL;
 347              		.loc 1 235 27 is_stmt 0 view .LVU119
 348 0032 2563     		str	r5, [r4, #48]
ARM GAS  C:\Users\Password\AppData\Local\Temp\ccJqLrAb.s 			page 24


 236:Drivers/STM32F0xx_HAL_Driver/Src/stm32f0xx_hal_dma.c **** 
 349              		.loc 1 236 3 is_stmt 1 view .LVU120
 236:Drivers/STM32F0xx_HAL_Driver/Src/stm32f0xx_hal_dma.c **** 
 350              		.loc 1 236 27 is_stmt 0 view .LVU121
 351 0034 6563     		str	r5, [r4, #52]
 239:Drivers/STM32F0xx_HAL_Driver/Src/stm32f0xx_hal_dma.c **** 
 352              		.loc 1 239 3 is_stmt 1 view .LVU122
 239:Drivers/STM32F0xx_HAL_Driver/Src/stm32f0xx_hal_dma.c **** 
 353              		.loc 1 239 19 is_stmt 0 view .LVU123
 354 0036 A563     		str	r5, [r4, #56]
 242:Drivers/STM32F0xx_HAL_Driver/Src/stm32f0xx_hal_dma.c **** 
 355              		.loc 1 242 3 is_stmt 1 view .LVU124
 242:Drivers/STM32F0xx_HAL_Driver/Src/stm32f0xx_hal_dma.c **** 
 356              		.loc 1 242 15 is_stmt 0 view .LVU125
 357 0038 2123     		movs	r3, #33
 358 003a E554     		strb	r5, [r4, r3]
 245:Drivers/STM32F0xx_HAL_Driver/Src/stm32f0xx_hal_dma.c **** 
 359              		.loc 1 245 3 is_stmt 1 view .LVU126
 245:Drivers/STM32F0xx_HAL_Driver/Src/stm32f0xx_hal_dma.c **** 
 360              		.loc 1 245 3 view .LVU127
 361 003c 013B     		subs	r3, r3, #1
 362 003e E554     		strb	r5, [r4, r3]
 245:Drivers/STM32F0xx_HAL_Driver/Src/stm32f0xx_hal_dma.c **** 
 363              		.loc 1 245 3 view .LVU128
 247:Drivers/STM32F0xx_HAL_Driver/Src/stm32f0xx_hal_dma.c **** }
 364              		.loc 1 247 3 view .LVU129
 247:Drivers/STM32F0xx_HAL_Driver/Src/stm32f0xx_hal_dma.c **** }
 365              		.loc 1 247 10 is_stmt 0 view .LVU130
 366 0040 0020     		movs	r0, #0
 367              	.L14:
 248:Drivers/STM32F0xx_HAL_Driver/Src/stm32f0xx_hal_dma.c **** 
 368              		.loc 1 248 1 view .LVU131
 369              		@ sp needed
 370              	.LVL21:
 248:Drivers/STM32F0xx_HAL_Driver/Src/stm32f0xx_hal_dma.c **** 
 371              		.loc 1 248 1 view .LVU132
 372 0042 70BD     		pop	{r4, r5, r6, pc}
 373              	.LVL22:
 374              	.L15:
 205:Drivers/STM32F0xx_HAL_Driver/Src/stm32f0xx_hal_dma.c ****   }
 375              		.loc 1 205 12 view .LVU133
 376 0044 0120     		movs	r0, #1
 377              	.LVL23:
 205:Drivers/STM32F0xx_HAL_Driver/Src/stm32f0xx_hal_dma.c ****   }
 378              		.loc 1 205 12 view .LVU134
 379 0046 FCE7     		b	.L14
 380              		.cfi_endproc
 381              	.LFE41:
 383              		.section	.text.HAL_DMA_Start,"ax",%progbits
 384              		.align	1
 385              		.global	HAL_DMA_Start
 386              		.syntax unified
 387              		.code	16
 388              		.thumb_func
 390              	HAL_DMA_Start:
 391              	.LVL24:
 392              	.LFB42:
ARM GAS  C:\Users\Password\AppData\Local\Temp\ccJqLrAb.s 			page 25


 283:Drivers/STM32F0xx_HAL_Driver/Src/stm32f0xx_hal_dma.c **** 	HAL_StatusTypeDef status = HAL_OK;
 393              		.loc 1 283 1 is_stmt 1 view -0
 394              		.cfi_startproc
 395              		@ args = 0, pretend = 0, frame = 0
 396              		@ frame_needed = 0, uses_anonymous_args = 0
 283:Drivers/STM32F0xx_HAL_Driver/Src/stm32f0xx_hal_dma.c **** 	HAL_StatusTypeDef status = HAL_OK;
 397              		.loc 1 283 1 is_stmt 0 view .LVU136
 398 0000 70B5     		push	{r4, r5, r6, lr}
 399              	.LCFI4:
 400              		.cfi_def_cfa_offset 16
 401              		.cfi_offset 4, -16
 402              		.cfi_offset 5, -12
 403              		.cfi_offset 6, -8
 404              		.cfi_offset 14, -4
 405 0002 0400     		movs	r4, r0
 284:Drivers/STM32F0xx_HAL_Driver/Src/stm32f0xx_hal_dma.c **** 
 406              		.loc 1 284 2 is_stmt 1 view .LVU137
 407              	.LVL25:
 287:Drivers/STM32F0xx_HAL_Driver/Src/stm32f0xx_hal_dma.c ****   
 408              		.loc 1 287 3 view .LVU138
 290:Drivers/STM32F0xx_HAL_Driver/Src/stm32f0xx_hal_dma.c ****   
 409              		.loc 1 290 3 view .LVU139
 290:Drivers/STM32F0xx_HAL_Driver/Src/stm32f0xx_hal_dma.c ****   
 410              		.loc 1 290 3 view .LVU140
 411 0004 2020     		movs	r0, #32
 412              	.LVL26:
 290:Drivers/STM32F0xx_HAL_Driver/Src/stm32f0xx_hal_dma.c ****   
 413              		.loc 1 290 3 is_stmt 0 view .LVU141
 414 0006 205C     		ldrb	r0, [r4, r0]
 415 0008 0128     		cmp	r0, #1
 416 000a 1ED0     		beq	.L19
 290:Drivers/STM32F0xx_HAL_Driver/Src/stm32f0xx_hal_dma.c ****   
 417              		.loc 1 290 3 is_stmt 1 discriminator 2 view .LVU142
 418 000c 2020     		movs	r0, #32
 419 000e 0125     		movs	r5, #1
 420 0010 2554     		strb	r5, [r4, r0]
 290:Drivers/STM32F0xx_HAL_Driver/Src/stm32f0xx_hal_dma.c ****   
 421              		.loc 1 290 3 discriminator 2 view .LVU143
 292:Drivers/STM32F0xx_HAL_Driver/Src/stm32f0xx_hal_dma.c ****   {
 422              		.loc 1 292 3 discriminator 2 view .LVU144
 292:Drivers/STM32F0xx_HAL_Driver/Src/stm32f0xx_hal_dma.c ****   {
 423              		.loc 1 292 33 is_stmt 0 discriminator 2 view .LVU145
 424 0012 0130     		adds	r0, r0, #1
 425 0014 205C     		ldrb	r0, [r4, r0]
 292:Drivers/STM32F0xx_HAL_Driver/Src/stm32f0xx_hal_dma.c ****   {
 426              		.loc 1 292 5 discriminator 2 view .LVU146
 427 0016 0128     		cmp	r0, #1
 428 0018 04D0     		beq	.L20
 311:Drivers/STM32F0xx_HAL_Driver/Src/stm32f0xx_hal_dma.c ****   	
 429              		.loc 1 311 4 is_stmt 1 view .LVU147
 311:Drivers/STM32F0xx_HAL_Driver/Src/stm32f0xx_hal_dma.c ****   	
 430              		.loc 1 311 4 view .LVU148
 431 001a 2023     		movs	r3, #32
 432              	.LVL27:
 311:Drivers/STM32F0xx_HAL_Driver/Src/stm32f0xx_hal_dma.c ****   	
 433              		.loc 1 311 4 is_stmt 0 view .LVU149
 434 001c 0022     		movs	r2, #0
ARM GAS  C:\Users\Password\AppData\Local\Temp\ccJqLrAb.s 			page 26


 435              	.LVL28:
 311:Drivers/STM32F0xx_HAL_Driver/Src/stm32f0xx_hal_dma.c ****   	
 436              		.loc 1 311 4 view .LVU150
 437 001e E254     		strb	r2, [r4, r3]
 311:Drivers/STM32F0xx_HAL_Driver/Src/stm32f0xx_hal_dma.c ****   	
 438              		.loc 1 311 4 is_stmt 1 view .LVU151
 314:Drivers/STM32F0xx_HAL_Driver/Src/stm32f0xx_hal_dma.c ****   }  
 439              		.loc 1 314 4 view .LVU152
 440              	.LVL29:
 314:Drivers/STM32F0xx_HAL_Driver/Src/stm32f0xx_hal_dma.c ****   }  
 441              		.loc 1 314 11 is_stmt 0 view .LVU153
 442 0020 0220     		movs	r0, #2
 443              	.LVL30:
 444              	.L17:
 318:Drivers/STM32F0xx_HAL_Driver/Src/stm32f0xx_hal_dma.c **** 
 445              		.loc 1 318 1 view .LVU154
 446              		@ sp needed
 447              	.LVL31:
 318:Drivers/STM32F0xx_HAL_Driver/Src/stm32f0xx_hal_dma.c **** 
 448              		.loc 1 318 1 view .LVU155
 449 0022 70BD     		pop	{r4, r5, r6, pc}
 450              	.LVL32:
 451              	.L20:
 295:Drivers/STM32F0xx_HAL_Driver/Src/stm32f0xx_hal_dma.c ****   	
 452              		.loc 1 295 4 is_stmt 1 view .LVU156
 295:Drivers/STM32F0xx_HAL_Driver/Src/stm32f0xx_hal_dma.c ****   	
 453              		.loc 1 295 16 is_stmt 0 view .LVU157
 454 0024 2030     		adds	r0, r0, #32
 455 0026 0135     		adds	r5, r5, #1
 456 0028 2554     		strb	r5, [r4, r0]
 297:Drivers/STM32F0xx_HAL_Driver/Src/stm32f0xx_hal_dma.c ****   	
 457              		.loc 1 297 4 is_stmt 1 view .LVU158
 297:Drivers/STM32F0xx_HAL_Driver/Src/stm32f0xx_hal_dma.c ****   	
 458              		.loc 1 297 20 is_stmt 0 view .LVU159
 459 002a 0020     		movs	r0, #0
 460 002c A063     		str	r0, [r4, #56]
 300:Drivers/STM32F0xx_HAL_Driver/Src/stm32f0xx_hal_dma.c ****   	
 461              		.loc 1 300 4 is_stmt 1 view .LVU160
 300:Drivers/STM32F0xx_HAL_Driver/Src/stm32f0xx_hal_dma.c ****   	
 462              		.loc 1 300 8 is_stmt 0 view .LVU161
 463 002e 2668     		ldr	r6, [r4]
 300:Drivers/STM32F0xx_HAL_Driver/Src/stm32f0xx_hal_dma.c ****   	
 464              		.loc 1 300 24 view .LVU162
 465 0030 3068     		ldr	r0, [r6]
 466 0032 013D     		subs	r5, r5, #1
 467 0034 A843     		bics	r0, r5
 468 0036 3060     		str	r0, [r6]
 303:Drivers/STM32F0xx_HAL_Driver/Src/stm32f0xx_hal_dma.c ****   	
 469              		.loc 1 303 4 is_stmt 1 view .LVU163
 470 0038 2000     		movs	r0, r4
 471 003a FFF7FEFF 		bl	DMA_SetConfig
 472              	.LVL33:
 306:Drivers/STM32F0xx_HAL_Driver/Src/stm32f0xx_hal_dma.c ****   }
 473              		.loc 1 306 4 view .LVU164
 306:Drivers/STM32F0xx_HAL_Driver/Src/stm32f0xx_hal_dma.c ****   }
 474              		.loc 1 306 8 is_stmt 0 view .LVU165
 475 003e 2268     		ldr	r2, [r4]
ARM GAS  C:\Users\Password\AppData\Local\Temp\ccJqLrAb.s 			page 27


 306:Drivers/STM32F0xx_HAL_Driver/Src/stm32f0xx_hal_dma.c ****   }
 476              		.loc 1 306 24 view .LVU166
 477 0040 1368     		ldr	r3, [r2]
 478 0042 2B43     		orrs	r3, r5
 479 0044 1360     		str	r3, [r2]
 284:Drivers/STM32F0xx_HAL_Driver/Src/stm32f0xx_hal_dma.c **** 
 480              		.loc 1 284 20 view .LVU167
 481 0046 0020     		movs	r0, #0
 482 0048 EBE7     		b	.L17
 483              	.LVL34:
 484              	.L19:
 290:Drivers/STM32F0xx_HAL_Driver/Src/stm32f0xx_hal_dma.c ****   
 485              		.loc 1 290 3 view .LVU168
 486 004a 0220     		movs	r0, #2
 487 004c E9E7     		b	.L17
 488              		.cfi_endproc
 489              	.LFE42:
 491              		.section	.text.HAL_DMA_Start_IT,"ax",%progbits
 492              		.align	1
 493              		.global	HAL_DMA_Start_IT
 494              		.syntax unified
 495              		.code	16
 496              		.thumb_func
 498              	HAL_DMA_Start_IT:
 499              	.LVL35:
 500              	.LFB43:
 330:Drivers/STM32F0xx_HAL_Driver/Src/stm32f0xx_hal_dma.c **** 	HAL_StatusTypeDef status = HAL_OK;
 501              		.loc 1 330 1 is_stmt 1 view -0
 502              		.cfi_startproc
 503              		@ args = 0, pretend = 0, frame = 0
 504              		@ frame_needed = 0, uses_anonymous_args = 0
 330:Drivers/STM32F0xx_HAL_Driver/Src/stm32f0xx_hal_dma.c **** 	HAL_StatusTypeDef status = HAL_OK;
 505              		.loc 1 330 1 is_stmt 0 view .LVU170
 506 0000 70B5     		push	{r4, r5, r6, lr}
 507              	.LCFI5:
 508              		.cfi_def_cfa_offset 16
 509              		.cfi_offset 4, -16
 510              		.cfi_offset 5, -12
 511              		.cfi_offset 6, -8
 512              		.cfi_offset 14, -4
 513 0002 0400     		movs	r4, r0
 331:Drivers/STM32F0xx_HAL_Driver/Src/stm32f0xx_hal_dma.c **** 
 514              		.loc 1 331 2 is_stmt 1 view .LVU171
 515              	.LVL36:
 334:Drivers/STM32F0xx_HAL_Driver/Src/stm32f0xx_hal_dma.c ****   
 516              		.loc 1 334 3 view .LVU172
 337:Drivers/STM32F0xx_HAL_Driver/Src/stm32f0xx_hal_dma.c ****   
 517              		.loc 1 337 3 view .LVU173
 337:Drivers/STM32F0xx_HAL_Driver/Src/stm32f0xx_hal_dma.c ****   
 518              		.loc 1 337 3 view .LVU174
 519 0004 2020     		movs	r0, #32
 520              	.LVL37:
 337:Drivers/STM32F0xx_HAL_Driver/Src/stm32f0xx_hal_dma.c ****   
 521              		.loc 1 337 3 is_stmt 0 view .LVU175
 522 0006 205C     		ldrb	r0, [r4, r0]
 523 0008 0128     		cmp	r0, #1
 524 000a 32D0     		beq	.L26
ARM GAS  C:\Users\Password\AppData\Local\Temp\ccJqLrAb.s 			page 28


 337:Drivers/STM32F0xx_HAL_Driver/Src/stm32f0xx_hal_dma.c ****   
 525              		.loc 1 337 3 is_stmt 1 discriminator 2 view .LVU176
 526 000c 2020     		movs	r0, #32
 527 000e 0125     		movs	r5, #1
 528 0010 2554     		strb	r5, [r4, r0]
 337:Drivers/STM32F0xx_HAL_Driver/Src/stm32f0xx_hal_dma.c ****   
 529              		.loc 1 337 3 discriminator 2 view .LVU177
 339:Drivers/STM32F0xx_HAL_Driver/Src/stm32f0xx_hal_dma.c ****   {
 530              		.loc 1 339 3 discriminator 2 view .LVU178
 339:Drivers/STM32F0xx_HAL_Driver/Src/stm32f0xx_hal_dma.c ****   {
 531              		.loc 1 339 33 is_stmt 0 discriminator 2 view .LVU179
 532 0012 0130     		adds	r0, r0, #1
 533 0014 205C     		ldrb	r0, [r4, r0]
 339:Drivers/STM32F0xx_HAL_Driver/Src/stm32f0xx_hal_dma.c ****   {
 534              		.loc 1 339 5 discriminator 2 view .LVU180
 535 0016 0128     		cmp	r0, #1
 536 0018 04D0     		beq	.L27
 370:Drivers/STM32F0xx_HAL_Driver/Src/stm32f0xx_hal_dma.c ****   
 537              		.loc 1 370 5 is_stmt 1 view .LVU181
 370:Drivers/STM32F0xx_HAL_Driver/Src/stm32f0xx_hal_dma.c ****   
 538              		.loc 1 370 5 view .LVU182
 539 001a 2023     		movs	r3, #32
 540              	.LVL38:
 370:Drivers/STM32F0xx_HAL_Driver/Src/stm32f0xx_hal_dma.c ****   
 541              		.loc 1 370 5 is_stmt 0 view .LVU183
 542 001c 0022     		movs	r2, #0
 543              	.LVL39:
 370:Drivers/STM32F0xx_HAL_Driver/Src/stm32f0xx_hal_dma.c ****   
 544              		.loc 1 370 5 view .LVU184
 545 001e E254     		strb	r2, [r4, r3]
 370:Drivers/STM32F0xx_HAL_Driver/Src/stm32f0xx_hal_dma.c ****   
 546              		.loc 1 370 5 is_stmt 1 view .LVU185
 373:Drivers/STM32F0xx_HAL_Driver/Src/stm32f0xx_hal_dma.c ****   }     
 547              		.loc 1 373 5 view .LVU186
 548              	.LVL40:
 373:Drivers/STM32F0xx_HAL_Driver/Src/stm32f0xx_hal_dma.c ****   }     
 549              		.loc 1 373 12 is_stmt 0 view .LVU187
 550 0020 0220     		movs	r0, #2
 551              	.LVL41:
 552              	.L22:
 377:Drivers/STM32F0xx_HAL_Driver/Src/stm32f0xx_hal_dma.c **** 
 553              		.loc 1 377 1 view .LVU188
 554              		@ sp needed
 555              	.LVL42:
 377:Drivers/STM32F0xx_HAL_Driver/Src/stm32f0xx_hal_dma.c **** 
 556              		.loc 1 377 1 view .LVU189
 557 0022 70BD     		pop	{r4, r5, r6, pc}
 558              	.LVL43:
 559              	.L27:
 342:Drivers/STM32F0xx_HAL_Driver/Src/stm32f0xx_hal_dma.c ****   	
 560              		.loc 1 342 4 is_stmt 1 view .LVU190
 342:Drivers/STM32F0xx_HAL_Driver/Src/stm32f0xx_hal_dma.c ****   	
 561              		.loc 1 342 16 is_stmt 0 view .LVU191
 562 0024 2030     		adds	r0, r0, #32
 563 0026 0135     		adds	r5, r5, #1
 564 0028 2554     		strb	r5, [r4, r0]
 344:Drivers/STM32F0xx_HAL_Driver/Src/stm32f0xx_hal_dma.c ****   	
ARM GAS  C:\Users\Password\AppData\Local\Temp\ccJqLrAb.s 			page 29


 565              		.loc 1 344 4 is_stmt 1 view .LVU192
 344:Drivers/STM32F0xx_HAL_Driver/Src/stm32f0xx_hal_dma.c ****   	
 566              		.loc 1 344 20 is_stmt 0 view .LVU193
 567 002a 0020     		movs	r0, #0
 568 002c A063     		str	r0, [r4, #56]
 347:Drivers/STM32F0xx_HAL_Driver/Src/stm32f0xx_hal_dma.c ****   	
 569              		.loc 1 347 4 is_stmt 1 view .LVU194
 347:Drivers/STM32F0xx_HAL_Driver/Src/stm32f0xx_hal_dma.c ****   	
 570              		.loc 1 347 8 is_stmt 0 view .LVU195
 571 002e 2568     		ldr	r5, [r4]
 347:Drivers/STM32F0xx_HAL_Driver/Src/stm32f0xx_hal_dma.c ****   	
 572              		.loc 1 347 24 view .LVU196
 573 0030 2868     		ldr	r0, [r5]
 574 0032 0126     		movs	r6, #1
 575 0034 B043     		bics	r0, r6
 576 0036 2860     		str	r0, [r5]
 350:Drivers/STM32F0xx_HAL_Driver/Src/stm32f0xx_hal_dma.c ****   	
 577              		.loc 1 350 4 is_stmt 1 view .LVU197
 578 0038 2000     		movs	r0, r4
 579 003a FFF7FEFF 		bl	DMA_SetConfig
 580              	.LVL44:
 354:Drivers/STM32F0xx_HAL_Driver/Src/stm32f0xx_hal_dma.c ****     {
 581              		.loc 1 354 5 view .LVU198
 354:Drivers/STM32F0xx_HAL_Driver/Src/stm32f0xx_hal_dma.c ****     {
 582              		.loc 1 354 20 is_stmt 0 view .LVU199
 583 003e E36A     		ldr	r3, [r4, #44]
 354:Drivers/STM32F0xx_HAL_Driver/Src/stm32f0xx_hal_dma.c ****     {
 584              		.loc 1 354 7 view .LVU200
 585 0040 002B     		cmp	r3, #0
 586 0042 0BD0     		beq	.L24
 356:Drivers/STM32F0xx_HAL_Driver/Src/stm32f0xx_hal_dma.c ****     }
 587              		.loc 1 356 7 is_stmt 1 view .LVU201
 356:Drivers/STM32F0xx_HAL_Driver/Src/stm32f0xx_hal_dma.c ****     }
 588              		.loc 1 356 11 is_stmt 0 view .LVU202
 589 0044 2268     		ldr	r2, [r4]
 356:Drivers/STM32F0xx_HAL_Driver/Src/stm32f0xx_hal_dma.c ****     }
 590              		.loc 1 356 27 view .LVU203
 591 0046 1368     		ldr	r3, [r2]
 592 0048 0E21     		movs	r1, #14
 593 004a 0B43     		orrs	r3, r1
 594 004c 1360     		str	r3, [r2]
 595              	.L25:
 365:Drivers/STM32F0xx_HAL_Driver/Src/stm32f0xx_hal_dma.c ****   }
 596              		.loc 1 365 4 is_stmt 1 view .LVU204
 365:Drivers/STM32F0xx_HAL_Driver/Src/stm32f0xx_hal_dma.c ****   }
 597              		.loc 1 365 8 is_stmt 0 view .LVU205
 598 004e 2268     		ldr	r2, [r4]
 365:Drivers/STM32F0xx_HAL_Driver/Src/stm32f0xx_hal_dma.c ****   }
 599              		.loc 1 365 24 view .LVU206
 600 0050 1368     		ldr	r3, [r2]
 601 0052 0121     		movs	r1, #1
 602 0054 0B43     		orrs	r3, r1
 603 0056 1360     		str	r3, [r2]
 331:Drivers/STM32F0xx_HAL_Driver/Src/stm32f0xx_hal_dma.c **** 
 604              		.loc 1 331 20 view .LVU207
 605 0058 0020     		movs	r0, #0
 606 005a E2E7     		b	.L22
ARM GAS  C:\Users\Password\AppData\Local\Temp\ccJqLrAb.s 			page 30


 607              	.L24:
 360:Drivers/STM32F0xx_HAL_Driver/Src/stm32f0xx_hal_dma.c ****   		hdma->Instance->CCR &= ~DMA_IT_HT;
 608              		.loc 1 360 5 is_stmt 1 view .LVU208
 360:Drivers/STM32F0xx_HAL_Driver/Src/stm32f0xx_hal_dma.c ****   		hdma->Instance->CCR &= ~DMA_IT_HT;
 609              		.loc 1 360 9 is_stmt 0 view .LVU209
 610 005c 2268     		ldr	r2, [r4]
 360:Drivers/STM32F0xx_HAL_Driver/Src/stm32f0xx_hal_dma.c ****   		hdma->Instance->CCR &= ~DMA_IT_HT;
 611              		.loc 1 360 25 view .LVU210
 612 005e 1368     		ldr	r3, [r2]
 613 0060 0A21     		movs	r1, #10
 614 0062 0B43     		orrs	r3, r1
 615 0064 1360     		str	r3, [r2]
 361:Drivers/STM32F0xx_HAL_Driver/Src/stm32f0xx_hal_dma.c ****   	}
 616              		.loc 1 361 5 is_stmt 1 view .LVU211
 361:Drivers/STM32F0xx_HAL_Driver/Src/stm32f0xx_hal_dma.c ****   	}
 617              		.loc 1 361 9 is_stmt 0 view .LVU212
 618 0066 2268     		ldr	r2, [r4]
 361:Drivers/STM32F0xx_HAL_Driver/Src/stm32f0xx_hal_dma.c ****   	}
 619              		.loc 1 361 25 view .LVU213
 620 0068 1368     		ldr	r3, [r2]
 621 006a 0639     		subs	r1, r1, #6
 622 006c 8B43     		bics	r3, r1
 623 006e 1360     		str	r3, [r2]
 624 0070 EDE7     		b	.L25
 625              	.LVL45:
 626              	.L26:
 337:Drivers/STM32F0xx_HAL_Driver/Src/stm32f0xx_hal_dma.c ****   
 627              		.loc 1 337 3 view .LVU214
 628 0072 0220     		movs	r0, #2
 629 0074 D5E7     		b	.L22
 630              		.cfi_endproc
 631              	.LFE43:
 633              		.section	.text.HAL_DMA_Abort,"ax",%progbits
 634              		.align	1
 635              		.global	HAL_DMA_Abort
 636              		.syntax unified
 637              		.code	16
 638              		.thumb_func
 640              	HAL_DMA_Abort:
 641              	.LVL46:
 642              	.LFB44:
 386:Drivers/STM32F0xx_HAL_Driver/Src/stm32f0xx_hal_dma.c ****   if(hdma->State != HAL_DMA_STATE_BUSY)
 643              		.loc 1 386 1 is_stmt 1 view -0
 644              		.cfi_startproc
 645              		@ args = 0, pretend = 0, frame = 0
 646              		@ frame_needed = 0, uses_anonymous_args = 0
 386:Drivers/STM32F0xx_HAL_Driver/Src/stm32f0xx_hal_dma.c ****   if(hdma->State != HAL_DMA_STATE_BUSY)
 647              		.loc 1 386 1 is_stmt 0 view .LVU216
 648 0000 10B5     		push	{r4, lr}
 649              	.LCFI6:
 650              		.cfi_def_cfa_offset 8
 651              		.cfi_offset 4, -8
 652              		.cfi_offset 14, -4
 387:Drivers/STM32F0xx_HAL_Driver/Src/stm32f0xx_hal_dma.c ****   {
 653              		.loc 1 387 3 is_stmt 1 view .LVU217
 387:Drivers/STM32F0xx_HAL_Driver/Src/stm32f0xx_hal_dma.c ****   {
 654              		.loc 1 387 10 is_stmt 0 view .LVU218
ARM GAS  C:\Users\Password\AppData\Local\Temp\ccJqLrAb.s 			page 31


 655 0002 2123     		movs	r3, #33
 656 0004 C35C     		ldrb	r3, [r0, r3]
 387:Drivers/STM32F0xx_HAL_Driver/Src/stm32f0xx_hal_dma.c ****   {
 657              		.loc 1 387 5 view .LVU219
 658 0006 022B     		cmp	r3, #2
 659 0008 06D0     		beq	.L29
 390:Drivers/STM32F0xx_HAL_Driver/Src/stm32f0xx_hal_dma.c ****     
 660              		.loc 1 390 5 is_stmt 1 view .LVU220
 390:Drivers/STM32F0xx_HAL_Driver/Src/stm32f0xx_hal_dma.c ****     
 661              		.loc 1 390 21 is_stmt 0 view .LVU221
 662 000a 0423     		movs	r3, #4
 663 000c 8363     		str	r3, [r0, #56]
 393:Drivers/STM32F0xx_HAL_Driver/Src/stm32f0xx_hal_dma.c ****     
 664              		.loc 1 393 5 is_stmt 1 view .LVU222
 393:Drivers/STM32F0xx_HAL_Driver/Src/stm32f0xx_hal_dma.c ****     
 665              		.loc 1 393 5 view .LVU223
 666 000e 1C33     		adds	r3, r3, #28
 667 0010 0022     		movs	r2, #0
 668 0012 C254     		strb	r2, [r0, r3]
 393:Drivers/STM32F0xx_HAL_Driver/Src/stm32f0xx_hal_dma.c ****     
 669              		.loc 1 393 5 view .LVU224
 395:Drivers/STM32F0xx_HAL_Driver/Src/stm32f0xx_hal_dma.c ****   }
 670              		.loc 1 395 5 view .LVU225
 395:Drivers/STM32F0xx_HAL_Driver/Src/stm32f0xx_hal_dma.c ****   }
 671              		.loc 1 395 12 is_stmt 0 view .LVU226
 672 0014 0120     		movs	r0, #1
 673              	.LVL47:
 674              	.L30:
 415:Drivers/STM32F0xx_HAL_Driver/Src/stm32f0xx_hal_dma.c **** 
 675              		.loc 1 415 1 view .LVU227
 676              		@ sp needed
 677 0016 10BD     		pop	{r4, pc}
 678              	.LVL48:
 679              	.L29:
 400:Drivers/STM32F0xx_HAL_Driver/Src/stm32f0xx_hal_dma.c ****     
 680              		.loc 1 400 5 is_stmt 1 view .LVU228
 400:Drivers/STM32F0xx_HAL_Driver/Src/stm32f0xx_hal_dma.c ****     
 681              		.loc 1 400 9 is_stmt 0 view .LVU229
 682 0018 0268     		ldr	r2, [r0]
 400:Drivers/STM32F0xx_HAL_Driver/Src/stm32f0xx_hal_dma.c ****     
 683              		.loc 1 400 25 view .LVU230
 684 001a 1368     		ldr	r3, [r2]
 685 001c 0E21     		movs	r1, #14
 686 001e 8B43     		bics	r3, r1
 687 0020 1360     		str	r3, [r2]
 403:Drivers/STM32F0xx_HAL_Driver/Src/stm32f0xx_hal_dma.c ****     
 688              		.loc 1 403 5 is_stmt 1 view .LVU231
 403:Drivers/STM32F0xx_HAL_Driver/Src/stm32f0xx_hal_dma.c ****     
 689              		.loc 1 403 9 is_stmt 0 view .LVU232
 690 0022 0168     		ldr	r1, [r0]
 403:Drivers/STM32F0xx_HAL_Driver/Src/stm32f0xx_hal_dma.c ****     
 691              		.loc 1 403 25 view .LVU233
 692 0024 0A68     		ldr	r2, [r1]
 693 0026 0123     		movs	r3, #1
 694 0028 9A43     		bics	r2, r3
 695 002a 0A60     		str	r2, [r1]
 406:Drivers/STM32F0xx_HAL_Driver/Src/stm32f0xx_hal_dma.c ****   }
ARM GAS  C:\Users\Password\AppData\Local\Temp\ccJqLrAb.s 			page 32


 696              		.loc 1 406 5 is_stmt 1 view .LVU234
 406:Drivers/STM32F0xx_HAL_Driver/Src/stm32f0xx_hal_dma.c ****   }
 697              		.loc 1 406 55 is_stmt 0 view .LVU235
 698 002c 016C     		ldr	r1, [r0, #64]
 406:Drivers/STM32F0xx_HAL_Driver/Src/stm32f0xx_hal_dma.c ****   }
 699              		.loc 1 406 9 view .LVU236
 700 002e C26B     		ldr	r2, [r0, #60]
 406:Drivers/STM32F0xx_HAL_Driver/Src/stm32f0xx_hal_dma.c ****   }
 701              		.loc 1 406 48 view .LVU237
 702 0030 1C00     		movs	r4, r3
 703 0032 8C40     		lsls	r4, r4, r1
 406:Drivers/STM32F0xx_HAL_Driver/Src/stm32f0xx_hal_dma.c ****   }
 704              		.loc 1 406 32 view .LVU238
 705 0034 5460     		str	r4, [r2, #4]
 409:Drivers/STM32F0xx_HAL_Driver/Src/stm32f0xx_hal_dma.c ****   
 706              		.loc 1 409 3 is_stmt 1 view .LVU239
 409:Drivers/STM32F0xx_HAL_Driver/Src/stm32f0xx_hal_dma.c ****   
 707              		.loc 1 409 15 is_stmt 0 view .LVU240
 708 0036 2122     		movs	r2, #33
 709 0038 8354     		strb	r3, [r0, r2]
 412:Drivers/STM32F0xx_HAL_Driver/Src/stm32f0xx_hal_dma.c ****   
 710              		.loc 1 412 3 is_stmt 1 view .LVU241
 412:Drivers/STM32F0xx_HAL_Driver/Src/stm32f0xx_hal_dma.c ****   
 711              		.loc 1 412 3 view .LVU242
 712 003a 1F33     		adds	r3, r3, #31
 713 003c 0022     		movs	r2, #0
 714 003e C254     		strb	r2, [r0, r3]
 412:Drivers/STM32F0xx_HAL_Driver/Src/stm32f0xx_hal_dma.c ****   
 715              		.loc 1 412 3 view .LVU243
 414:Drivers/STM32F0xx_HAL_Driver/Src/stm32f0xx_hal_dma.c **** }
 716              		.loc 1 414 3 view .LVU244
 414:Drivers/STM32F0xx_HAL_Driver/Src/stm32f0xx_hal_dma.c **** }
 717              		.loc 1 414 10 is_stmt 0 view .LVU245
 718 0040 0020     		movs	r0, #0
 719              	.LVL49:
 414:Drivers/STM32F0xx_HAL_Driver/Src/stm32f0xx_hal_dma.c **** }
 720              		.loc 1 414 10 view .LVU246
 721 0042 E8E7     		b	.L30
 722              		.cfi_endproc
 723              	.LFE44:
 725              		.section	.text.HAL_DMA_Abort_IT,"ax",%progbits
 726              		.align	1
 727              		.global	HAL_DMA_Abort_IT
 728              		.syntax unified
 729              		.code	16
 730              		.thumb_func
 732              	HAL_DMA_Abort_IT:
 733              	.LVL50:
 734              	.LFB45:
 424:Drivers/STM32F0xx_HAL_Driver/Src/stm32f0xx_hal_dma.c ****   HAL_StatusTypeDef status = HAL_OK;
 735              		.loc 1 424 1 is_stmt 1 view -0
 736              		.cfi_startproc
 737              		@ args = 0, pretend = 0, frame = 0
 738              		@ frame_needed = 0, uses_anonymous_args = 0
 424:Drivers/STM32F0xx_HAL_Driver/Src/stm32f0xx_hal_dma.c ****   HAL_StatusTypeDef status = HAL_OK;
 739              		.loc 1 424 1 is_stmt 0 view .LVU248
 740 0000 10B5     		push	{r4, lr}
ARM GAS  C:\Users\Password\AppData\Local\Temp\ccJqLrAb.s 			page 33


 741              	.LCFI7:
 742              		.cfi_def_cfa_offset 8
 743              		.cfi_offset 4, -8
 744              		.cfi_offset 14, -4
 425:Drivers/STM32F0xx_HAL_Driver/Src/stm32f0xx_hal_dma.c ****   
 745              		.loc 1 425 3 is_stmt 1 view .LVU249
 746              	.LVL51:
 427:Drivers/STM32F0xx_HAL_Driver/Src/stm32f0xx_hal_dma.c ****   {
 747              		.loc 1 427 3 view .LVU250
 427:Drivers/STM32F0xx_HAL_Driver/Src/stm32f0xx_hal_dma.c ****   {
 748              		.loc 1 427 32 is_stmt 0 view .LVU251
 749 0002 2123     		movs	r3, #33
 750 0004 C35C     		ldrb	r3, [r0, r3]
 427:Drivers/STM32F0xx_HAL_Driver/Src/stm32f0xx_hal_dma.c ****   {
 751              		.loc 1 427 5 view .LVU252
 752 0006 022B     		cmp	r3, #2
 753 0008 03D0     		beq	.L32
 430:Drivers/STM32F0xx_HAL_Driver/Src/stm32f0xx_hal_dma.c ****         
 754              		.loc 1 430 5 is_stmt 1 view .LVU253
 430:Drivers/STM32F0xx_HAL_Driver/Src/stm32f0xx_hal_dma.c ****         
 755              		.loc 1 430 21 is_stmt 0 view .LVU254
 756 000a 0423     		movs	r3, #4
 757 000c 8363     		str	r3, [r0, #56]
 432:Drivers/STM32F0xx_HAL_Driver/Src/stm32f0xx_hal_dma.c ****   }
 758              		.loc 1 432 5 is_stmt 1 view .LVU255
 759              	.LVL52:
 432:Drivers/STM32F0xx_HAL_Driver/Src/stm32f0xx_hal_dma.c ****   }
 760              		.loc 1 432 12 is_stmt 0 view .LVU256
 761 000e 0120     		movs	r0, #1
 762              	.LVL53:
 763              	.L33:
 458:Drivers/STM32F0xx_HAL_Driver/Src/stm32f0xx_hal_dma.c **** }
 764              		.loc 1 458 3 is_stmt 1 view .LVU257
 459:Drivers/STM32F0xx_HAL_Driver/Src/stm32f0xx_hal_dma.c **** 
 765              		.loc 1 459 1 is_stmt 0 view .LVU258
 766              		@ sp needed
 767 0010 10BD     		pop	{r4, pc}
 768              	.LVL54:
 769              	.L32:
 438:Drivers/STM32F0xx_HAL_Driver/Src/stm32f0xx_hal_dma.c ****     
 770              		.loc 1 438 5 is_stmt 1 view .LVU259
 438:Drivers/STM32F0xx_HAL_Driver/Src/stm32f0xx_hal_dma.c ****     
 771              		.loc 1 438 9 is_stmt 0 view .LVU260
 772 0012 0268     		ldr	r2, [r0]
 438:Drivers/STM32F0xx_HAL_Driver/Src/stm32f0xx_hal_dma.c ****     
 773              		.loc 1 438 25 view .LVU261
 774 0014 1368     		ldr	r3, [r2]
 775 0016 0E21     		movs	r1, #14
 776 0018 8B43     		bics	r3, r1
 777 001a 1360     		str	r3, [r2]
 441:Drivers/STM32F0xx_HAL_Driver/Src/stm32f0xx_hal_dma.c ****     
 778              		.loc 1 441 5 is_stmt 1 view .LVU262
 441:Drivers/STM32F0xx_HAL_Driver/Src/stm32f0xx_hal_dma.c ****     
 779              		.loc 1 441 9 is_stmt 0 view .LVU263
 780 001c 0168     		ldr	r1, [r0]
 441:Drivers/STM32F0xx_HAL_Driver/Src/stm32f0xx_hal_dma.c ****     
 781              		.loc 1 441 25 view .LVU264
ARM GAS  C:\Users\Password\AppData\Local\Temp\ccJqLrAb.s 			page 34


 782 001e 0A68     		ldr	r2, [r1]
 783 0020 0123     		movs	r3, #1
 784 0022 9A43     		bics	r2, r3
 785 0024 0A60     		str	r2, [r1]
 444:Drivers/STM32F0xx_HAL_Driver/Src/stm32f0xx_hal_dma.c ****     
 786              		.loc 1 444 5 is_stmt 1 view .LVU265
 444:Drivers/STM32F0xx_HAL_Driver/Src/stm32f0xx_hal_dma.c ****     
 787              		.loc 1 444 54 is_stmt 0 view .LVU266
 788 0026 016C     		ldr	r1, [r0, #64]
 444:Drivers/STM32F0xx_HAL_Driver/Src/stm32f0xx_hal_dma.c ****     
 789              		.loc 1 444 9 view .LVU267
 790 0028 C26B     		ldr	r2, [r0, #60]
 444:Drivers/STM32F0xx_HAL_Driver/Src/stm32f0xx_hal_dma.c ****     
 791              		.loc 1 444 47 view .LVU268
 792 002a 1C00     		movs	r4, r3
 793 002c 8C40     		lsls	r4, r4, r1
 444:Drivers/STM32F0xx_HAL_Driver/Src/stm32f0xx_hal_dma.c ****     
 794              		.loc 1 444 32 view .LVU269
 795 002e 5460     		str	r4, [r2, #4]
 447:Drivers/STM32F0xx_HAL_Driver/Src/stm32f0xx_hal_dma.c ****     
 796              		.loc 1 447 5 is_stmt 1 view .LVU270
 447:Drivers/STM32F0xx_HAL_Driver/Src/stm32f0xx_hal_dma.c ****     
 797              		.loc 1 447 17 is_stmt 0 view .LVU271
 798 0030 2122     		movs	r2, #33
 799 0032 8354     		strb	r3, [r0, r2]
 450:Drivers/STM32F0xx_HAL_Driver/Src/stm32f0xx_hal_dma.c ****     
 800              		.loc 1 450 5 is_stmt 1 view .LVU272
 450:Drivers/STM32F0xx_HAL_Driver/Src/stm32f0xx_hal_dma.c ****     
 801              		.loc 1 450 5 view .LVU273
 802 0034 1F33     		adds	r3, r3, #31
 803 0036 0022     		movs	r2, #0
 804 0038 C254     		strb	r2, [r0, r3]
 450:Drivers/STM32F0xx_HAL_Driver/Src/stm32f0xx_hal_dma.c ****     
 805              		.loc 1 450 5 view .LVU274
 453:Drivers/STM32F0xx_HAL_Driver/Src/stm32f0xx_hal_dma.c ****     {
 806              		.loc 1 453 5 view .LVU275
 453:Drivers/STM32F0xx_HAL_Driver/Src/stm32f0xx_hal_dma.c ****     {
 807              		.loc 1 453 12 is_stmt 0 view .LVU276
 808 003a 436B     		ldr	r3, [r0, #52]
 453:Drivers/STM32F0xx_HAL_Driver/Src/stm32f0xx_hal_dma.c ****     {
 809              		.loc 1 453 7 view .LVU277
 810 003c 002B     		cmp	r3, #0
 811 003e 02D0     		beq	.L34
 455:Drivers/STM32F0xx_HAL_Driver/Src/stm32f0xx_hal_dma.c ****     } 
 812              		.loc 1 455 7 is_stmt 1 view .LVU278
 813 0040 9847     		blx	r3
 814              	.LVL55:
 425:Drivers/STM32F0xx_HAL_Driver/Src/stm32f0xx_hal_dma.c ****   
 815              		.loc 1 425 21 is_stmt 0 view .LVU279
 816 0042 0020     		movs	r0, #0
 817 0044 E4E7     		b	.L33
 818              	.LVL56:
 819              	.L34:
 425:Drivers/STM32F0xx_HAL_Driver/Src/stm32f0xx_hal_dma.c ****   
 820              		.loc 1 425 21 view .LVU280
 821 0046 0020     		movs	r0, #0
 822              	.LVL57:
ARM GAS  C:\Users\Password\AppData\Local\Temp\ccJqLrAb.s 			page 35


 425:Drivers/STM32F0xx_HAL_Driver/Src/stm32f0xx_hal_dma.c ****   
 823              		.loc 1 425 21 view .LVU281
 824 0048 E2E7     		b	.L33
 825              		.cfi_endproc
 826              	.LFE45:
 828              		.section	.text.HAL_DMA_PollForTransfer,"ax",%progbits
 829              		.align	1
 830              		.global	HAL_DMA_PollForTransfer
 831              		.syntax unified
 832              		.code	16
 833              		.thumb_func
 835              	HAL_DMA_PollForTransfer:
 836              	.LVL58:
 837              	.LFB46:
 470:Drivers/STM32F0xx_HAL_Driver/Src/stm32f0xx_hal_dma.c ****   uint32_t temp;
 838              		.loc 1 470 1 is_stmt 1 view -0
 839              		.cfi_startproc
 840              		@ args = 0, pretend = 0, frame = 8
 841              		@ frame_needed = 0, uses_anonymous_args = 0
 470:Drivers/STM32F0xx_HAL_Driver/Src/stm32f0xx_hal_dma.c ****   uint32_t temp;
 842              		.loc 1 470 1 is_stmt 0 view .LVU283
 843 0000 F0B5     		push	{r4, r5, r6, r7, lr}
 844              	.LCFI8:
 845              		.cfi_def_cfa_offset 20
 846              		.cfi_offset 4, -20
 847              		.cfi_offset 5, -16
 848              		.cfi_offset 6, -12
 849              		.cfi_offset 7, -8
 850              		.cfi_offset 14, -4
 851 0002 83B0     		sub	sp, sp, #12
 852              	.LCFI9:
 853              		.cfi_def_cfa_offset 32
 854 0004 0600     		movs	r6, r0
 855 0006 0C00     		movs	r4, r1
 856 0008 1700     		movs	r7, r2
 471:Drivers/STM32F0xx_HAL_Driver/Src/stm32f0xx_hal_dma.c ****   uint32_t tickstart = 0U;
 857              		.loc 1 471 3 is_stmt 1 view .LVU284
 472:Drivers/STM32F0xx_HAL_Driver/Src/stm32f0xx_hal_dma.c ****   
 858              		.loc 1 472 3 view .LVU285
 859              	.LVL59:
 474:Drivers/STM32F0xx_HAL_Driver/Src/stm32f0xx_hal_dma.c ****   {
 860              		.loc 1 474 3 view .LVU286
 474:Drivers/STM32F0xx_HAL_Driver/Src/stm32f0xx_hal_dma.c ****   {
 861              		.loc 1 474 32 is_stmt 0 view .LVU287
 862 000a 2123     		movs	r3, #33
 863 000c C35C     		ldrb	r3, [r0, r3]
 474:Drivers/STM32F0xx_HAL_Driver/Src/stm32f0xx_hal_dma.c ****   {
 864              		.loc 1 474 5 view .LVU288
 865 000e 022B     		cmp	r3, #2
 866 0010 07D0     		beq	.L36
 477:Drivers/STM32F0xx_HAL_Driver/Src/stm32f0xx_hal_dma.c ****     __HAL_UNLOCK(hdma);
 867              		.loc 1 477 5 is_stmt 1 view .LVU289
 477:Drivers/STM32F0xx_HAL_Driver/Src/stm32f0xx_hal_dma.c ****     __HAL_UNLOCK(hdma);
 868              		.loc 1 477 21 is_stmt 0 view .LVU290
 869 0012 0423     		movs	r3, #4
 870 0014 8363     		str	r3, [r0, #56]
 478:Drivers/STM32F0xx_HAL_Driver/Src/stm32f0xx_hal_dma.c ****     return HAL_ERROR;
ARM GAS  C:\Users\Password\AppData\Local\Temp\ccJqLrAb.s 			page 36


 871              		.loc 1 478 5 is_stmt 1 view .LVU291
 478:Drivers/STM32F0xx_HAL_Driver/Src/stm32f0xx_hal_dma.c ****     return HAL_ERROR;
 872              		.loc 1 478 5 view .LVU292
 873 0016 1C33     		adds	r3, r3, #28
 874 0018 0022     		movs	r2, #0
 875              	.LVL60:
 478:Drivers/STM32F0xx_HAL_Driver/Src/stm32f0xx_hal_dma.c ****     return HAL_ERROR;
 876              		.loc 1 478 5 is_stmt 0 view .LVU293
 877 001a C254     		strb	r2, [r0, r3]
 478:Drivers/STM32F0xx_HAL_Driver/Src/stm32f0xx_hal_dma.c ****     return HAL_ERROR;
 878              		.loc 1 478 5 is_stmt 1 view .LVU294
 479:Drivers/STM32F0xx_HAL_Driver/Src/stm32f0xx_hal_dma.c ****   }
 879              		.loc 1 479 5 view .LVU295
 479:Drivers/STM32F0xx_HAL_Driver/Src/stm32f0xx_hal_dma.c ****   }
 880              		.loc 1 479 12 is_stmt 0 view .LVU296
 881 001c 0120     		movs	r0, #1
 882              	.LVL61:
 883              	.L37:
 562:Drivers/STM32F0xx_HAL_Driver/Src/stm32f0xx_hal_dma.c **** 
 884              		.loc 1 562 1 view .LVU297
 885 001e 03B0     		add	sp, sp, #12
 886              		@ sp needed
 887              	.LVL62:
 888              	.LVL63:
 889              	.LVL64:
 562:Drivers/STM32F0xx_HAL_Driver/Src/stm32f0xx_hal_dma.c **** 
 890              		.loc 1 562 1 view .LVU298
 891 0020 F0BD     		pop	{r4, r5, r6, r7, pc}
 892              	.LVL65:
 893              	.L36:
 483:Drivers/STM32F0xx_HAL_Driver/Src/stm32f0xx_hal_dma.c ****   {
 894              		.loc 1 483 3 is_stmt 1 view .LVU299
 483:Drivers/STM32F0xx_HAL_Driver/Src/stm32f0xx_hal_dma.c ****   {
 895              		.loc 1 483 21 is_stmt 0 view .LVU300
 896 0022 0368     		ldr	r3, [r0]
 483:Drivers/STM32F0xx_HAL_Driver/Src/stm32f0xx_hal_dma.c ****   {
 897              		.loc 1 483 31 view .LVU301
 898 0024 1B68     		ldr	r3, [r3]
 483:Drivers/STM32F0xx_HAL_Driver/Src/stm32f0xx_hal_dma.c ****   {
 899              		.loc 1 483 6 view .LVU302
 900 0026 9B06     		lsls	r3, r3, #26
 901 0028 24D4     		bmi	.L49
 490:Drivers/STM32F0xx_HAL_Driver/Src/stm32f0xx_hal_dma.c ****   {
 902              		.loc 1 490 3 is_stmt 1 view .LVU303
 490:Drivers/STM32F0xx_HAL_Driver/Src/stm32f0xx_hal_dma.c ****   {
 903              		.loc 1 490 5 is_stmt 0 view .LVU304
 904 002a 0029     		cmp	r1, #0
 905 002c 27D1     		bne	.L39
 493:Drivers/STM32F0xx_HAL_Driver/Src/stm32f0xx_hal_dma.c ****   }
 906              		.loc 1 493 5 is_stmt 1 view .LVU305
 493:Drivers/STM32F0xx_HAL_Driver/Src/stm32f0xx_hal_dma.c ****   }
 907              		.loc 1 493 32 is_stmt 0 view .LVU306
 908 002e 036C     		ldr	r3, [r0, #64]
 493:Drivers/STM32F0xx_HAL_Driver/Src/stm32f0xx_hal_dma.c ****   }
 909              		.loc 1 493 10 view .LVU307
 910 0030 0225     		movs	r5, #2
 911 0032 9D40     		lsls	r5, r5, r3
ARM GAS  C:\Users\Password\AppData\Local\Temp\ccJqLrAb.s 			page 37


 912              	.LVL66:
 913              	.L40:
 502:Drivers/STM32F0xx_HAL_Driver/Src/stm32f0xx_hal_dma.c **** 
 914              		.loc 1 502 3 is_stmt 1 view .LVU308
 502:Drivers/STM32F0xx_HAL_Driver/Src/stm32f0xx_hal_dma.c **** 
 915              		.loc 1 502 15 is_stmt 0 view .LVU309
 916 0034 FFF7FEFF 		bl	HAL_GetTick
 917              	.LVL67:
 502:Drivers/STM32F0xx_HAL_Driver/Src/stm32f0xx_hal_dma.c **** 
 918              		.loc 1 502 15 view .LVU310
 919 0038 0190     		str	r0, [sp, #4]
 920              	.LVL68:
 504:Drivers/STM32F0xx_HAL_Driver/Src/stm32f0xx_hal_dma.c ****   {
 921              		.loc 1 504 3 is_stmt 1 view .LVU311
 922              	.L43:
 504:Drivers/STM32F0xx_HAL_Driver/Src/stm32f0xx_hal_dma.c ****   {
 923              		.loc 1 504 15 view .LVU312
 504:Drivers/STM32F0xx_HAL_Driver/Src/stm32f0xx_hal_dma.c ****   {
 924              		.loc 1 504 23 is_stmt 0 view .LVU313
 925 003a F16B     		ldr	r1, [r6, #60]
 504:Drivers/STM32F0xx_HAL_Driver/Src/stm32f0xx_hal_dma.c ****   {
 926              		.loc 1 504 39 view .LVU314
 927 003c 0B68     		ldr	r3, [r1]
 504:Drivers/STM32F0xx_HAL_Driver/Src/stm32f0xx_hal_dma.c ****   {
 928              		.loc 1 504 15 view .LVU315
 929 003e 1D42     		tst	r5, r3
 930 0040 2DD1     		bne	.L50
 506:Drivers/STM32F0xx_HAL_Driver/Src/stm32f0xx_hal_dma.c ****     {      
 931              		.loc 1 506 5 is_stmt 1 view .LVU316
 506:Drivers/STM32F0xx_HAL_Driver/Src/stm32f0xx_hal_dma.c ****     {      
 932              		.loc 1 506 38 is_stmt 0 view .LVU317
 933 0042 0868     		ldr	r0, [r1]
 506:Drivers/STM32F0xx_HAL_Driver/Src/stm32f0xx_hal_dma.c ****     {      
 934              		.loc 1 506 67 view .LVU318
 935 0044 326C     		ldr	r2, [r6, #64]
 506:Drivers/STM32F0xx_HAL_Driver/Src/stm32f0xx_hal_dma.c ****     {      
 936              		.loc 1 506 60 view .LVU319
 937 0046 0823     		movs	r3, #8
 938 0048 9340     		lsls	r3, r3, r2
 506:Drivers/STM32F0xx_HAL_Driver/Src/stm32f0xx_hal_dma.c ****     {      
 939              		.loc 1 506 7 view .LVU320
 940 004a 0342     		tst	r3, r0
 941 004c 1BD1     		bne	.L51
 525:Drivers/STM32F0xx_HAL_Driver/Src/stm32f0xx_hal_dma.c ****     {
 942              		.loc 1 525 5 is_stmt 1 view .LVU321
 525:Drivers/STM32F0xx_HAL_Driver/Src/stm32f0xx_hal_dma.c ****     {
 943              		.loc 1 525 7 is_stmt 0 view .LVU322
 944 004e 7B1C     		adds	r3, r7, #1
 945 0050 F3D0     		beq	.L43
 527:Drivers/STM32F0xx_HAL_Driver/Src/stm32f0xx_hal_dma.c ****       {
 946              		.loc 1 527 7 is_stmt 1 view .LVU323
 527:Drivers/STM32F0xx_HAL_Driver/Src/stm32f0xx_hal_dma.c ****       {
 947              		.loc 1 527 9 is_stmt 0 view .LVU324
 948 0052 002F     		cmp	r7, #0
 949 0054 05D0     		beq	.L44
 527:Drivers/STM32F0xx_HAL_Driver/Src/stm32f0xx_hal_dma.c ****       {
 950              		.loc 1 527 31 discriminator 1 view .LVU325
ARM GAS  C:\Users\Password\AppData\Local\Temp\ccJqLrAb.s 			page 38


 951 0056 FFF7FEFF 		bl	HAL_GetTick
 952              	.LVL69:
 527:Drivers/STM32F0xx_HAL_Driver/Src/stm32f0xx_hal_dma.c ****       {
 953              		.loc 1 527 45 discriminator 1 view .LVU326
 954 005a 019B     		ldr	r3, [sp, #4]
 955 005c C01A     		subs	r0, r0, r3
 527:Drivers/STM32F0xx_HAL_Driver/Src/stm32f0xx_hal_dma.c ****       {
 956              		.loc 1 527 26 discriminator 1 view .LVU327
 957 005e B842     		cmp	r0, r7
 958 0060 EBD9     		bls	.L43
 959              	.L44:
 530:Drivers/STM32F0xx_HAL_Driver/Src/stm32f0xx_hal_dma.c ****         
 960              		.loc 1 530 9 is_stmt 1 view .LVU328
 530:Drivers/STM32F0xx_HAL_Driver/Src/stm32f0xx_hal_dma.c ****         
 961              		.loc 1 530 25 is_stmt 0 view .LVU329
 962 0062 2023     		movs	r3, #32
 963 0064 B363     		str	r3, [r6, #56]
 533:Drivers/STM32F0xx_HAL_Driver/Src/stm32f0xx_hal_dma.c **** 
 964              		.loc 1 533 9 is_stmt 1 view .LVU330
 533:Drivers/STM32F0xx_HAL_Driver/Src/stm32f0xx_hal_dma.c **** 
 965              		.loc 1 533 21 is_stmt 0 view .LVU331
 966 0066 2122     		movs	r2, #33
 967 0068 0121     		movs	r1, #1
 968 006a B154     		strb	r1, [r6, r2]
 536:Drivers/STM32F0xx_HAL_Driver/Src/stm32f0xx_hal_dma.c **** 
 969              		.loc 1 536 9 is_stmt 1 view .LVU332
 536:Drivers/STM32F0xx_HAL_Driver/Src/stm32f0xx_hal_dma.c **** 
 970              		.loc 1 536 9 view .LVU333
 971 006c 0022     		movs	r2, #0
 972 006e F254     		strb	r2, [r6, r3]
 536:Drivers/STM32F0xx_HAL_Driver/Src/stm32f0xx_hal_dma.c **** 
 973              		.loc 1 536 9 view .LVU334
 538:Drivers/STM32F0xx_HAL_Driver/Src/stm32f0xx_hal_dma.c ****       }
 974              		.loc 1 538 9 view .LVU335
 538:Drivers/STM32F0xx_HAL_Driver/Src/stm32f0xx_hal_dma.c ****       }
 975              		.loc 1 538 16 is_stmt 0 view .LVU336
 976 0070 0120     		movs	r0, #1
 977 0072 D4E7     		b	.L37
 978              	.LVL70:
 979              	.L49:
 485:Drivers/STM32F0xx_HAL_Driver/Src/stm32f0xx_hal_dma.c ****     return HAL_ERROR;
 980              		.loc 1 485 5 is_stmt 1 view .LVU337
 485:Drivers/STM32F0xx_HAL_Driver/Src/stm32f0xx_hal_dma.c ****     return HAL_ERROR;
 981              		.loc 1 485 21 is_stmt 0 view .LVU338
 982 0074 8023     		movs	r3, #128
 983 0076 5B00     		lsls	r3, r3, #1
 984 0078 8363     		str	r3, [r0, #56]
 486:Drivers/STM32F0xx_HAL_Driver/Src/stm32f0xx_hal_dma.c ****   }
 985              		.loc 1 486 5 is_stmt 1 view .LVU339
 486:Drivers/STM32F0xx_HAL_Driver/Src/stm32f0xx_hal_dma.c ****   }
 986              		.loc 1 486 12 is_stmt 0 view .LVU340
 987 007a 0120     		movs	r0, #1
 988              	.LVL71:
 486:Drivers/STM32F0xx_HAL_Driver/Src/stm32f0xx_hal_dma.c ****   }
 989              		.loc 1 486 12 view .LVU341
 990 007c CFE7     		b	.L37
 991              	.LVL72:
ARM GAS  C:\Users\Password\AppData\Local\Temp\ccJqLrAb.s 			page 39


 992              	.L39:
 498:Drivers/STM32F0xx_HAL_Driver/Src/stm32f0xx_hal_dma.c ****   }
 993              		.loc 1 498 5 is_stmt 1 view .LVU342
 498:Drivers/STM32F0xx_HAL_Driver/Src/stm32f0xx_hal_dma.c ****   }
 994              		.loc 1 498 32 is_stmt 0 view .LVU343
 995 007e 036C     		ldr	r3, [r0, #64]
 498:Drivers/STM32F0xx_HAL_Driver/Src/stm32f0xx_hal_dma.c ****   }
 996              		.loc 1 498 10 view .LVU344
 997 0080 0425     		movs	r5, #4
 998 0082 9D40     		lsls	r5, r5, r3
 999              	.LVL73:
 498:Drivers/STM32F0xx_HAL_Driver/Src/stm32f0xx_hal_dma.c ****   }
 1000              		.loc 1 498 10 view .LVU345
 1001 0084 D6E7     		b	.L40
 1002              	.LVL74:
 1003              	.L51:
 511:Drivers/STM32F0xx_HAL_Driver/Src/stm32f0xx_hal_dma.c ****       
 1004              		.loc 1 511 7 is_stmt 1 view .LVU346
 511:Drivers/STM32F0xx_HAL_Driver/Src/stm32f0xx_hal_dma.c ****       
 1005              		.loc 1 511 49 is_stmt 0 view .LVU347
 1006 0086 0123     		movs	r3, #1
 1007 0088 1800     		movs	r0, r3
 1008 008a 9040     		lsls	r0, r0, r2
 511:Drivers/STM32F0xx_HAL_Driver/Src/stm32f0xx_hal_dma.c ****       
 1009              		.loc 1 511 34 view .LVU348
 1010 008c 4860     		str	r0, [r1, #4]
 514:Drivers/STM32F0xx_HAL_Driver/Src/stm32f0xx_hal_dma.c **** 
 1011              		.loc 1 514 7 is_stmt 1 view .LVU349
 514:Drivers/STM32F0xx_HAL_Driver/Src/stm32f0xx_hal_dma.c **** 
 1012              		.loc 1 514 23 is_stmt 0 view .LVU350
 1013 008e B363     		str	r3, [r6, #56]
 517:Drivers/STM32F0xx_HAL_Driver/Src/stm32f0xx_hal_dma.c ****       
 1014              		.loc 1 517 7 is_stmt 1 view .LVU351
 517:Drivers/STM32F0xx_HAL_Driver/Src/stm32f0xx_hal_dma.c ****       
 1015              		.loc 1 517 18 is_stmt 0 view .LVU352
 1016 0090 2122     		movs	r2, #33
 1017 0092 B354     		strb	r3, [r6, r2]
 520:Drivers/STM32F0xx_HAL_Driver/Src/stm32f0xx_hal_dma.c ****       
 1018              		.loc 1 520 7 is_stmt 1 view .LVU353
 520:Drivers/STM32F0xx_HAL_Driver/Src/stm32f0xx_hal_dma.c ****       
 1019              		.loc 1 520 7 view .LVU354
 1020 0094 1F33     		adds	r3, r3, #31
 1021 0096 0022     		movs	r2, #0
 1022 0098 F254     		strb	r2, [r6, r3]
 520:Drivers/STM32F0xx_HAL_Driver/Src/stm32f0xx_hal_dma.c ****       
 1023              		.loc 1 520 7 view .LVU355
 522:Drivers/STM32F0xx_HAL_Driver/Src/stm32f0xx_hal_dma.c ****     }      
 1024              		.loc 1 522 7 view .LVU356
 522:Drivers/STM32F0xx_HAL_Driver/Src/stm32f0xx_hal_dma.c ****     }      
 1025              		.loc 1 522 14 is_stmt 0 view .LVU357
 1026 009a 0120     		movs	r0, #1
 1027 009c BFE7     		b	.L37
 1028              	.L50:
 543:Drivers/STM32F0xx_HAL_Driver/Src/stm32f0xx_hal_dma.c ****   {
 1029              		.loc 1 543 3 is_stmt 1 view .LVU358
 543:Drivers/STM32F0xx_HAL_Driver/Src/stm32f0xx_hal_dma.c ****   {
 1030              		.loc 1 543 5 is_stmt 0 view .LVU359
ARM GAS  C:\Users\Password\AppData\Local\Temp\ccJqLrAb.s 			page 40


 1031 009e 002C     		cmp	r4, #0
 1032 00a0 0BD1     		bne	.L46
 546:Drivers/STM32F0xx_HAL_Driver/Src/stm32f0xx_hal_dma.c **** 
 1033              		.loc 1 546 5 is_stmt 1 view .LVU360
 546:Drivers/STM32F0xx_HAL_Driver/Src/stm32f0xx_hal_dma.c **** 
 1034              		.loc 1 546 54 is_stmt 0 view .LVU361
 1035 00a2 326C     		ldr	r2, [r6, #64]
 546:Drivers/STM32F0xx_HAL_Driver/Src/stm32f0xx_hal_dma.c **** 
 1036              		.loc 1 546 47 view .LVU362
 1037 00a4 0223     		movs	r3, #2
 1038 00a6 9340     		lsls	r3, r3, r2
 546:Drivers/STM32F0xx_HAL_Driver/Src/stm32f0xx_hal_dma.c **** 
 1039              		.loc 1 546 32 view .LVU363
 1040 00a8 4B60     		str	r3, [r1, #4]
 550:Drivers/STM32F0xx_HAL_Driver/Src/stm32f0xx_hal_dma.c ****   }
 1041              		.loc 1 550 5 is_stmt 1 view .LVU364
 550:Drivers/STM32F0xx_HAL_Driver/Src/stm32f0xx_hal_dma.c ****   }
 1042              		.loc 1 550 17 is_stmt 0 view .LVU365
 1043 00aa 2123     		movs	r3, #33
 1044 00ac 0122     		movs	r2, #1
 1045 00ae F254     		strb	r2, [r6, r3]
 1046              	.L47:
 559:Drivers/STM32F0xx_HAL_Driver/Src/stm32f0xx_hal_dma.c **** 
 1047              		.loc 1 559 3 is_stmt 1 view .LVU366
 559:Drivers/STM32F0xx_HAL_Driver/Src/stm32f0xx_hal_dma.c **** 
 1048              		.loc 1 559 3 view .LVU367
 1049 00b0 2023     		movs	r3, #32
 1050 00b2 0022     		movs	r2, #0
 1051 00b4 F254     		strb	r2, [r6, r3]
 559:Drivers/STM32F0xx_HAL_Driver/Src/stm32f0xx_hal_dma.c **** 
 1052              		.loc 1 559 3 view .LVU368
 561:Drivers/STM32F0xx_HAL_Driver/Src/stm32f0xx_hal_dma.c **** }
 1053              		.loc 1 561 3 view .LVU369
 561:Drivers/STM32F0xx_HAL_Driver/Src/stm32f0xx_hal_dma.c **** }
 1054              		.loc 1 561 10 is_stmt 0 view .LVU370
 1055 00b6 0020     		movs	r0, #0
 1056 00b8 B1E7     		b	.L37
 1057              	.L46:
 555:Drivers/STM32F0xx_HAL_Driver/Src/stm32f0xx_hal_dma.c ****   }
 1058              		.loc 1 555 5 is_stmt 1 view .LVU371
 555:Drivers/STM32F0xx_HAL_Driver/Src/stm32f0xx_hal_dma.c ****   }
 1059              		.loc 1 555 54 is_stmt 0 view .LVU372
 1060 00ba 326C     		ldr	r2, [r6, #64]
 555:Drivers/STM32F0xx_HAL_Driver/Src/stm32f0xx_hal_dma.c ****   }
 1061              		.loc 1 555 47 view .LVU373
 1062 00bc 0423     		movs	r3, #4
 1063 00be 9340     		lsls	r3, r3, r2
 555:Drivers/STM32F0xx_HAL_Driver/Src/stm32f0xx_hal_dma.c ****   }
 1064              		.loc 1 555 32 view .LVU374
 1065 00c0 4B60     		str	r3, [r1, #4]
 1066 00c2 F5E7     		b	.L47
 1067              		.cfi_endproc
 1068              	.LFE46:
 1070              		.section	.text.HAL_DMA_IRQHandler,"ax",%progbits
 1071              		.align	1
 1072              		.global	HAL_DMA_IRQHandler
 1073              		.syntax unified
ARM GAS  C:\Users\Password\AppData\Local\Temp\ccJqLrAb.s 			page 41


 1074              		.code	16
 1075              		.thumb_func
 1077              	HAL_DMA_IRQHandler:
 1078              	.LVL75:
 1079              	.LFB47:
 571:Drivers/STM32F0xx_HAL_Driver/Src/stm32f0xx_hal_dma.c **** 	uint32_t flag_it = hdma->DmaBaseAddress->ISR;
 1080              		.loc 1 571 1 is_stmt 1 view -0
 1081              		.cfi_startproc
 1082              		@ args = 0, pretend = 0, frame = 0
 1083              		@ frame_needed = 0, uses_anonymous_args = 0
 571:Drivers/STM32F0xx_HAL_Driver/Src/stm32f0xx_hal_dma.c **** 	uint32_t flag_it = hdma->DmaBaseAddress->ISR;
 1084              		.loc 1 571 1 is_stmt 0 view .LVU376
 1085 0000 70B5     		push	{r4, r5, r6, lr}
 1086              	.LCFI10:
 1087              		.cfi_def_cfa_offset 16
 1088              		.cfi_offset 4, -16
 1089              		.cfi_offset 5, -12
 1090              		.cfi_offset 6, -8
 1091              		.cfi_offset 14, -4
 572:Drivers/STM32F0xx_HAL_Driver/Src/stm32f0xx_hal_dma.c ****   uint32_t source_it = hdma->Instance->CCR;
 1092              		.loc 1 572 2 is_stmt 1 view .LVU377
 572:Drivers/STM32F0xx_HAL_Driver/Src/stm32f0xx_hal_dma.c ****   uint32_t source_it = hdma->Instance->CCR;
 1093              		.loc 1 572 25 is_stmt 0 view .LVU378
 1094 0002 C36B     		ldr	r3, [r0, #60]
 572:Drivers/STM32F0xx_HAL_Driver/Src/stm32f0xx_hal_dma.c ****   uint32_t source_it = hdma->Instance->CCR;
 1095              		.loc 1 572 11 view .LVU379
 1096 0004 1A68     		ldr	r2, [r3]
 1097              	.LVL76:
 573:Drivers/STM32F0xx_HAL_Driver/Src/stm32f0xx_hal_dma.c ****           
 1098              		.loc 1 573 3 is_stmt 1 view .LVU380
 573:Drivers/STM32F0xx_HAL_Driver/Src/stm32f0xx_hal_dma.c ****           
 1099              		.loc 1 573 28 is_stmt 0 view .LVU381
 1100 0006 0468     		ldr	r4, [r0]
 573:Drivers/STM32F0xx_HAL_Driver/Src/stm32f0xx_hal_dma.c ****           
 1101              		.loc 1 573 12 view .LVU382
 1102 0008 2568     		ldr	r5, [r4]
 1103              	.LVL77:
 576:Drivers/STM32F0xx_HAL_Driver/Src/stm32f0xx_hal_dma.c ****   {
 1104              		.loc 1 576 3 is_stmt 1 view .LVU383
 576:Drivers/STM32F0xx_HAL_Driver/Src/stm32f0xx_hal_dma.c ****   {
 1105              		.loc 1 576 49 is_stmt 0 view .LVU384
 1106 000a 016C     		ldr	r1, [r0, #64]
 576:Drivers/STM32F0xx_HAL_Driver/Src/stm32f0xx_hal_dma.c ****   {
 1107              		.loc 1 576 42 view .LVU385
 1108 000c 0423     		movs	r3, #4
 1109 000e 8B40     		lsls	r3, r3, r1
 576:Drivers/STM32F0xx_HAL_Driver/Src/stm32f0xx_hal_dma.c ****   {
 1110              		.loc 1 576 6 view .LVU386
 1111 0010 1A42     		tst	r2, r3
 1112 0012 12D0     		beq	.L53
 576:Drivers/STM32F0xx_HAL_Driver/Src/stm32f0xx_hal_dma.c ****   {
 1113              		.loc 1 576 67 discriminator 1 view .LVU387
 1114 0014 6B07     		lsls	r3, r5, #29
 1115 0016 10D5     		bpl	.L53
 579:Drivers/STM32F0xx_HAL_Driver/Src/stm32f0xx_hal_dma.c ****   	{
 1116              		.loc 1 579 4 is_stmt 1 view .LVU388
 579:Drivers/STM32F0xx_HAL_Driver/Src/stm32f0xx_hal_dma.c ****   	{
ARM GAS  C:\Users\Password\AppData\Local\Temp\ccJqLrAb.s 			page 42


 1117              		.loc 1 579 22 is_stmt 0 view .LVU389
 1118 0018 2368     		ldr	r3, [r4]
 579:Drivers/STM32F0xx_HAL_Driver/Src/stm32f0xx_hal_dma.c ****   	{
 1119              		.loc 1 579 6 view .LVU390
 1120 001a 9B06     		lsls	r3, r3, #26
 1121 001c 03D4     		bmi	.L54
 582:Drivers/STM32F0xx_HAL_Driver/Src/stm32f0xx_hal_dma.c ****   	}
 1122              		.loc 1 582 5 is_stmt 1 view .LVU391
 582:Drivers/STM32F0xx_HAL_Driver/Src/stm32f0xx_hal_dma.c ****   	}
 1123              		.loc 1 582 25 is_stmt 0 view .LVU392
 1124 001e 2368     		ldr	r3, [r4]
 1125 0020 0422     		movs	r2, #4
 1126              	.LVL78:
 582:Drivers/STM32F0xx_HAL_Driver/Src/stm32f0xx_hal_dma.c ****   	}
 1127              		.loc 1 582 25 view .LVU393
 1128 0022 9343     		bics	r3, r2
 1129 0024 2360     		str	r3, [r4]
 1130              	.L54:
 586:Drivers/STM32F0xx_HAL_Driver/Src/stm32f0xx_hal_dma.c ****   	
 1131              		.loc 1 586 4 is_stmt 1 view .LVU394
 586:Drivers/STM32F0xx_HAL_Driver/Src/stm32f0xx_hal_dma.c ****   	
 1132              		.loc 1 586 53 is_stmt 0 view .LVU395
 1133 0026 016C     		ldr	r1, [r0, #64]
 586:Drivers/STM32F0xx_HAL_Driver/Src/stm32f0xx_hal_dma.c ****   	
 1134              		.loc 1 586 8 view .LVU396
 1135 0028 C26B     		ldr	r2, [r0, #60]
 586:Drivers/STM32F0xx_HAL_Driver/Src/stm32f0xx_hal_dma.c ****   	
 1136              		.loc 1 586 46 view .LVU397
 1137 002a 0423     		movs	r3, #4
 1138 002c 8B40     		lsls	r3, r3, r1
 586:Drivers/STM32F0xx_HAL_Driver/Src/stm32f0xx_hal_dma.c ****   	
 1139              		.loc 1 586 31 view .LVU398
 1140 002e 5360     		str	r3, [r2, #4]
 591:Drivers/STM32F0xx_HAL_Driver/Src/stm32f0xx_hal_dma.c ****   	{
 1141              		.loc 1 591 4 is_stmt 1 view .LVU399
 591:Drivers/STM32F0xx_HAL_Driver/Src/stm32f0xx_hal_dma.c ****   	{
 1142              		.loc 1 591 11 is_stmt 0 view .LVU400
 1143 0030 C36A     		ldr	r3, [r0, #44]
 591:Drivers/STM32F0xx_HAL_Driver/Src/stm32f0xx_hal_dma.c ****   	{
 1144              		.loc 1 591 6 view .LVU401
 1145 0032 002B     		cmp	r3, #0
 1146 0034 00D0     		beq	.L52
 594:Drivers/STM32F0xx_HAL_Driver/Src/stm32f0xx_hal_dma.c ****   	}
 1147              		.loc 1 594 5 is_stmt 1 view .LVU402
 1148 0036 9847     		blx	r3
 1149              	.LVL79:
 1150              	.L52:
 650:Drivers/STM32F0xx_HAL_Driver/Src/stm32f0xx_hal_dma.c **** 
 1151              		.loc 1 650 1 is_stmt 0 view .LVU403
 1152              		@ sp needed
 1153 0038 70BD     		pop	{r4, r5, r6, pc}
 1154              	.LVL80:
 1155              	.L53:
 599:Drivers/STM32F0xx_HAL_Driver/Src/stm32f0xx_hal_dma.c ****   {
 1156              		.loc 1 599 8 is_stmt 1 view .LVU404
 599:Drivers/STM32F0xx_HAL_Driver/Src/stm32f0xx_hal_dma.c ****   {
 1157              		.loc 1 599 47 is_stmt 0 view .LVU405
ARM GAS  C:\Users\Password\AppData\Local\Temp\ccJqLrAb.s 			page 43


 1158 003a 0223     		movs	r3, #2
 1159 003c 8B40     		lsls	r3, r3, r1
 599:Drivers/STM32F0xx_HAL_Driver/Src/stm32f0xx_hal_dma.c ****   {
 1160              		.loc 1 599 11 view .LVU406
 1161 003e 1A42     		tst	r2, r3
 1162 0040 18D0     		beq	.L56
 599:Drivers/STM32F0xx_HAL_Driver/Src/stm32f0xx_hal_dma.c ****   {
 1163              		.loc 1 599 72 discriminator 1 view .LVU407
 1164 0042 AB07     		lsls	r3, r5, #30
 1165 0044 16D5     		bpl	.L56
 601:Drivers/STM32F0xx_HAL_Driver/Src/stm32f0xx_hal_dma.c ****   	{
 1166              		.loc 1 601 4 is_stmt 1 view .LVU408
 601:Drivers/STM32F0xx_HAL_Driver/Src/stm32f0xx_hal_dma.c ****   	{
 1167              		.loc 1 601 22 is_stmt 0 view .LVU409
 1168 0046 2368     		ldr	r3, [r4]
 601:Drivers/STM32F0xx_HAL_Driver/Src/stm32f0xx_hal_dma.c ****   	{
 1169              		.loc 1 601 6 view .LVU410
 1170 0048 9B06     		lsls	r3, r3, #26
 1171 004a 06D4     		bmi	.L57
 605:Drivers/STM32F0xx_HAL_Driver/Src/stm32f0xx_hal_dma.c ****   		
 1172              		.loc 1 605 5 is_stmt 1 view .LVU411
 605:Drivers/STM32F0xx_HAL_Driver/Src/stm32f0xx_hal_dma.c ****   		
 1173              		.loc 1 605 25 is_stmt 0 view .LVU412
 1174 004c 2368     		ldr	r3, [r4]
 1175 004e 0A22     		movs	r2, #10
 1176              	.LVL81:
 605:Drivers/STM32F0xx_HAL_Driver/Src/stm32f0xx_hal_dma.c ****   		
 1177              		.loc 1 605 25 view .LVU413
 1178 0050 9343     		bics	r3, r2
 1179 0052 2360     		str	r3, [r4]
 608:Drivers/STM32F0xx_HAL_Driver/Src/stm32f0xx_hal_dma.c ****   	}
 1180              		.loc 1 608 5 is_stmt 1 view .LVU414
 608:Drivers/STM32F0xx_HAL_Driver/Src/stm32f0xx_hal_dma.c ****   	}
 1181              		.loc 1 608 17 is_stmt 0 view .LVU415
 1182 0054 2123     		movs	r3, #33
 1183 0056 093A     		subs	r2, r2, #9
 1184 0058 C254     		strb	r2, [r0, r3]
 1185              	.L57:
 612:Drivers/STM32F0xx_HAL_Driver/Src/stm32f0xx_hal_dma.c ****   	
 1186              		.loc 1 612 4 is_stmt 1 view .LVU416
 612:Drivers/STM32F0xx_HAL_Driver/Src/stm32f0xx_hal_dma.c ****   	
 1187              		.loc 1 612 53 is_stmt 0 view .LVU417
 1188 005a 016C     		ldr	r1, [r0, #64]
 612:Drivers/STM32F0xx_HAL_Driver/Src/stm32f0xx_hal_dma.c ****   	
 1189              		.loc 1 612 8 view .LVU418
 1190 005c C26B     		ldr	r2, [r0, #60]
 612:Drivers/STM32F0xx_HAL_Driver/Src/stm32f0xx_hal_dma.c ****   	
 1191              		.loc 1 612 46 view .LVU419
 1192 005e 0223     		movs	r3, #2
 1193 0060 8B40     		lsls	r3, r3, r1
 612:Drivers/STM32F0xx_HAL_Driver/Src/stm32f0xx_hal_dma.c ****   	
 1194              		.loc 1 612 31 view .LVU420
 1195 0062 5360     		str	r3, [r2, #4]
 615:Drivers/STM32F0xx_HAL_Driver/Src/stm32f0xx_hal_dma.c ****   	
 1196              		.loc 1 615 4 is_stmt 1 view .LVU421
 615:Drivers/STM32F0xx_HAL_Driver/Src/stm32f0xx_hal_dma.c ****   	
 1197              		.loc 1 615 4 view .LVU422
ARM GAS  C:\Users\Password\AppData\Local\Temp\ccJqLrAb.s 			page 44


 1198 0064 2023     		movs	r3, #32
 1199 0066 0022     		movs	r2, #0
 1200 0068 C254     		strb	r2, [r0, r3]
 615:Drivers/STM32F0xx_HAL_Driver/Src/stm32f0xx_hal_dma.c ****   	
 1201              		.loc 1 615 4 view .LVU423
 617:Drivers/STM32F0xx_HAL_Driver/Src/stm32f0xx_hal_dma.c ****   	{
 1202              		.loc 1 617 4 view .LVU424
 617:Drivers/STM32F0xx_HAL_Driver/Src/stm32f0xx_hal_dma.c ****   	{
 1203              		.loc 1 617 11 is_stmt 0 view .LVU425
 1204 006a 836A     		ldr	r3, [r0, #40]
 617:Drivers/STM32F0xx_HAL_Driver/Src/stm32f0xx_hal_dma.c ****   	{
 1205              		.loc 1 617 6 view .LVU426
 1206 006c 002B     		cmp	r3, #0
 1207 006e E3D0     		beq	.L52
 620:Drivers/STM32F0xx_HAL_Driver/Src/stm32f0xx_hal_dma.c ****   	}
 1208              		.loc 1 620 5 is_stmt 1 view .LVU427
 1209 0070 9847     		blx	r3
 1210              	.LVL82:
 620:Drivers/STM32F0xx_HAL_Driver/Src/stm32f0xx_hal_dma.c ****   	}
 1211              		.loc 1 620 5 is_stmt 0 view .LVU428
 1212 0072 E1E7     		b	.L52
 1213              	.LVL83:
 1214              	.L56:
 625:Drivers/STM32F0xx_HAL_Driver/Src/stm32f0xx_hal_dma.c ****   {
 1215              		.loc 1 625 8 is_stmt 1 view .LVU429
 625:Drivers/STM32F0xx_HAL_Driver/Src/stm32f0xx_hal_dma.c ****   {
 1216              		.loc 1 625 48 is_stmt 0 view .LVU430
 1217 0074 0823     		movs	r3, #8
 1218 0076 8B40     		lsls	r3, r3, r1
 625:Drivers/STM32F0xx_HAL_Driver/Src/stm32f0xx_hal_dma.c ****   {
 1219              		.loc 1 625 11 view .LVU431
 1220 0078 1A42     		tst	r2, r3
 1221 007a DDD0     		beq	.L52
 625:Drivers/STM32F0xx_HAL_Driver/Src/stm32f0xx_hal_dma.c ****   {
 1222              		.loc 1 625 73 discriminator 1 view .LVU432
 1223 007c 2D07     		lsls	r5, r5, #28
 1224 007e DBD5     		bpl	.L52
 1225              	.LVL84:
 630:Drivers/STM32F0xx_HAL_Driver/Src/stm32f0xx_hal_dma.c ****     
 1226              		.loc 1 630 5 is_stmt 1 view .LVU433
 630:Drivers/STM32F0xx_HAL_Driver/Src/stm32f0xx_hal_dma.c ****     
 1227              		.loc 1 630 25 is_stmt 0 view .LVU434
 1228 0080 2368     		ldr	r3, [r4]
 1229 0082 0E22     		movs	r2, #14
 1230              	.LVL85:
 630:Drivers/STM32F0xx_HAL_Driver/Src/stm32f0xx_hal_dma.c ****     
 1231              		.loc 1 630 25 view .LVU435
 1232 0084 9343     		bics	r3, r2
 1233 0086 2360     		str	r3, [r4]
 633:Drivers/STM32F0xx_HAL_Driver/Src/stm32f0xx_hal_dma.c ****     
 1234              		.loc 1 633 5 is_stmt 1 view .LVU436
 633:Drivers/STM32F0xx_HAL_Driver/Src/stm32f0xx_hal_dma.c ****     
 1235              		.loc 1 633 54 is_stmt 0 view .LVU437
 1236 0088 016C     		ldr	r1, [r0, #64]
 633:Drivers/STM32F0xx_HAL_Driver/Src/stm32f0xx_hal_dma.c ****     
 1237              		.loc 1 633 9 view .LVU438
 1238 008a C26B     		ldr	r2, [r0, #60]
ARM GAS  C:\Users\Password\AppData\Local\Temp\ccJqLrAb.s 			page 45


 633:Drivers/STM32F0xx_HAL_Driver/Src/stm32f0xx_hal_dma.c ****     
 1239              		.loc 1 633 47 view .LVU439
 1240 008c 0123     		movs	r3, #1
 1241 008e 1C00     		movs	r4, r3
 1242 0090 8C40     		lsls	r4, r4, r1
 633:Drivers/STM32F0xx_HAL_Driver/Src/stm32f0xx_hal_dma.c ****     
 1243              		.loc 1 633 32 view .LVU440
 1244 0092 5460     		str	r4, [r2, #4]
 636:Drivers/STM32F0xx_HAL_Driver/Src/stm32f0xx_hal_dma.c ****     
 1245              		.loc 1 636 5 is_stmt 1 view .LVU441
 636:Drivers/STM32F0xx_HAL_Driver/Src/stm32f0xx_hal_dma.c ****     
 1246              		.loc 1 636 21 is_stmt 0 view .LVU442
 1247 0094 8363     		str	r3, [r0, #56]
 639:Drivers/STM32F0xx_HAL_Driver/Src/stm32f0xx_hal_dma.c ****     
 1248              		.loc 1 639 5 is_stmt 1 view .LVU443
 639:Drivers/STM32F0xx_HAL_Driver/Src/stm32f0xx_hal_dma.c ****     
 1249              		.loc 1 639 17 is_stmt 0 view .LVU444
 1250 0096 2122     		movs	r2, #33
 1251 0098 8354     		strb	r3, [r0, r2]
 642:Drivers/STM32F0xx_HAL_Driver/Src/stm32f0xx_hal_dma.c ****     
 1252              		.loc 1 642 5 is_stmt 1 view .LVU445
 642:Drivers/STM32F0xx_HAL_Driver/Src/stm32f0xx_hal_dma.c ****     
 1253              		.loc 1 642 5 view .LVU446
 1254 009a 1F33     		adds	r3, r3, #31
 1255 009c 0022     		movs	r2, #0
 1256 009e C254     		strb	r2, [r0, r3]
 642:Drivers/STM32F0xx_HAL_Driver/Src/stm32f0xx_hal_dma.c ****     
 1257              		.loc 1 642 5 view .LVU447
 644:Drivers/STM32F0xx_HAL_Driver/Src/stm32f0xx_hal_dma.c ****     {
 1258              		.loc 1 644 5 view .LVU448
 644:Drivers/STM32F0xx_HAL_Driver/Src/stm32f0xx_hal_dma.c ****     {
 1259              		.loc 1 644 12 is_stmt 0 view .LVU449
 1260 00a0 036B     		ldr	r3, [r0, #48]
 644:Drivers/STM32F0xx_HAL_Driver/Src/stm32f0xx_hal_dma.c ****     {
 1261              		.loc 1 644 7 view .LVU450
 1262 00a2 002B     		cmp	r3, #0
 1263 00a4 C8D0     		beq	.L52
 647:Drivers/STM32F0xx_HAL_Driver/Src/stm32f0xx_hal_dma.c ****     }
 1264              		.loc 1 647 6 is_stmt 1 view .LVU451
 1265 00a6 9847     		blx	r3
 1266              	.LVL86:
 650:Drivers/STM32F0xx_HAL_Driver/Src/stm32f0xx_hal_dma.c **** 
 1267              		.loc 1 650 1 is_stmt 0 view .LVU452
 1268 00a8 C6E7     		b	.L52
 1269              		.cfi_endproc
 1270              	.LFE47:
 1272              		.section	.text.HAL_DMA_RegisterCallback,"ax",%progbits
 1273              		.align	1
 1274              		.global	HAL_DMA_RegisterCallback
 1275              		.syntax unified
 1276              		.code	16
 1277              		.thumb_func
 1279              	HAL_DMA_RegisterCallback:
 1280              	.LVL87:
 1281              	.LFB48:
 663:Drivers/STM32F0xx_HAL_Driver/Src/stm32f0xx_hal_dma.c ****   HAL_StatusTypeDef status = HAL_OK;
 1282              		.loc 1 663 1 is_stmt 1 view -0
ARM GAS  C:\Users\Password\AppData\Local\Temp\ccJqLrAb.s 			page 46


 1283              		.cfi_startproc
 1284              		@ args = 0, pretend = 0, frame = 0
 1285              		@ frame_needed = 0, uses_anonymous_args = 0
 663:Drivers/STM32F0xx_HAL_Driver/Src/stm32f0xx_hal_dma.c ****   HAL_StatusTypeDef status = HAL_OK;
 1286              		.loc 1 663 1 is_stmt 0 view .LVU454
 1287 0000 10B5     		push	{r4, lr}
 1288              	.LCFI11:
 1289              		.cfi_def_cfa_offset 8
 1290              		.cfi_offset 4, -8
 1291              		.cfi_offset 14, -4
 1292 0002 0300     		movs	r3, r0
 664:Drivers/STM32F0xx_HAL_Driver/Src/stm32f0xx_hal_dma.c ****   
 1293              		.loc 1 664 3 is_stmt 1 view .LVU455
 1294              	.LVL88:
 667:Drivers/STM32F0xx_HAL_Driver/Src/stm32f0xx_hal_dma.c ****   
 1295              		.loc 1 667 3 view .LVU456
 667:Drivers/STM32F0xx_HAL_Driver/Src/stm32f0xx_hal_dma.c ****   
 1296              		.loc 1 667 3 view .LVU457
 1297 0004 2020     		movs	r0, #32
 1298              	.LVL89:
 667:Drivers/STM32F0xx_HAL_Driver/Src/stm32f0xx_hal_dma.c ****   
 1299              		.loc 1 667 3 is_stmt 0 view .LVU458
 1300 0006 185C     		ldrb	r0, [r3, r0]
 1301 0008 0128     		cmp	r0, #1
 1302 000a 21D0     		beq	.L71
 667:Drivers/STM32F0xx_HAL_Driver/Src/stm32f0xx_hal_dma.c ****   
 1303              		.loc 1 667 3 is_stmt 1 discriminator 2 view .LVU459
 1304 000c 2020     		movs	r0, #32
 1305 000e 0124     		movs	r4, #1
 1306 0010 1C54     		strb	r4, [r3, r0]
 667:Drivers/STM32F0xx_HAL_Driver/Src/stm32f0xx_hal_dma.c ****   
 1307              		.loc 1 667 3 discriminator 2 view .LVU460
 669:Drivers/STM32F0xx_HAL_Driver/Src/stm32f0xx_hal_dma.c ****   {
 1308              		.loc 1 669 3 discriminator 2 view .LVU461
 669:Drivers/STM32F0xx_HAL_Driver/Src/stm32f0xx_hal_dma.c ****   {
 1309              		.loc 1 669 33 is_stmt 0 discriminator 2 view .LVU462
 1310 0012 0130     		adds	r0, r0, #1
 1311 0014 1C5C     		ldrb	r4, [r3, r0]
 1312 0016 E0B2     		uxtb	r0, r4
 669:Drivers/STM32F0xx_HAL_Driver/Src/stm32f0xx_hal_dma.c ****   {
 1313              		.loc 1 669 5 discriminator 2 view .LVU463
 1314 0018 012C     		cmp	r4, #1
 1315 001a 04D0     		beq	.L73
 696:Drivers/STM32F0xx_HAL_Driver/Src/stm32f0xx_hal_dma.c ****   } 
 1316              		.loc 1 696 12 view .LVU464
 1317 001c 0120     		movs	r0, #1
 1318              	.L65:
 1319              	.LVL90:
 700:Drivers/STM32F0xx_HAL_Driver/Src/stm32f0xx_hal_dma.c ****   
 1320              		.loc 1 700 3 is_stmt 1 view .LVU465
 700:Drivers/STM32F0xx_HAL_Driver/Src/stm32f0xx_hal_dma.c ****   
 1321              		.loc 1 700 3 view .LVU466
 1322 001e 2022     		movs	r2, #32
 1323              	.LVL91:
 700:Drivers/STM32F0xx_HAL_Driver/Src/stm32f0xx_hal_dma.c ****   
 1324              		.loc 1 700 3 is_stmt 0 view .LVU467
 1325 0020 0021     		movs	r1, #0
ARM GAS  C:\Users\Password\AppData\Local\Temp\ccJqLrAb.s 			page 47


 1326              	.LVL92:
 700:Drivers/STM32F0xx_HAL_Driver/Src/stm32f0xx_hal_dma.c ****   
 1327              		.loc 1 700 3 view .LVU468
 1328 0022 9954     		strb	r1, [r3, r2]
 700:Drivers/STM32F0xx_HAL_Driver/Src/stm32f0xx_hal_dma.c ****   
 1329              		.loc 1 700 3 is_stmt 1 view .LVU469
 702:Drivers/STM32F0xx_HAL_Driver/Src/stm32f0xx_hal_dma.c **** }
 1330              		.loc 1 702 3 view .LVU470
 1331              	.LVL93:
 1332              	.L64:
 703:Drivers/STM32F0xx_HAL_Driver/Src/stm32f0xx_hal_dma.c **** 
 1333              		.loc 1 703 1 is_stmt 0 view .LVU471
 1334              		@ sp needed
 1335 0024 10BD     		pop	{r4, pc}
 1336              	.LVL94:
 1337              	.L73:
 671:Drivers/STM32F0xx_HAL_Driver/Src/stm32f0xx_hal_dma.c ****     {
 1338              		.loc 1 671 5 is_stmt 1 view .LVU472
 1339 0026 0229     		cmp	r1, #2
 1340 0028 0FD0     		beq	.L66
 1341 002a 06D8     		bhi	.L67
 1342 002c 0029     		cmp	r1, #0
 1343 002e 09D0     		beq	.L68
 1344 0030 0129     		cmp	r1, #1
 1345 0032 F4D1     		bne	.L65
 678:Drivers/STM32F0xx_HAL_Driver/Src/stm32f0xx_hal_dma.c ****            break;         
 1346              		.loc 1 678 12 view .LVU473
 678:Drivers/STM32F0xx_HAL_Driver/Src/stm32f0xx_hal_dma.c ****            break;         
 1347              		.loc 1 678 39 is_stmt 0 view .LVU474
 1348 0034 DA62     		str	r2, [r3, #44]
 679:Drivers/STM32F0xx_HAL_Driver/Src/stm32f0xx_hal_dma.c **** 
 1349              		.loc 1 679 12 is_stmt 1 view .LVU475
 664:Drivers/STM32F0xx_HAL_Driver/Src/stm32f0xx_hal_dma.c ****   
 1350              		.loc 1 664 21 is_stmt 0 view .LVU476
 1351 0036 0020     		movs	r0, #0
 679:Drivers/STM32F0xx_HAL_Driver/Src/stm32f0xx_hal_dma.c **** 
 1352              		.loc 1 679 12 view .LVU477
 1353 0038 F1E7     		b	.L65
 1354              	.L67:
 671:Drivers/STM32F0xx_HAL_Driver/Src/stm32f0xx_hal_dma.c ****     {
 1355              		.loc 1 671 5 view .LVU478
 1356 003a 0329     		cmp	r1, #3
 1357 003c EFD1     		bne	.L65
 686:Drivers/STM32F0xx_HAL_Driver/Src/stm32f0xx_hal_dma.c ****            break; 
 1358              		.loc 1 686 12 is_stmt 1 view .LVU479
 686:Drivers/STM32F0xx_HAL_Driver/Src/stm32f0xx_hal_dma.c ****            break; 
 1359              		.loc 1 686 36 is_stmt 0 view .LVU480
 1360 003e 5A63     		str	r2, [r3, #52]
 687:Drivers/STM32F0xx_HAL_Driver/Src/stm32f0xx_hal_dma.c ****            
 1361              		.loc 1 687 12 is_stmt 1 view .LVU481
 664:Drivers/STM32F0xx_HAL_Driver/Src/stm32f0xx_hal_dma.c ****   
 1362              		.loc 1 664 21 is_stmt 0 view .LVU482
 1363 0040 0020     		movs	r0, #0
 687:Drivers/STM32F0xx_HAL_Driver/Src/stm32f0xx_hal_dma.c ****            
 1364              		.loc 1 687 12 view .LVU483
 1365 0042 ECE7     		b	.L65
 1366              	.L68:
ARM GAS  C:\Users\Password\AppData\Local\Temp\ccJqLrAb.s 			page 48


 674:Drivers/STM32F0xx_HAL_Driver/Src/stm32f0xx_hal_dma.c ****            break;
 1367              		.loc 1 674 12 is_stmt 1 view .LVU484
 674:Drivers/STM32F0xx_HAL_Driver/Src/stm32f0xx_hal_dma.c ****            break;
 1368              		.loc 1 674 35 is_stmt 0 view .LVU485
 1369 0044 9A62     		str	r2, [r3, #40]
 675:Drivers/STM32F0xx_HAL_Driver/Src/stm32f0xx_hal_dma.c ****        
 1370              		.loc 1 675 12 is_stmt 1 view .LVU486
 664:Drivers/STM32F0xx_HAL_Driver/Src/stm32f0xx_hal_dma.c ****   
 1371              		.loc 1 664 21 is_stmt 0 view .LVU487
 1372 0046 0800     		movs	r0, r1
 675:Drivers/STM32F0xx_HAL_Driver/Src/stm32f0xx_hal_dma.c ****        
 1373              		.loc 1 675 12 view .LVU488
 1374 0048 E9E7     		b	.L65
 1375              	.L66:
 682:Drivers/STM32F0xx_HAL_Driver/Src/stm32f0xx_hal_dma.c ****            break;         
 1376              		.loc 1 682 12 is_stmt 1 view .LVU489
 682:Drivers/STM32F0xx_HAL_Driver/Src/stm32f0xx_hal_dma.c ****            break;         
 1377              		.loc 1 682 36 is_stmt 0 view .LVU490
 1378 004a 1A63     		str	r2, [r3, #48]
 683:Drivers/STM32F0xx_HAL_Driver/Src/stm32f0xx_hal_dma.c ****            
 1379              		.loc 1 683 12 is_stmt 1 view .LVU491
 664:Drivers/STM32F0xx_HAL_Driver/Src/stm32f0xx_hal_dma.c ****   
 1380              		.loc 1 664 21 is_stmt 0 view .LVU492
 1381 004c 0020     		movs	r0, #0
 683:Drivers/STM32F0xx_HAL_Driver/Src/stm32f0xx_hal_dma.c ****            
 1382              		.loc 1 683 12 view .LVU493
 1383 004e E6E7     		b	.L65
 1384              	.L71:
 667:Drivers/STM32F0xx_HAL_Driver/Src/stm32f0xx_hal_dma.c ****   
 1385              		.loc 1 667 3 view .LVU494
 1386 0050 0220     		movs	r0, #2
 1387 0052 E7E7     		b	.L64
 1388              		.cfi_endproc
 1389              	.LFE48:
 1391              		.section	.text.HAL_DMA_UnRegisterCallback,"ax",%progbits
 1392              		.align	1
 1393              		.global	HAL_DMA_UnRegisterCallback
 1394              		.syntax unified
 1395              		.code	16
 1396              		.thumb_func
 1398              	HAL_DMA_UnRegisterCallback:
 1399              	.LVL95:
 1400              	.LFB49:
 714:Drivers/STM32F0xx_HAL_Driver/Src/stm32f0xx_hal_dma.c ****   HAL_StatusTypeDef status = HAL_OK;
 1401              		.loc 1 714 1 is_stmt 1 view -0
 1402              		.cfi_startproc
 1403              		@ args = 0, pretend = 0, frame = 0
 1404              		@ frame_needed = 0, uses_anonymous_args = 0
 1405              		@ link register save eliminated.
 714:Drivers/STM32F0xx_HAL_Driver/Src/stm32f0xx_hal_dma.c ****   HAL_StatusTypeDef status = HAL_OK;
 1406              		.loc 1 714 1 is_stmt 0 view .LVU496
 1407 0000 0300     		movs	r3, r0
 715:Drivers/STM32F0xx_HAL_Driver/Src/stm32f0xx_hal_dma.c **** 
 1408              		.loc 1 715 3 is_stmt 1 view .LVU497
 1409              	.LVL96:
 718:Drivers/STM32F0xx_HAL_Driver/Src/stm32f0xx_hal_dma.c ****   
 1410              		.loc 1 718 3 view .LVU498
ARM GAS  C:\Users\Password\AppData\Local\Temp\ccJqLrAb.s 			page 49


 718:Drivers/STM32F0xx_HAL_Driver/Src/stm32f0xx_hal_dma.c ****   
 1411              		.loc 1 718 3 view .LVU499
 1412 0002 2022     		movs	r2, #32
 1413 0004 825C     		ldrb	r2, [r0, r2]
 1414 0006 012A     		cmp	r2, #1
 1415 0008 29D0     		beq	.L83
 718:Drivers/STM32F0xx_HAL_Driver/Src/stm32f0xx_hal_dma.c ****   
 1416              		.loc 1 718 3 discriminator 2 view .LVU500
 1417 000a 2022     		movs	r2, #32
 1418 000c 0120     		movs	r0, #1
 1419              	.LVL97:
 718:Drivers/STM32F0xx_HAL_Driver/Src/stm32f0xx_hal_dma.c ****   
 1420              		.loc 1 718 3 is_stmt 0 discriminator 2 view .LVU501
 1421 000e 9854     		strb	r0, [r3, r2]
 718:Drivers/STM32F0xx_HAL_Driver/Src/stm32f0xx_hal_dma.c ****   
 1422              		.loc 1 718 3 is_stmt 1 discriminator 2 view .LVU502
 720:Drivers/STM32F0xx_HAL_Driver/Src/stm32f0xx_hal_dma.c ****   {
 1423              		.loc 1 720 3 discriminator 2 view .LVU503
 720:Drivers/STM32F0xx_HAL_Driver/Src/stm32f0xx_hal_dma.c ****   {
 1424              		.loc 1 720 33 is_stmt 0 discriminator 2 view .LVU504
 1425 0010 0132     		adds	r2, r2, #1
 1426 0012 9A5C     		ldrb	r2, [r3, r2]
 1427 0014 D0B2     		uxtb	r0, r2
 720:Drivers/STM32F0xx_HAL_Driver/Src/stm32f0xx_hal_dma.c ****   {
 1428              		.loc 1 720 5 discriminator 2 view .LVU505
 1429 0016 012A     		cmp	r2, #1
 1430 0018 04D0     		beq	.L85
 754:Drivers/STM32F0xx_HAL_Driver/Src/stm32f0xx_hal_dma.c ****   } 
 1431              		.loc 1 754 12 view .LVU506
 1432 001a 0120     		movs	r0, #1
 1433              	.L76:
 1434              	.LVL98:
 758:Drivers/STM32F0xx_HAL_Driver/Src/stm32f0xx_hal_dma.c ****   
 1435              		.loc 1 758 3 is_stmt 1 view .LVU507
 758:Drivers/STM32F0xx_HAL_Driver/Src/stm32f0xx_hal_dma.c ****   
 1436              		.loc 1 758 3 view .LVU508
 1437 001c 2022     		movs	r2, #32
 1438 001e 0021     		movs	r1, #0
 1439              	.LVL99:
 758:Drivers/STM32F0xx_HAL_Driver/Src/stm32f0xx_hal_dma.c ****   
 1440              		.loc 1 758 3 is_stmt 0 view .LVU509
 1441 0020 9954     		strb	r1, [r3, r2]
 758:Drivers/STM32F0xx_HAL_Driver/Src/stm32f0xx_hal_dma.c ****   
 1442              		.loc 1 758 3 is_stmt 1 view .LVU510
 760:Drivers/STM32F0xx_HAL_Driver/Src/stm32f0xx_hal_dma.c **** }
 1443              		.loc 1 760 3 view .LVU511
 1444              	.LVL100:
 1445              	.L75:
 761:Drivers/STM32F0xx_HAL_Driver/Src/stm32f0xx_hal_dma.c **** 
 1446              		.loc 1 761 1 is_stmt 0 view .LVU512
 1447              		@ sp needed
 1448 0022 7047     		bx	lr
 1449              	.LVL101:
 1450              	.L85:
 722:Drivers/STM32F0xx_HAL_Driver/Src/stm32f0xx_hal_dma.c ****     {
 1451              		.loc 1 722 5 is_stmt 1 view .LVU513
 1452 0024 0429     		cmp	r1, #4
ARM GAS  C:\Users\Password\AppData\Local\Temp\ccJqLrAb.s 			page 50


 1453 0026 F9D8     		bhi	.L76
 1454 0028 8A00     		lsls	r2, r1, #2
 1455 002a 0E48     		ldr	r0, .L86
 1456 002c 8258     		ldr	r2, [r0, r2]
 1457 002e 9746     		mov	pc, r2
 1458              		.section	.rodata.HAL_DMA_UnRegisterCallback,"a",%progbits
 1459              		.align	2
 1460              	.L78:
 1461 0000 30000000 		.word	.L82
 1462 0004 38000000 		.word	.L81
 1463 0008 40000000 		.word	.L80
 1464 000c 48000000 		.word	.L79
 1465 0010 50000000 		.word	.L77
 1466              		.section	.text.HAL_DMA_UnRegisterCallback
 1467              	.L82:
 725:Drivers/STM32F0xx_HAL_Driver/Src/stm32f0xx_hal_dma.c ****            break;
 1468              		.loc 1 725 12 view .LVU514
 725:Drivers/STM32F0xx_HAL_Driver/Src/stm32f0xx_hal_dma.c ****            break;
 1469              		.loc 1 725 35 is_stmt 0 view .LVU515
 1470 0030 0022     		movs	r2, #0
 1471 0032 9A62     		str	r2, [r3, #40]
 726:Drivers/STM32F0xx_HAL_Driver/Src/stm32f0xx_hal_dma.c ****        
 1472              		.loc 1 726 12 is_stmt 1 view .LVU516
 715:Drivers/STM32F0xx_HAL_Driver/Src/stm32f0xx_hal_dma.c **** 
 1473              		.loc 1 715 21 is_stmt 0 view .LVU517
 1474 0034 0800     		movs	r0, r1
 726:Drivers/STM32F0xx_HAL_Driver/Src/stm32f0xx_hal_dma.c ****        
 1475              		.loc 1 726 12 view .LVU518
 1476 0036 F1E7     		b	.L76
 1477              	.L81:
 729:Drivers/STM32F0xx_HAL_Driver/Src/stm32f0xx_hal_dma.c ****            break;         
 1478              		.loc 1 729 12 is_stmt 1 view .LVU519
 729:Drivers/STM32F0xx_HAL_Driver/Src/stm32f0xx_hal_dma.c ****            break;         
 1479              		.loc 1 729 39 is_stmt 0 view .LVU520
 1480 0038 0022     		movs	r2, #0
 1481 003a DA62     		str	r2, [r3, #44]
 730:Drivers/STM32F0xx_HAL_Driver/Src/stm32f0xx_hal_dma.c **** 
 1482              		.loc 1 730 12 is_stmt 1 view .LVU521
 715:Drivers/STM32F0xx_HAL_Driver/Src/stm32f0xx_hal_dma.c **** 
 1483              		.loc 1 715 21 is_stmt 0 view .LVU522
 1484 003c 0020     		movs	r0, #0
 730:Drivers/STM32F0xx_HAL_Driver/Src/stm32f0xx_hal_dma.c **** 
 1485              		.loc 1 730 12 view .LVU523
 1486 003e EDE7     		b	.L76
 1487              	.L80:
 733:Drivers/STM32F0xx_HAL_Driver/Src/stm32f0xx_hal_dma.c ****            break;         
 1488              		.loc 1 733 12 is_stmt 1 view .LVU524
 733:Drivers/STM32F0xx_HAL_Driver/Src/stm32f0xx_hal_dma.c ****            break;         
 1489              		.loc 1 733 36 is_stmt 0 view .LVU525
 1490 0040 0022     		movs	r2, #0
 1491 0042 1A63     		str	r2, [r3, #48]
 734:Drivers/STM32F0xx_HAL_Driver/Src/stm32f0xx_hal_dma.c ****            
 1492              		.loc 1 734 12 is_stmt 1 view .LVU526
 715:Drivers/STM32F0xx_HAL_Driver/Src/stm32f0xx_hal_dma.c **** 
 1493              		.loc 1 715 21 is_stmt 0 view .LVU527
 1494 0044 0020     		movs	r0, #0
 734:Drivers/STM32F0xx_HAL_Driver/Src/stm32f0xx_hal_dma.c ****            
ARM GAS  C:\Users\Password\AppData\Local\Temp\ccJqLrAb.s 			page 51


 1495              		.loc 1 734 12 view .LVU528
 1496 0046 E9E7     		b	.L76
 1497              	.L79:
 737:Drivers/STM32F0xx_HAL_Driver/Src/stm32f0xx_hal_dma.c ****            break; 
 1498              		.loc 1 737 12 is_stmt 1 view .LVU529
 737:Drivers/STM32F0xx_HAL_Driver/Src/stm32f0xx_hal_dma.c ****            break; 
 1499              		.loc 1 737 36 is_stmt 0 view .LVU530
 1500 0048 0022     		movs	r2, #0
 1501 004a 5A63     		str	r2, [r3, #52]
 738:Drivers/STM32F0xx_HAL_Driver/Src/stm32f0xx_hal_dma.c ****      
 1502              		.loc 1 738 12 is_stmt 1 view .LVU531
 715:Drivers/STM32F0xx_HAL_Driver/Src/stm32f0xx_hal_dma.c **** 
 1503              		.loc 1 715 21 is_stmt 0 view .LVU532
 1504 004c 0020     		movs	r0, #0
 738:Drivers/STM32F0xx_HAL_Driver/Src/stm32f0xx_hal_dma.c ****      
 1505              		.loc 1 738 12 view .LVU533
 1506 004e E5E7     		b	.L76
 1507              	.L77:
 741:Drivers/STM32F0xx_HAL_Driver/Src/stm32f0xx_hal_dma.c ****            hdma->XferHalfCpltCallback = NULL;
 1508              		.loc 1 741 12 is_stmt 1 view .LVU534
 741:Drivers/STM32F0xx_HAL_Driver/Src/stm32f0xx_hal_dma.c ****            hdma->XferHalfCpltCallback = NULL;
 1509              		.loc 1 741 35 is_stmt 0 view .LVU535
 1510 0050 0022     		movs	r2, #0
 1511 0052 9A62     		str	r2, [r3, #40]
 742:Drivers/STM32F0xx_HAL_Driver/Src/stm32f0xx_hal_dma.c ****            hdma->XferErrorCallback = NULL;
 1512              		.loc 1 742 12 is_stmt 1 view .LVU536
 742:Drivers/STM32F0xx_HAL_Driver/Src/stm32f0xx_hal_dma.c ****            hdma->XferErrorCallback = NULL;
 1513              		.loc 1 742 39 is_stmt 0 view .LVU537
 1514 0054 DA62     		str	r2, [r3, #44]
 743:Drivers/STM32F0xx_HAL_Driver/Src/stm32f0xx_hal_dma.c ****            hdma->XferAbortCallback = NULL;
 1515              		.loc 1 743 12 is_stmt 1 view .LVU538
 743:Drivers/STM32F0xx_HAL_Driver/Src/stm32f0xx_hal_dma.c ****            hdma->XferAbortCallback = NULL;
 1516              		.loc 1 743 36 is_stmt 0 view .LVU539
 1517 0056 1A63     		str	r2, [r3, #48]
 744:Drivers/STM32F0xx_HAL_Driver/Src/stm32f0xx_hal_dma.c ****            break; 
 1518              		.loc 1 744 12 is_stmt 1 view .LVU540
 744:Drivers/STM32F0xx_HAL_Driver/Src/stm32f0xx_hal_dma.c ****            break; 
 1519              		.loc 1 744 36 is_stmt 0 view .LVU541
 1520 0058 5A63     		str	r2, [r3, #52]
 745:Drivers/STM32F0xx_HAL_Driver/Src/stm32f0xx_hal_dma.c ****      
 1521              		.loc 1 745 12 is_stmt 1 view .LVU542
 715:Drivers/STM32F0xx_HAL_Driver/Src/stm32f0xx_hal_dma.c **** 
 1522              		.loc 1 715 21 is_stmt 0 view .LVU543
 1523 005a 0020     		movs	r0, #0
 745:Drivers/STM32F0xx_HAL_Driver/Src/stm32f0xx_hal_dma.c ****      
 1524              		.loc 1 745 12 view .LVU544
 1525 005c DEE7     		b	.L76
 1526              	.LVL102:
 1527              	.L83:
 718:Drivers/STM32F0xx_HAL_Driver/Src/stm32f0xx_hal_dma.c ****   
 1528              		.loc 1 718 3 view .LVU545
 1529 005e 0220     		movs	r0, #2
 1530              	.LVL103:
 718:Drivers/STM32F0xx_HAL_Driver/Src/stm32f0xx_hal_dma.c ****   
 1531              		.loc 1 718 3 view .LVU546
 1532 0060 DFE7     		b	.L75
 1533              	.L87:
ARM GAS  C:\Users\Password\AppData\Local\Temp\ccJqLrAb.s 			page 52


 1534 0062 C046     		.align	2
 1535              	.L86:
 1536 0064 00000000 		.word	.L78
 1537              		.cfi_endproc
 1538              	.LFE49:
 1540              		.section	.text.HAL_DMA_GetState,"ax",%progbits
 1541              		.align	1
 1542              		.global	HAL_DMA_GetState
 1543              		.syntax unified
 1544              		.code	16
 1545              		.thumb_func
 1547              	HAL_DMA_GetState:
 1548              	.LVL104:
 1549              	.LFB50:
 790:Drivers/STM32F0xx_HAL_Driver/Src/stm32f0xx_hal_dma.c ****   return hdma->State;
 1550              		.loc 1 790 1 is_stmt 1 view -0
 1551              		.cfi_startproc
 1552              		@ args = 0, pretend = 0, frame = 0
 1553              		@ frame_needed = 0, uses_anonymous_args = 0
 1554              		@ link register save eliminated.
 791:Drivers/STM32F0xx_HAL_Driver/Src/stm32f0xx_hal_dma.c **** }
 1555              		.loc 1 791 3 view .LVU548
 791:Drivers/STM32F0xx_HAL_Driver/Src/stm32f0xx_hal_dma.c **** }
 1556              		.loc 1 791 14 is_stmt 0 view .LVU549
 1557 0000 2123     		movs	r3, #33
 1558 0002 C05C     		ldrb	r0, [r0, r3]
 1559              	.LVL105:
 791:Drivers/STM32F0xx_HAL_Driver/Src/stm32f0xx_hal_dma.c **** }
 1560              		.loc 1 791 14 view .LVU550
 1561 0004 C0B2     		uxtb	r0, r0
 792:Drivers/STM32F0xx_HAL_Driver/Src/stm32f0xx_hal_dma.c **** 
 1562              		.loc 1 792 1 view .LVU551
 1563              		@ sp needed
 1564 0006 7047     		bx	lr
 1565              		.cfi_endproc
 1566              	.LFE50:
 1568              		.section	.text.HAL_DMA_GetError,"ax",%progbits
 1569              		.align	1
 1570              		.global	HAL_DMA_GetError
 1571              		.syntax unified
 1572              		.code	16
 1573              		.thumb_func
 1575              	HAL_DMA_GetError:
 1576              	.LVL106:
 1577              	.LFB51:
 801:Drivers/STM32F0xx_HAL_Driver/Src/stm32f0xx_hal_dma.c ****   return hdma->ErrorCode;
 1578              		.loc 1 801 1 is_stmt 1 view -0
 1579              		.cfi_startproc
 1580              		@ args = 0, pretend = 0, frame = 0
 1581              		@ frame_needed = 0, uses_anonymous_args = 0
 1582              		@ link register save eliminated.
 802:Drivers/STM32F0xx_HAL_Driver/Src/stm32f0xx_hal_dma.c **** }
 1583              		.loc 1 802 3 view .LVU553
 802:Drivers/STM32F0xx_HAL_Driver/Src/stm32f0xx_hal_dma.c **** }
 1584              		.loc 1 802 14 is_stmt 0 view .LVU554
 1585 0000 806B     		ldr	r0, [r0, #56]
 1586              	.LVL107:
ARM GAS  C:\Users\Password\AppData\Local\Temp\ccJqLrAb.s 			page 53


 803:Drivers/STM32F0xx_HAL_Driver/Src/stm32f0xx_hal_dma.c **** 
 1587              		.loc 1 803 1 view .LVU555
 1588              		@ sp needed
 1589 0002 7047     		bx	lr
 1590              		.cfi_endproc
 1591              	.LFE51:
 1593              		.text
 1594              	.Letext0:
 1595              		.file 2 "c:\\data\\program files (x86)\\arm gnu toolchain arm-none-eabi\\11.3 rel1\\arm-none-eabi\
 1596              		.file 3 "c:\\data\\program files (x86)\\arm gnu toolchain arm-none-eabi\\11.3 rel1\\arm-none-eabi\
 1597              		.file 4 "Drivers/CMSIS/Device/ST/STM32F0xx/Include/stm32f030x6.h"
 1598              		.file 5 "Drivers/CMSIS/Device/ST/STM32F0xx/Include/stm32f0xx.h"
 1599              		.file 6 "Drivers/STM32F0xx_HAL_Driver/Inc/stm32f0xx_hal_def.h"
 1600              		.file 7 "Drivers/STM32F0xx_HAL_Driver/Inc/stm32f0xx_hal_dma.h"
 1601              		.file 8 "Drivers/STM32F0xx_HAL_Driver/Inc/stm32f0xx_hal.h"
ARM GAS  C:\Users\Password\AppData\Local\Temp\ccJqLrAb.s 			page 54

