ARM GAS  C:\Users\Password\AppData\Local\Temp\ccQ2oVJO.s 			page 1


   1              		.cpu cortex-m0
   2              		.arch armv6s-m
   3              		.fpu softvfp
   4              		.eabi_attribute 20, 1
   5              		.eabi_attribute 21, 1
   6              		.eabi_attribute 23, 3
   7              		.eabi_attribute 24, 1
   8              		.eabi_attribute 25, 1
   9              		.eabi_attribute 26, 1
  10              		.eabi_attribute 30, 1
  11              		.eabi_attribute 34, 0
  12              		.eabi_attribute 18, 4
  13              		.file	"stm32f0xx_hal_rcc.c"
  14              		.text
  15              	.Ltext0:
  16              		.cfi_sections	.debug_frame
  17              		.section	.text.HAL_RCC_DeInit,"ax",%progbits
  18              		.align	1
  19              		.global	HAL_RCC_DeInit
  20              		.syntax unified
  21              		.code	16
  22              		.thumb_func
  24              	HAL_RCC_DeInit:
  25              	.LFB40:
  26              		.file 1 "Drivers/STM32F0xx_HAL_Driver/Src/stm32f0xx_hal_rcc.c"
   1:Drivers/STM32F0xx_HAL_Driver/Src/stm32f0xx_hal_rcc.c **** /**
   2:Drivers/STM32F0xx_HAL_Driver/Src/stm32f0xx_hal_rcc.c ****   ******************************************************************************
   3:Drivers/STM32F0xx_HAL_Driver/Src/stm32f0xx_hal_rcc.c ****   * @file    stm32f0xx_hal_rcc.c
   4:Drivers/STM32F0xx_HAL_Driver/Src/stm32f0xx_hal_rcc.c ****   * @author  MCD Application Team
   5:Drivers/STM32F0xx_HAL_Driver/Src/stm32f0xx_hal_rcc.c ****   * @brief   RCC HAL module driver.
   6:Drivers/STM32F0xx_HAL_Driver/Src/stm32f0xx_hal_rcc.c ****   *          This file provides firmware functions to manage the following 
   7:Drivers/STM32F0xx_HAL_Driver/Src/stm32f0xx_hal_rcc.c ****   *          functionalities of the Reset and Clock Control (RCC) peripheral:
   8:Drivers/STM32F0xx_HAL_Driver/Src/stm32f0xx_hal_rcc.c ****   *           + Initialization and de-initialization functions
   9:Drivers/STM32F0xx_HAL_Driver/Src/stm32f0xx_hal_rcc.c ****   *           + Peripheral Control functions
  10:Drivers/STM32F0xx_HAL_Driver/Src/stm32f0xx_hal_rcc.c ****   *       
  11:Drivers/STM32F0xx_HAL_Driver/Src/stm32f0xx_hal_rcc.c ****   @verbatim                
  12:Drivers/STM32F0xx_HAL_Driver/Src/stm32f0xx_hal_rcc.c ****   ==============================================================================
  13:Drivers/STM32F0xx_HAL_Driver/Src/stm32f0xx_hal_rcc.c ****                       ##### RCC specific features #####
  14:Drivers/STM32F0xx_HAL_Driver/Src/stm32f0xx_hal_rcc.c ****   ==============================================================================
  15:Drivers/STM32F0xx_HAL_Driver/Src/stm32f0xx_hal_rcc.c ****     [..]  
  16:Drivers/STM32F0xx_HAL_Driver/Src/stm32f0xx_hal_rcc.c ****       After reset the device is running from Internal High Speed oscillator
  17:Drivers/STM32F0xx_HAL_Driver/Src/stm32f0xx_hal_rcc.c ****       (HSI 8MHz) with Flash 0 wait state, Flash prefetch buffer is disabled, 
  18:Drivers/STM32F0xx_HAL_Driver/Src/stm32f0xx_hal_rcc.c ****       and all peripherals are off except internal SRAM, Flash and JTAG.
  19:Drivers/STM32F0xx_HAL_Driver/Src/stm32f0xx_hal_rcc.c ****       (+) There is no prescaler on High speed (AHB) and Low speed (APB) buses;
  20:Drivers/STM32F0xx_HAL_Driver/Src/stm32f0xx_hal_rcc.c ****           all peripherals mapped on these buses are running at HSI speed.
  21:Drivers/STM32F0xx_HAL_Driver/Src/stm32f0xx_hal_rcc.c ****       (+) The clock for all peripherals is switched off, except the SRAM and FLASH.
  22:Drivers/STM32F0xx_HAL_Driver/Src/stm32f0xx_hal_rcc.c ****       (+) All GPIOs are in input floating state, except the JTAG pins which
  23:Drivers/STM32F0xx_HAL_Driver/Src/stm32f0xx_hal_rcc.c ****           are assigned to be used for debug purpose.
  24:Drivers/STM32F0xx_HAL_Driver/Src/stm32f0xx_hal_rcc.c ****     [..] Once the device started from reset, the user application has to:
  25:Drivers/STM32F0xx_HAL_Driver/Src/stm32f0xx_hal_rcc.c ****       (+) Configure the clock source to be used to drive the System clock
  26:Drivers/STM32F0xx_HAL_Driver/Src/stm32f0xx_hal_rcc.c ****           (if the application needs higher frequency/performance)
  27:Drivers/STM32F0xx_HAL_Driver/Src/stm32f0xx_hal_rcc.c ****       (+) Configure the System clock frequency and Flash settings  
  28:Drivers/STM32F0xx_HAL_Driver/Src/stm32f0xx_hal_rcc.c ****       (+) Configure the AHB and APB buses prescalers
  29:Drivers/STM32F0xx_HAL_Driver/Src/stm32f0xx_hal_rcc.c ****       (+) Enable the clock for the peripheral(s) to be used
  30:Drivers/STM32F0xx_HAL_Driver/Src/stm32f0xx_hal_rcc.c ****       (+) Configure the clock source(s) for peripherals whose clocks are not
  31:Drivers/STM32F0xx_HAL_Driver/Src/stm32f0xx_hal_rcc.c ****           derived from the System clock (RTC, ADC, I2C, USART, TIM, USB FS, etc..)
  32:Drivers/STM32F0xx_HAL_Driver/Src/stm32f0xx_hal_rcc.c **** 
ARM GAS  C:\Users\Password\AppData\Local\Temp\ccQ2oVJO.s 			page 2


  33:Drivers/STM32F0xx_HAL_Driver/Src/stm32f0xx_hal_rcc.c ****                       ##### RCC Limitations #####
  34:Drivers/STM32F0xx_HAL_Driver/Src/stm32f0xx_hal_rcc.c ****   ==============================================================================
  35:Drivers/STM32F0xx_HAL_Driver/Src/stm32f0xx_hal_rcc.c ****     [..]  
  36:Drivers/STM32F0xx_HAL_Driver/Src/stm32f0xx_hal_rcc.c ****       A delay between an RCC peripheral clock enable and the effective peripheral 
  37:Drivers/STM32F0xx_HAL_Driver/Src/stm32f0xx_hal_rcc.c ****       enabling should be taken into account in order to manage the peripheral read/write 
  38:Drivers/STM32F0xx_HAL_Driver/Src/stm32f0xx_hal_rcc.c ****       from/to registers.
  39:Drivers/STM32F0xx_HAL_Driver/Src/stm32f0xx_hal_rcc.c ****       (+) This delay depends on the peripheral mapping.
  40:Drivers/STM32F0xx_HAL_Driver/Src/stm32f0xx_hal_rcc.c ****         (++) AHB & APB peripherals, 1 dummy read is necessary
  41:Drivers/STM32F0xx_HAL_Driver/Src/stm32f0xx_hal_rcc.c **** 
  42:Drivers/STM32F0xx_HAL_Driver/Src/stm32f0xx_hal_rcc.c ****     [..]  
  43:Drivers/STM32F0xx_HAL_Driver/Src/stm32f0xx_hal_rcc.c ****       Workarounds:
  44:Drivers/STM32F0xx_HAL_Driver/Src/stm32f0xx_hal_rcc.c ****       (#) For AHB & APB peripherals, a dummy read to the peripheral register has been
  45:Drivers/STM32F0xx_HAL_Driver/Src/stm32f0xx_hal_rcc.c ****           inserted in each __HAL_RCC_PPP_CLK_ENABLE() macro.
  46:Drivers/STM32F0xx_HAL_Driver/Src/stm32f0xx_hal_rcc.c **** 
  47:Drivers/STM32F0xx_HAL_Driver/Src/stm32f0xx_hal_rcc.c ****   @endverbatim
  48:Drivers/STM32F0xx_HAL_Driver/Src/stm32f0xx_hal_rcc.c ****   ******************************************************************************
  49:Drivers/STM32F0xx_HAL_Driver/Src/stm32f0xx_hal_rcc.c ****   * @attention
  50:Drivers/STM32F0xx_HAL_Driver/Src/stm32f0xx_hal_rcc.c ****   *
  51:Drivers/STM32F0xx_HAL_Driver/Src/stm32f0xx_hal_rcc.c ****   * <h2><center>&copy; Copyright (c) 2016 STMicroelectronics.
  52:Drivers/STM32F0xx_HAL_Driver/Src/stm32f0xx_hal_rcc.c ****   * All rights reserved.</center></h2>
  53:Drivers/STM32F0xx_HAL_Driver/Src/stm32f0xx_hal_rcc.c ****   *
  54:Drivers/STM32F0xx_HAL_Driver/Src/stm32f0xx_hal_rcc.c ****   * This software component is licensed by ST under BSD 3-Clause license,
  55:Drivers/STM32F0xx_HAL_Driver/Src/stm32f0xx_hal_rcc.c ****   * the "License"; You may not use this file except in compliance with the
  56:Drivers/STM32F0xx_HAL_Driver/Src/stm32f0xx_hal_rcc.c ****   * License. You may obtain a copy of the License at:
  57:Drivers/STM32F0xx_HAL_Driver/Src/stm32f0xx_hal_rcc.c ****   *                        opensource.org/licenses/BSD-3-Clause
  58:Drivers/STM32F0xx_HAL_Driver/Src/stm32f0xx_hal_rcc.c ****   *
  59:Drivers/STM32F0xx_HAL_Driver/Src/stm32f0xx_hal_rcc.c ****   ******************************************************************************
  60:Drivers/STM32F0xx_HAL_Driver/Src/stm32f0xx_hal_rcc.c ****   */
  61:Drivers/STM32F0xx_HAL_Driver/Src/stm32f0xx_hal_rcc.c **** 
  62:Drivers/STM32F0xx_HAL_Driver/Src/stm32f0xx_hal_rcc.c **** /* Includes ------------------------------------------------------------------*/
  63:Drivers/STM32F0xx_HAL_Driver/Src/stm32f0xx_hal_rcc.c **** #include "stm32f0xx_hal.h"
  64:Drivers/STM32F0xx_HAL_Driver/Src/stm32f0xx_hal_rcc.c **** 
  65:Drivers/STM32F0xx_HAL_Driver/Src/stm32f0xx_hal_rcc.c **** /** @addtogroup STM32F0xx_HAL_Driver
  66:Drivers/STM32F0xx_HAL_Driver/Src/stm32f0xx_hal_rcc.c ****   * @{
  67:Drivers/STM32F0xx_HAL_Driver/Src/stm32f0xx_hal_rcc.c ****   */
  68:Drivers/STM32F0xx_HAL_Driver/Src/stm32f0xx_hal_rcc.c **** 
  69:Drivers/STM32F0xx_HAL_Driver/Src/stm32f0xx_hal_rcc.c **** /** @defgroup RCC RCC
  70:Drivers/STM32F0xx_HAL_Driver/Src/stm32f0xx_hal_rcc.c **** * @brief RCC HAL module driver
  71:Drivers/STM32F0xx_HAL_Driver/Src/stm32f0xx_hal_rcc.c ****   * @{
  72:Drivers/STM32F0xx_HAL_Driver/Src/stm32f0xx_hal_rcc.c ****   */
  73:Drivers/STM32F0xx_HAL_Driver/Src/stm32f0xx_hal_rcc.c **** 
  74:Drivers/STM32F0xx_HAL_Driver/Src/stm32f0xx_hal_rcc.c **** #ifdef HAL_RCC_MODULE_ENABLED
  75:Drivers/STM32F0xx_HAL_Driver/Src/stm32f0xx_hal_rcc.c **** 
  76:Drivers/STM32F0xx_HAL_Driver/Src/stm32f0xx_hal_rcc.c **** /* Private typedef -----------------------------------------------------------*/
  77:Drivers/STM32F0xx_HAL_Driver/Src/stm32f0xx_hal_rcc.c **** /* Private define ------------------------------------------------------------*/
  78:Drivers/STM32F0xx_HAL_Driver/Src/stm32f0xx_hal_rcc.c **** /** @defgroup RCC_Private_Constants RCC Private Constants
  79:Drivers/STM32F0xx_HAL_Driver/Src/stm32f0xx_hal_rcc.c ****  * @{
  80:Drivers/STM32F0xx_HAL_Driver/Src/stm32f0xx_hal_rcc.c ****  */
  81:Drivers/STM32F0xx_HAL_Driver/Src/stm32f0xx_hal_rcc.c **** /**
  82:Drivers/STM32F0xx_HAL_Driver/Src/stm32f0xx_hal_rcc.c ****   * @}
  83:Drivers/STM32F0xx_HAL_Driver/Src/stm32f0xx_hal_rcc.c ****   */
  84:Drivers/STM32F0xx_HAL_Driver/Src/stm32f0xx_hal_rcc.c **** /* Private macro -------------------------------------------------------------*/
  85:Drivers/STM32F0xx_HAL_Driver/Src/stm32f0xx_hal_rcc.c **** /** @defgroup RCC_Private_Macros RCC Private Macros
  86:Drivers/STM32F0xx_HAL_Driver/Src/stm32f0xx_hal_rcc.c ****   * @{
  87:Drivers/STM32F0xx_HAL_Driver/Src/stm32f0xx_hal_rcc.c ****   */
  88:Drivers/STM32F0xx_HAL_Driver/Src/stm32f0xx_hal_rcc.c **** 
  89:Drivers/STM32F0xx_HAL_Driver/Src/stm32f0xx_hal_rcc.c **** #define MCO1_CLK_ENABLE()     __HAL_RCC_GPIOA_CLK_ENABLE()
ARM GAS  C:\Users\Password\AppData\Local\Temp\ccQ2oVJO.s 			page 3


  90:Drivers/STM32F0xx_HAL_Driver/Src/stm32f0xx_hal_rcc.c **** #define MCO1_GPIO_PORT        GPIOA
  91:Drivers/STM32F0xx_HAL_Driver/Src/stm32f0xx_hal_rcc.c **** #define MCO1_PIN              GPIO_PIN_8
  92:Drivers/STM32F0xx_HAL_Driver/Src/stm32f0xx_hal_rcc.c **** 
  93:Drivers/STM32F0xx_HAL_Driver/Src/stm32f0xx_hal_rcc.c **** /**
  94:Drivers/STM32F0xx_HAL_Driver/Src/stm32f0xx_hal_rcc.c ****   * @}
  95:Drivers/STM32F0xx_HAL_Driver/Src/stm32f0xx_hal_rcc.c ****   */
  96:Drivers/STM32F0xx_HAL_Driver/Src/stm32f0xx_hal_rcc.c **** 
  97:Drivers/STM32F0xx_HAL_Driver/Src/stm32f0xx_hal_rcc.c **** /* Private variables ---------------------------------------------------------*/
  98:Drivers/STM32F0xx_HAL_Driver/Src/stm32f0xx_hal_rcc.c **** /** @defgroup RCC_Private_Variables RCC Private Variables
  99:Drivers/STM32F0xx_HAL_Driver/Src/stm32f0xx_hal_rcc.c ****   * @{
 100:Drivers/STM32F0xx_HAL_Driver/Src/stm32f0xx_hal_rcc.c ****   */
 101:Drivers/STM32F0xx_HAL_Driver/Src/stm32f0xx_hal_rcc.c **** /**
 102:Drivers/STM32F0xx_HAL_Driver/Src/stm32f0xx_hal_rcc.c ****   * @}
 103:Drivers/STM32F0xx_HAL_Driver/Src/stm32f0xx_hal_rcc.c ****   */
 104:Drivers/STM32F0xx_HAL_Driver/Src/stm32f0xx_hal_rcc.c **** 
 105:Drivers/STM32F0xx_HAL_Driver/Src/stm32f0xx_hal_rcc.c **** /* Private function prototypes -----------------------------------------------*/
 106:Drivers/STM32F0xx_HAL_Driver/Src/stm32f0xx_hal_rcc.c **** /* Exported functions ---------------------------------------------------------*/
 107:Drivers/STM32F0xx_HAL_Driver/Src/stm32f0xx_hal_rcc.c **** 
 108:Drivers/STM32F0xx_HAL_Driver/Src/stm32f0xx_hal_rcc.c **** /** @defgroup RCC_Exported_Functions RCC Exported Functions
 109:Drivers/STM32F0xx_HAL_Driver/Src/stm32f0xx_hal_rcc.c ****   * @{
 110:Drivers/STM32F0xx_HAL_Driver/Src/stm32f0xx_hal_rcc.c ****   */
 111:Drivers/STM32F0xx_HAL_Driver/Src/stm32f0xx_hal_rcc.c **** 
 112:Drivers/STM32F0xx_HAL_Driver/Src/stm32f0xx_hal_rcc.c **** /** @defgroup RCC_Exported_Functions_Group1 Initialization and de-initialization functions 
 113:Drivers/STM32F0xx_HAL_Driver/Src/stm32f0xx_hal_rcc.c ****   *  @brief    Initialization and Configuration functions 
 114:Drivers/STM32F0xx_HAL_Driver/Src/stm32f0xx_hal_rcc.c ****   *
 115:Drivers/STM32F0xx_HAL_Driver/Src/stm32f0xx_hal_rcc.c ****   @verbatim    
 116:Drivers/STM32F0xx_HAL_Driver/Src/stm32f0xx_hal_rcc.c ****   ===============================================================================
 117:Drivers/STM32F0xx_HAL_Driver/Src/stm32f0xx_hal_rcc.c ****            ##### Initialization and de-initialization functions #####
 118:Drivers/STM32F0xx_HAL_Driver/Src/stm32f0xx_hal_rcc.c ****   ===============================================================================
 119:Drivers/STM32F0xx_HAL_Driver/Src/stm32f0xx_hal_rcc.c ****     [..]
 120:Drivers/STM32F0xx_HAL_Driver/Src/stm32f0xx_hal_rcc.c ****       This section provides functions allowing to configure the internal/external oscillators
 121:Drivers/STM32F0xx_HAL_Driver/Src/stm32f0xx_hal_rcc.c ****       (HSE, HSI, HSI14, HSI48, LSE, LSI, PLL, CSS and MCO) and the System buses clocks (SYSCLK, 
 122:Drivers/STM32F0xx_HAL_Driver/Src/stm32f0xx_hal_rcc.c ****       AHB and APB1).
 123:Drivers/STM32F0xx_HAL_Driver/Src/stm32f0xx_hal_rcc.c **** 
 124:Drivers/STM32F0xx_HAL_Driver/Src/stm32f0xx_hal_rcc.c ****     [..] Internal/external clock and PLL configuration
 125:Drivers/STM32F0xx_HAL_Driver/Src/stm32f0xx_hal_rcc.c ****       (#) HSI (high-speed internal), 8 MHz factory-trimmed RC used directly or through
 126:Drivers/STM32F0xx_HAL_Driver/Src/stm32f0xx_hal_rcc.c ****           the PLL as System clock source.
 127:Drivers/STM32F0xx_HAL_Driver/Src/stm32f0xx_hal_rcc.c ****           The HSI clock can be used also to clock the USART and I2C peripherals.
 128:Drivers/STM32F0xx_HAL_Driver/Src/stm32f0xx_hal_rcc.c **** 
 129:Drivers/STM32F0xx_HAL_Driver/Src/stm32f0xx_hal_rcc.c ****       (#) HSI14 (high-speed internal), 14 MHz factory-trimmed RC used directly to clock 
 130:Drivers/STM32F0xx_HAL_Driver/Src/stm32f0xx_hal_rcc.c ****           the ADC peripheral.
 131:Drivers/STM32F0xx_HAL_Driver/Src/stm32f0xx_hal_rcc.c **** 
 132:Drivers/STM32F0xx_HAL_Driver/Src/stm32f0xx_hal_rcc.c ****       (#) LSI (low-speed internal), ~40 KHz low consumption RC used as IWDG and/or RTC
 133:Drivers/STM32F0xx_HAL_Driver/Src/stm32f0xx_hal_rcc.c ****           clock source.
 134:Drivers/STM32F0xx_HAL_Driver/Src/stm32f0xx_hal_rcc.c **** 
 135:Drivers/STM32F0xx_HAL_Driver/Src/stm32f0xx_hal_rcc.c ****       (#) HSE (high-speed external), 4 to 32 MHz crystal oscillator used directly or
 136:Drivers/STM32F0xx_HAL_Driver/Src/stm32f0xx_hal_rcc.c ****           through the PLL as System clock source. Can be used also as RTC clock source.
 137:Drivers/STM32F0xx_HAL_Driver/Src/stm32f0xx_hal_rcc.c **** 
 138:Drivers/STM32F0xx_HAL_Driver/Src/stm32f0xx_hal_rcc.c ****       (#) LSE (low-speed external), 32 KHz oscillator used as RTC clock source.   
 139:Drivers/STM32F0xx_HAL_Driver/Src/stm32f0xx_hal_rcc.c **** 
 140:Drivers/STM32F0xx_HAL_Driver/Src/stm32f0xx_hal_rcc.c ****       (#) PLL (clocked by HSI, HSI48 or HSE), featuring different output clocks:
 141:Drivers/STM32F0xx_HAL_Driver/Src/stm32f0xx_hal_rcc.c ****        (++) The first output is used to generate the high speed system clock (up to 48 MHz)
 142:Drivers/STM32F0xx_HAL_Driver/Src/stm32f0xx_hal_rcc.c ****        (++) The second output is used to generate the clock for the USB FS (48 MHz)
 143:Drivers/STM32F0xx_HAL_Driver/Src/stm32f0xx_hal_rcc.c ****        (++) The third output may be used to generate the clock for the TIM, I2C and USART 
 144:Drivers/STM32F0xx_HAL_Driver/Src/stm32f0xx_hal_rcc.c ****             peripherals (up to 48 MHz)
 145:Drivers/STM32F0xx_HAL_Driver/Src/stm32f0xx_hal_rcc.c **** 
 146:Drivers/STM32F0xx_HAL_Driver/Src/stm32f0xx_hal_rcc.c ****       (#) CSS (Clock security system), once enable using the macro __HAL_RCC_CSS_ENABLE()
ARM GAS  C:\Users\Password\AppData\Local\Temp\ccQ2oVJO.s 			page 4


 147:Drivers/STM32F0xx_HAL_Driver/Src/stm32f0xx_hal_rcc.c ****           and if a HSE clock failure occurs(HSE used directly or through PLL as System 
 148:Drivers/STM32F0xx_HAL_Driver/Src/stm32f0xx_hal_rcc.c ****           clock source), the System clocks automatically switched to HSI and an interrupt
 149:Drivers/STM32F0xx_HAL_Driver/Src/stm32f0xx_hal_rcc.c ****           is generated if enabled. The interrupt is linked to the Cortex-M0 NMI 
 150:Drivers/STM32F0xx_HAL_Driver/Src/stm32f0xx_hal_rcc.c ****           (Non-Maskable Interrupt) exception vector.   
 151:Drivers/STM32F0xx_HAL_Driver/Src/stm32f0xx_hal_rcc.c **** 
 152:Drivers/STM32F0xx_HAL_Driver/Src/stm32f0xx_hal_rcc.c ****       (#) MCO (microcontroller clock output), used to output SYSCLK, HSI, HSE, LSI, LSE or PLL
 153:Drivers/STM32F0xx_HAL_Driver/Src/stm32f0xx_hal_rcc.c ****           clock (divided by 2) output on pin (such as PA8 pin).
 154:Drivers/STM32F0xx_HAL_Driver/Src/stm32f0xx_hal_rcc.c **** 
 155:Drivers/STM32F0xx_HAL_Driver/Src/stm32f0xx_hal_rcc.c ****     [..] System, AHB and APB buses clocks configuration
 156:Drivers/STM32F0xx_HAL_Driver/Src/stm32f0xx_hal_rcc.c ****       (#) Several clock sources can be used to drive the System clock (SYSCLK): HSI,
 157:Drivers/STM32F0xx_HAL_Driver/Src/stm32f0xx_hal_rcc.c ****           HSE and PLL.
 158:Drivers/STM32F0xx_HAL_Driver/Src/stm32f0xx_hal_rcc.c ****           The AHB clock (HCLK) is derived from System clock through configurable
 159:Drivers/STM32F0xx_HAL_Driver/Src/stm32f0xx_hal_rcc.c ****           prescaler and used to clock the CPU, memory and peripherals mapped
 160:Drivers/STM32F0xx_HAL_Driver/Src/stm32f0xx_hal_rcc.c ****           on AHB bus (DMA, GPIO...). APB1 (PCLK1) clock is derived
 161:Drivers/STM32F0xx_HAL_Driver/Src/stm32f0xx_hal_rcc.c ****           from AHB clock through configurable prescalers and used to clock
 162:Drivers/STM32F0xx_HAL_Driver/Src/stm32f0xx_hal_rcc.c ****           the peripherals mapped on these buses. You can use
 163:Drivers/STM32F0xx_HAL_Driver/Src/stm32f0xx_hal_rcc.c ****           "HAL_RCC_GetSysClockFreq()" function to retrieve the frequencies of these clocks.
 164:Drivers/STM32F0xx_HAL_Driver/Src/stm32f0xx_hal_rcc.c **** 
 165:Drivers/STM32F0xx_HAL_Driver/Src/stm32f0xx_hal_rcc.c ****       (#) All the peripheral clocks are derived from the System clock (SYSCLK) except:
 166:Drivers/STM32F0xx_HAL_Driver/Src/stm32f0xx_hal_rcc.c ****         (++) The FLASH program/erase clock  which is always HSI 8MHz clock.
 167:Drivers/STM32F0xx_HAL_Driver/Src/stm32f0xx_hal_rcc.c ****         (++) The USB 48 MHz clock which is derived from the PLL VCO clock.
 168:Drivers/STM32F0xx_HAL_Driver/Src/stm32f0xx_hal_rcc.c ****         (++) The USART clock which can be derived as well from HSI 8MHz, LSI or LSE.
 169:Drivers/STM32F0xx_HAL_Driver/Src/stm32f0xx_hal_rcc.c ****         (++) The I2C clock which can be derived as well from HSI 8MHz clock.
 170:Drivers/STM32F0xx_HAL_Driver/Src/stm32f0xx_hal_rcc.c ****         (++) The ADC clock which is derived from PLL output.
 171:Drivers/STM32F0xx_HAL_Driver/Src/stm32f0xx_hal_rcc.c ****         (++) The RTC clock which is derived from the LSE, LSI or 1 MHz HSE_RTC
 172:Drivers/STM32F0xx_HAL_Driver/Src/stm32f0xx_hal_rcc.c ****              (HSE divided by a programmable prescaler). The System clock (SYSCLK)
 173:Drivers/STM32F0xx_HAL_Driver/Src/stm32f0xx_hal_rcc.c ****              frequency must be higher or equal to the RTC clock frequency.
 174:Drivers/STM32F0xx_HAL_Driver/Src/stm32f0xx_hal_rcc.c ****         (++) IWDG clock which is always the LSI clock.
 175:Drivers/STM32F0xx_HAL_Driver/Src/stm32f0xx_hal_rcc.c **** 
 176:Drivers/STM32F0xx_HAL_Driver/Src/stm32f0xx_hal_rcc.c ****       (#) For the STM32F0xx devices, the maximum frequency of the SYSCLK, HCLK and PCLK1 is 48 MHz,
 177:Drivers/STM32F0xx_HAL_Driver/Src/stm32f0xx_hal_rcc.c ****           Depending on the SYSCLK frequency, the flash latency should be adapted accordingly.
 178:Drivers/STM32F0xx_HAL_Driver/Src/stm32f0xx_hal_rcc.c **** 
 179:Drivers/STM32F0xx_HAL_Driver/Src/stm32f0xx_hal_rcc.c ****       (#) After reset, the System clock source is the HSI (8 MHz) with 0 WS and
 180:Drivers/STM32F0xx_HAL_Driver/Src/stm32f0xx_hal_rcc.c ****           prefetch is disabled.
 181:Drivers/STM32F0xx_HAL_Driver/Src/stm32f0xx_hal_rcc.c ****   @endverbatim
 182:Drivers/STM32F0xx_HAL_Driver/Src/stm32f0xx_hal_rcc.c ****   * @{
 183:Drivers/STM32F0xx_HAL_Driver/Src/stm32f0xx_hal_rcc.c ****   */
 184:Drivers/STM32F0xx_HAL_Driver/Src/stm32f0xx_hal_rcc.c ****   
 185:Drivers/STM32F0xx_HAL_Driver/Src/stm32f0xx_hal_rcc.c **** /*
 186:Drivers/STM32F0xx_HAL_Driver/Src/stm32f0xx_hal_rcc.c ****   Additional consideration on the SYSCLK based on Latency settings:
 187:Drivers/STM32F0xx_HAL_Driver/Src/stm32f0xx_hal_rcc.c ****           +-----------------------------------------------+
 188:Drivers/STM32F0xx_HAL_Driver/Src/stm32f0xx_hal_rcc.c ****           | Latency       | SYSCLK clock frequency (MHz)  |
 189:Drivers/STM32F0xx_HAL_Driver/Src/stm32f0xx_hal_rcc.c ****           |---------------|-------------------------------|
 190:Drivers/STM32F0xx_HAL_Driver/Src/stm32f0xx_hal_rcc.c ****           |0WS(1CPU cycle)|       0 < SYSCLK <= 24        |
 191:Drivers/STM32F0xx_HAL_Driver/Src/stm32f0xx_hal_rcc.c ****           |---------------|-------------------------------|
 192:Drivers/STM32F0xx_HAL_Driver/Src/stm32f0xx_hal_rcc.c ****           |1WS(2CPU cycle)|      24 < SYSCLK <= 48        |
 193:Drivers/STM32F0xx_HAL_Driver/Src/stm32f0xx_hal_rcc.c ****           +-----------------------------------------------+
 194:Drivers/STM32F0xx_HAL_Driver/Src/stm32f0xx_hal_rcc.c ****   */
 195:Drivers/STM32F0xx_HAL_Driver/Src/stm32f0xx_hal_rcc.c **** 
 196:Drivers/STM32F0xx_HAL_Driver/Src/stm32f0xx_hal_rcc.c **** /**
 197:Drivers/STM32F0xx_HAL_Driver/Src/stm32f0xx_hal_rcc.c ****   * @brief  Resets the RCC clock configuration to the default reset state.
 198:Drivers/STM32F0xx_HAL_Driver/Src/stm32f0xx_hal_rcc.c ****   * @note   The default reset state of the clock configuration is given below:
 199:Drivers/STM32F0xx_HAL_Driver/Src/stm32f0xx_hal_rcc.c ****   *            - HSI ON and used as system clock source
 200:Drivers/STM32F0xx_HAL_Driver/Src/stm32f0xx_hal_rcc.c ****   *            - HSE and PLL OFF
 201:Drivers/STM32F0xx_HAL_Driver/Src/stm32f0xx_hal_rcc.c ****   *            - AHB, APB1 prescaler set to 1.
 202:Drivers/STM32F0xx_HAL_Driver/Src/stm32f0xx_hal_rcc.c ****   *            - CSS and MCO1 OFF
 203:Drivers/STM32F0xx_HAL_Driver/Src/stm32f0xx_hal_rcc.c ****   *            - All interrupts disabled
ARM GAS  C:\Users\Password\AppData\Local\Temp\ccQ2oVJO.s 			page 5


 204:Drivers/STM32F0xx_HAL_Driver/Src/stm32f0xx_hal_rcc.c ****   *            - All interrupt and reset flags cleared
 205:Drivers/STM32F0xx_HAL_Driver/Src/stm32f0xx_hal_rcc.c ****   * @note   This function does not modify the configuration of the
 206:Drivers/STM32F0xx_HAL_Driver/Src/stm32f0xx_hal_rcc.c ****   *            - Peripheral clocks
 207:Drivers/STM32F0xx_HAL_Driver/Src/stm32f0xx_hal_rcc.c ****   *            - LSI, LSE and RTC clocks
 208:Drivers/STM32F0xx_HAL_Driver/Src/stm32f0xx_hal_rcc.c ****   * @retval HAL status
 209:Drivers/STM32F0xx_HAL_Driver/Src/stm32f0xx_hal_rcc.c ****   */
 210:Drivers/STM32F0xx_HAL_Driver/Src/stm32f0xx_hal_rcc.c **** HAL_StatusTypeDef HAL_RCC_DeInit(void)
 211:Drivers/STM32F0xx_HAL_Driver/Src/stm32f0xx_hal_rcc.c **** {
  27              		.loc 1 211 1 view -0
  28              		.cfi_startproc
  29              		@ args = 0, pretend = 0, frame = 0
  30              		@ frame_needed = 0, uses_anonymous_args = 0
  31 0000 70B5     		push	{r4, r5, r6, lr}
  32              	.LCFI0:
  33              		.cfi_def_cfa_offset 16
  34              		.cfi_offset 4, -16
  35              		.cfi_offset 5, -12
  36              		.cfi_offset 6, -8
  37              		.cfi_offset 14, -4
 212:Drivers/STM32F0xx_HAL_Driver/Src/stm32f0xx_hal_rcc.c ****   uint32_t tickstart;
  38              		.loc 1 212 3 view .LVU1
 213:Drivers/STM32F0xx_HAL_Driver/Src/stm32f0xx_hal_rcc.c **** 
 214:Drivers/STM32F0xx_HAL_Driver/Src/stm32f0xx_hal_rcc.c ****   /* Get Start Tick*/
 215:Drivers/STM32F0xx_HAL_Driver/Src/stm32f0xx_hal_rcc.c ****   tickstart = HAL_GetTick();
  39              		.loc 1 215 3 view .LVU2
  40              		.loc 1 215 15 is_stmt 0 view .LVU3
  41 0002 FFF7FEFF 		bl	HAL_GetTick
  42              	.LVL0:
  43 0006 0400     		movs	r4, r0
  44              	.LVL1:
 216:Drivers/STM32F0xx_HAL_Driver/Src/stm32f0xx_hal_rcc.c ****   
 217:Drivers/STM32F0xx_HAL_Driver/Src/stm32f0xx_hal_rcc.c ****   /* Set HSION bit, HSITRIM[4:0] bits to the reset value*/
 218:Drivers/STM32F0xx_HAL_Driver/Src/stm32f0xx_hal_rcc.c ****   SET_BIT(RCC->CR, RCC_CR_HSION | RCC_CR_HSITRIM_4); 
  45              		.loc 1 218 3 is_stmt 1 view .LVU4
  46 0008 284A     		ldr	r2, .L17
  47 000a 1368     		ldr	r3, [r2]
  48 000c 8121     		movs	r1, #129
  49 000e 0B43     		orrs	r3, r1
  50 0010 1360     		str	r3, [r2]
 219:Drivers/STM32F0xx_HAL_Driver/Src/stm32f0xx_hal_rcc.c **** 
 220:Drivers/STM32F0xx_HAL_Driver/Src/stm32f0xx_hal_rcc.c ****   /* Wait till HSI is ready */
 221:Drivers/STM32F0xx_HAL_Driver/Src/stm32f0xx_hal_rcc.c ****   while (READ_BIT(RCC->CR, RCC_CR_HSIRDY) == RESET)
  51              		.loc 1 221 3 view .LVU5
  52              	.LVL2:
  53              	.L2:
  54              		.loc 1 221 43 view .LVU6
  55              		.loc 1 221 10 is_stmt 0 view .LVU7
  56 0012 264B     		ldr	r3, .L17
  57 0014 1B68     		ldr	r3, [r3]
  58              		.loc 1 221 43 view .LVU8
  59 0016 9B07     		lsls	r3, r3, #30
  60 0018 07D4     		bmi	.L13
 222:Drivers/STM32F0xx_HAL_Driver/Src/stm32f0xx_hal_rcc.c ****   {
 223:Drivers/STM32F0xx_HAL_Driver/Src/stm32f0xx_hal_rcc.c ****     if ((HAL_GetTick() - tickstart) > HSI_TIMEOUT_VALUE)
  61              		.loc 1 223 5 is_stmt 1 view .LVU9
  62              		.loc 1 223 10 is_stmt 0 view .LVU10
  63 001a FFF7FEFF 		bl	HAL_GetTick
ARM GAS  C:\Users\Password\AppData\Local\Temp\ccQ2oVJO.s 			page 6


  64              	.LVL3:
  65              		.loc 1 223 24 view .LVU11
  66 001e 001B     		subs	r0, r0, r4
  67              		.loc 1 223 8 view .LVU12
  68 0020 0228     		cmp	r0, #2
  69 0022 F6D9     		bls	.L2
 224:Drivers/STM32F0xx_HAL_Driver/Src/stm32f0xx_hal_rcc.c ****     {
 225:Drivers/STM32F0xx_HAL_Driver/Src/stm32f0xx_hal_rcc.c ****       return HAL_TIMEOUT;
  70              		.loc 1 225 14 view .LVU13
  71 0024 0324     		movs	r4, #3
  72              	.LVL4:
  73              	.L3:
 226:Drivers/STM32F0xx_HAL_Driver/Src/stm32f0xx_hal_rcc.c ****     }
 227:Drivers/STM32F0xx_HAL_Driver/Src/stm32f0xx_hal_rcc.c ****   }
 228:Drivers/STM32F0xx_HAL_Driver/Src/stm32f0xx_hal_rcc.c **** 
 229:Drivers/STM32F0xx_HAL_Driver/Src/stm32f0xx_hal_rcc.c ****   /* Reset SW[1:0], HPRE[3:0], PPRE[2:0] and MCOSEL[2:0] bits */
 230:Drivers/STM32F0xx_HAL_Driver/Src/stm32f0xx_hal_rcc.c ****   CLEAR_BIT(RCC->CFGR, RCC_CFGR_SW | RCC_CFGR_HPRE | RCC_CFGR_PPRE | RCC_CFGR_MCO);
 231:Drivers/STM32F0xx_HAL_Driver/Src/stm32f0xx_hal_rcc.c **** 
 232:Drivers/STM32F0xx_HAL_Driver/Src/stm32f0xx_hal_rcc.c ****   /* Wait till HSI as SYSCLK status is enabled */
 233:Drivers/STM32F0xx_HAL_Driver/Src/stm32f0xx_hal_rcc.c ****   while (READ_BIT(RCC->CFGR, RCC_CFGR_SWS) != RESET)
 234:Drivers/STM32F0xx_HAL_Driver/Src/stm32f0xx_hal_rcc.c ****   {
 235:Drivers/STM32F0xx_HAL_Driver/Src/stm32f0xx_hal_rcc.c ****     if ((HAL_GetTick() - tickstart) > CLOCKSWITCH_TIMEOUT_VALUE)
 236:Drivers/STM32F0xx_HAL_Driver/Src/stm32f0xx_hal_rcc.c ****     {
 237:Drivers/STM32F0xx_HAL_Driver/Src/stm32f0xx_hal_rcc.c ****       return HAL_TIMEOUT;
 238:Drivers/STM32F0xx_HAL_Driver/Src/stm32f0xx_hal_rcc.c ****     }
 239:Drivers/STM32F0xx_HAL_Driver/Src/stm32f0xx_hal_rcc.c ****   }
 240:Drivers/STM32F0xx_HAL_Driver/Src/stm32f0xx_hal_rcc.c **** 
 241:Drivers/STM32F0xx_HAL_Driver/Src/stm32f0xx_hal_rcc.c ****   /* Update the SystemCoreClock global variable for HSI as system clock source */
 242:Drivers/STM32F0xx_HAL_Driver/Src/stm32f0xx_hal_rcc.c ****   SystemCoreClock = HSI_VALUE;
 243:Drivers/STM32F0xx_HAL_Driver/Src/stm32f0xx_hal_rcc.c **** 
 244:Drivers/STM32F0xx_HAL_Driver/Src/stm32f0xx_hal_rcc.c ****   /* Adapt Systick interrupt period */
 245:Drivers/STM32F0xx_HAL_Driver/Src/stm32f0xx_hal_rcc.c ****   if (HAL_InitTick(uwTickPrio) != HAL_OK)
 246:Drivers/STM32F0xx_HAL_Driver/Src/stm32f0xx_hal_rcc.c ****   {
 247:Drivers/STM32F0xx_HAL_Driver/Src/stm32f0xx_hal_rcc.c ****     return HAL_ERROR;
 248:Drivers/STM32F0xx_HAL_Driver/Src/stm32f0xx_hal_rcc.c ****   }
 249:Drivers/STM32F0xx_HAL_Driver/Src/stm32f0xx_hal_rcc.c **** 
 250:Drivers/STM32F0xx_HAL_Driver/Src/stm32f0xx_hal_rcc.c ****   /* Reset HSEON, CSSON, PLLON bits */
 251:Drivers/STM32F0xx_HAL_Driver/Src/stm32f0xx_hal_rcc.c ****   CLEAR_BIT(RCC->CR, RCC_CR_PLLON | RCC_CR_CSSON | RCC_CR_HSEON);
 252:Drivers/STM32F0xx_HAL_Driver/Src/stm32f0xx_hal_rcc.c ****   
 253:Drivers/STM32F0xx_HAL_Driver/Src/stm32f0xx_hal_rcc.c ****   /* Reset HSEBYP bit */
 254:Drivers/STM32F0xx_HAL_Driver/Src/stm32f0xx_hal_rcc.c ****   CLEAR_BIT(RCC->CR, RCC_CR_HSEBYP);
 255:Drivers/STM32F0xx_HAL_Driver/Src/stm32f0xx_hal_rcc.c **** 
 256:Drivers/STM32F0xx_HAL_Driver/Src/stm32f0xx_hal_rcc.c ****   /* Get start tick */
 257:Drivers/STM32F0xx_HAL_Driver/Src/stm32f0xx_hal_rcc.c ****   tickstart = HAL_GetTick();
 258:Drivers/STM32F0xx_HAL_Driver/Src/stm32f0xx_hal_rcc.c ****   
 259:Drivers/STM32F0xx_HAL_Driver/Src/stm32f0xx_hal_rcc.c ****   /* Wait till PLLRDY is cleared */
 260:Drivers/STM32F0xx_HAL_Driver/Src/stm32f0xx_hal_rcc.c ****   while(READ_BIT(RCC->CR, RCC_CR_PLLRDY) != RESET)
 261:Drivers/STM32F0xx_HAL_Driver/Src/stm32f0xx_hal_rcc.c ****   {
 262:Drivers/STM32F0xx_HAL_Driver/Src/stm32f0xx_hal_rcc.c ****     if((HAL_GetTick() - tickstart) > PLL_TIMEOUT_VALUE)
 263:Drivers/STM32F0xx_HAL_Driver/Src/stm32f0xx_hal_rcc.c ****     {
 264:Drivers/STM32F0xx_HAL_Driver/Src/stm32f0xx_hal_rcc.c ****       return HAL_TIMEOUT;
 265:Drivers/STM32F0xx_HAL_Driver/Src/stm32f0xx_hal_rcc.c ****     }
 266:Drivers/STM32F0xx_HAL_Driver/Src/stm32f0xx_hal_rcc.c ****   }
 267:Drivers/STM32F0xx_HAL_Driver/Src/stm32f0xx_hal_rcc.c **** 
 268:Drivers/STM32F0xx_HAL_Driver/Src/stm32f0xx_hal_rcc.c ****   /* Reset CFGR register */
 269:Drivers/STM32F0xx_HAL_Driver/Src/stm32f0xx_hal_rcc.c ****   CLEAR_REG(RCC->CFGR);
 270:Drivers/STM32F0xx_HAL_Driver/Src/stm32f0xx_hal_rcc.c **** 
ARM GAS  C:\Users\Password\AppData\Local\Temp\ccQ2oVJO.s 			page 7


 271:Drivers/STM32F0xx_HAL_Driver/Src/stm32f0xx_hal_rcc.c ****   /* Reset CFGR2 register */
 272:Drivers/STM32F0xx_HAL_Driver/Src/stm32f0xx_hal_rcc.c ****   CLEAR_REG(RCC->CFGR2);
 273:Drivers/STM32F0xx_HAL_Driver/Src/stm32f0xx_hal_rcc.c **** 
 274:Drivers/STM32F0xx_HAL_Driver/Src/stm32f0xx_hal_rcc.c ****   /* Reset CFGR3 register */
 275:Drivers/STM32F0xx_HAL_Driver/Src/stm32f0xx_hal_rcc.c ****   CLEAR_REG(RCC->CFGR3);
 276:Drivers/STM32F0xx_HAL_Driver/Src/stm32f0xx_hal_rcc.c **** 
 277:Drivers/STM32F0xx_HAL_Driver/Src/stm32f0xx_hal_rcc.c ****   /* Disable all interrupts */
 278:Drivers/STM32F0xx_HAL_Driver/Src/stm32f0xx_hal_rcc.c ****   CLEAR_REG(RCC->CIR);
 279:Drivers/STM32F0xx_HAL_Driver/Src/stm32f0xx_hal_rcc.c **** 
 280:Drivers/STM32F0xx_HAL_Driver/Src/stm32f0xx_hal_rcc.c ****   /* Clear all reset flags */
 281:Drivers/STM32F0xx_HAL_Driver/Src/stm32f0xx_hal_rcc.c ****   __HAL_RCC_CLEAR_RESET_FLAGS();
 282:Drivers/STM32F0xx_HAL_Driver/Src/stm32f0xx_hal_rcc.c **** 
 283:Drivers/STM32F0xx_HAL_Driver/Src/stm32f0xx_hal_rcc.c ****   return HAL_OK;
 284:Drivers/STM32F0xx_HAL_Driver/Src/stm32f0xx_hal_rcc.c **** }
  74              		.loc 1 284 1 view .LVU14
  75 0026 2000     		movs	r0, r4
  76              		@ sp needed
  77 0028 70BD     		pop	{r4, r5, r6, pc}
  78              	.LVL5:
  79              	.L13:
 230:Drivers/STM32F0xx_HAL_Driver/Src/stm32f0xx_hal_rcc.c **** 
  80              		.loc 1 230 3 is_stmt 1 view .LVU15
  81 002a 204A     		ldr	r2, .L17
  82 002c 5368     		ldr	r3, [r2, #4]
  83 002e 2049     		ldr	r1, .L17+4
  84 0030 0B40     		ands	r3, r1
  85 0032 5360     		str	r3, [r2, #4]
 233:Drivers/STM32F0xx_HAL_Driver/Src/stm32f0xx_hal_rcc.c ****   {
  86              		.loc 1 233 3 view .LVU16
  87              	.L5:
 233:Drivers/STM32F0xx_HAL_Driver/Src/stm32f0xx_hal_rcc.c ****   {
  88              		.loc 1 233 44 view .LVU17
 233:Drivers/STM32F0xx_HAL_Driver/Src/stm32f0xx_hal_rcc.c ****   {
  89              		.loc 1 233 10 is_stmt 0 view .LVU18
  90 0034 1D4B     		ldr	r3, .L17
  91 0036 5B68     		ldr	r3, [r3, #4]
  92 0038 0C22     		movs	r2, #12
 233:Drivers/STM32F0xx_HAL_Driver/Src/stm32f0xx_hal_rcc.c ****   {
  93              		.loc 1 233 44 view .LVU19
  94 003a 1A42     		tst	r2, r3
  95 003c 07D0     		beq	.L14
 235:Drivers/STM32F0xx_HAL_Driver/Src/stm32f0xx_hal_rcc.c ****     {
  96              		.loc 1 235 5 is_stmt 1 view .LVU20
 235:Drivers/STM32F0xx_HAL_Driver/Src/stm32f0xx_hal_rcc.c ****     {
  97              		.loc 1 235 10 is_stmt 0 view .LVU21
  98 003e FFF7FEFF 		bl	HAL_GetTick
  99              	.LVL6:
 235:Drivers/STM32F0xx_HAL_Driver/Src/stm32f0xx_hal_rcc.c ****     {
 100              		.loc 1 235 24 view .LVU22
 101 0042 001B     		subs	r0, r0, r4
 235:Drivers/STM32F0xx_HAL_Driver/Src/stm32f0xx_hal_rcc.c ****     {
 102              		.loc 1 235 8 view .LVU23
 103 0044 1B4B     		ldr	r3, .L17+8
 104 0046 9842     		cmp	r0, r3
 105 0048 F4D9     		bls	.L5
 237:Drivers/STM32F0xx_HAL_Driver/Src/stm32f0xx_hal_rcc.c ****     }
 106              		.loc 1 237 14 view .LVU24
ARM GAS  C:\Users\Password\AppData\Local\Temp\ccQ2oVJO.s 			page 8


 107 004a 0324     		movs	r4, #3
 108              	.LVL7:
 237:Drivers/STM32F0xx_HAL_Driver/Src/stm32f0xx_hal_rcc.c ****     }
 109              		.loc 1 237 14 view .LVU25
 110 004c EBE7     		b	.L3
 111              	.LVL8:
 112              	.L14:
 242:Drivers/STM32F0xx_HAL_Driver/Src/stm32f0xx_hal_rcc.c **** 
 113              		.loc 1 242 3 is_stmt 1 view .LVU26
 242:Drivers/STM32F0xx_HAL_Driver/Src/stm32f0xx_hal_rcc.c **** 
 114              		.loc 1 242 19 is_stmt 0 view .LVU27
 115 004e 1A4B     		ldr	r3, .L17+12
 116 0050 1A4A     		ldr	r2, .L17+16
 117 0052 1A60     		str	r2, [r3]
 245:Drivers/STM32F0xx_HAL_Driver/Src/stm32f0xx_hal_rcc.c ****   {
 118              		.loc 1 245 3 is_stmt 1 view .LVU28
 245:Drivers/STM32F0xx_HAL_Driver/Src/stm32f0xx_hal_rcc.c ****   {
 119              		.loc 1 245 7 is_stmt 0 view .LVU29
 120 0054 1A4B     		ldr	r3, .L17+20
 121 0056 1868     		ldr	r0, [r3]
 122 0058 FFF7FEFF 		bl	HAL_InitTick
 123              	.LVL9:
 124 005c 041E     		subs	r4, r0, #0
 125              	.LVL10:
 245:Drivers/STM32F0xx_HAL_Driver/Src/stm32f0xx_hal_rcc.c ****   {
 126              		.loc 1 245 6 view .LVU30
 127 005e 01D0     		beq	.L15
 247:Drivers/STM32F0xx_HAL_Driver/Src/stm32f0xx_hal_rcc.c ****   }
 128              		.loc 1 247 12 view .LVU31
 129 0060 0124     		movs	r4, #1
 130 0062 E0E7     		b	.L3
 131              	.L15:
 251:Drivers/STM32F0xx_HAL_Driver/Src/stm32f0xx_hal_rcc.c ****   
 132              		.loc 1 251 3 is_stmt 1 view .LVU32
 133 0064 114B     		ldr	r3, .L17
 134 0066 1A68     		ldr	r2, [r3]
 135 0068 1649     		ldr	r1, .L17+24
 136 006a 0A40     		ands	r2, r1
 137 006c 1A60     		str	r2, [r3]
 254:Drivers/STM32F0xx_HAL_Driver/Src/stm32f0xx_hal_rcc.c **** 
 138              		.loc 1 254 3 view .LVU33
 139 006e 1A68     		ldr	r2, [r3]
 140 0070 1549     		ldr	r1, .L17+28
 141 0072 0A40     		ands	r2, r1
 142 0074 1A60     		str	r2, [r3]
 257:Drivers/STM32F0xx_HAL_Driver/Src/stm32f0xx_hal_rcc.c ****   
 143              		.loc 1 257 3 view .LVU34
 257:Drivers/STM32F0xx_HAL_Driver/Src/stm32f0xx_hal_rcc.c ****   
 144              		.loc 1 257 15 is_stmt 0 view .LVU35
 145 0076 FFF7FEFF 		bl	HAL_GetTick
 146              	.LVL11:
 147 007a 0500     		movs	r5, r0
 148              	.LVL12:
 260:Drivers/STM32F0xx_HAL_Driver/Src/stm32f0xx_hal_rcc.c ****   {
 149              		.loc 1 260 3 is_stmt 1 view .LVU36
 150              	.L7:
 260:Drivers/STM32F0xx_HAL_Driver/Src/stm32f0xx_hal_rcc.c ****   {
ARM GAS  C:\Users\Password\AppData\Local\Temp\ccQ2oVJO.s 			page 9


 151              		.loc 1 260 42 view .LVU37
 260:Drivers/STM32F0xx_HAL_Driver/Src/stm32f0xx_hal_rcc.c ****   {
 152              		.loc 1 260 9 is_stmt 0 view .LVU38
 153 007c 0B4B     		ldr	r3, .L17
 154 007e 1B68     		ldr	r3, [r3]
 260:Drivers/STM32F0xx_HAL_Driver/Src/stm32f0xx_hal_rcc.c ****   {
 155              		.loc 1 260 42 view .LVU39
 156 0080 9B01     		lsls	r3, r3, #6
 157 0082 06D5     		bpl	.L16
 262:Drivers/STM32F0xx_HAL_Driver/Src/stm32f0xx_hal_rcc.c ****     {
 158              		.loc 1 262 5 is_stmt 1 view .LVU40
 262:Drivers/STM32F0xx_HAL_Driver/Src/stm32f0xx_hal_rcc.c ****     {
 159              		.loc 1 262 9 is_stmt 0 view .LVU41
 160 0084 FFF7FEFF 		bl	HAL_GetTick
 161              	.LVL13:
 262:Drivers/STM32F0xx_HAL_Driver/Src/stm32f0xx_hal_rcc.c ****     {
 162              		.loc 1 262 23 view .LVU42
 163 0088 401B     		subs	r0, r0, r5
 262:Drivers/STM32F0xx_HAL_Driver/Src/stm32f0xx_hal_rcc.c ****     {
 164              		.loc 1 262 7 view .LVU43
 165 008a 0228     		cmp	r0, #2
 166 008c F6D9     		bls	.L7
 264:Drivers/STM32F0xx_HAL_Driver/Src/stm32f0xx_hal_rcc.c ****     }
 167              		.loc 1 264 14 view .LVU44
 168 008e 0324     		movs	r4, #3
 169 0090 C9E7     		b	.L3
 170              	.L16:
 269:Drivers/STM32F0xx_HAL_Driver/Src/stm32f0xx_hal_rcc.c **** 
 171              		.loc 1 269 3 is_stmt 1 view .LVU45
 172 0092 064B     		ldr	r3, .L17
 173 0094 0022     		movs	r2, #0
 174 0096 5A60     		str	r2, [r3, #4]
 272:Drivers/STM32F0xx_HAL_Driver/Src/stm32f0xx_hal_rcc.c **** 
 175              		.loc 1 272 3 view .LVU46
 176 0098 DA62     		str	r2, [r3, #44]
 275:Drivers/STM32F0xx_HAL_Driver/Src/stm32f0xx_hal_rcc.c **** 
 177              		.loc 1 275 3 view .LVU47
 178 009a 1A63     		str	r2, [r3, #48]
 278:Drivers/STM32F0xx_HAL_Driver/Src/stm32f0xx_hal_rcc.c **** 
 179              		.loc 1 278 3 view .LVU48
 180 009c 9A60     		str	r2, [r3, #8]
 281:Drivers/STM32F0xx_HAL_Driver/Src/stm32f0xx_hal_rcc.c **** 
 181              		.loc 1 281 3 view .LVU49
 182 009e 596A     		ldr	r1, [r3, #36]
 183 00a0 8022     		movs	r2, #128
 184 00a2 5204     		lsls	r2, r2, #17
 185 00a4 0A43     		orrs	r2, r1
 186 00a6 5A62     		str	r2, [r3, #36]
 283:Drivers/STM32F0xx_HAL_Driver/Src/stm32f0xx_hal_rcc.c **** }
 187              		.loc 1 283 3 view .LVU50
 283:Drivers/STM32F0xx_HAL_Driver/Src/stm32f0xx_hal_rcc.c **** }
 188              		.loc 1 283 10 is_stmt 0 view .LVU51
 189 00a8 BDE7     		b	.L3
 190              	.L18:
 191 00aa C046     		.align	2
 192              	.L17:
 193 00ac 00100240 		.word	1073876992
ARM GAS  C:\Users\Password\AppData\Local\Temp\ccQ2oVJO.s 			page 10


 194 00b0 0CF8FFF0 		.word	-251660276
 195 00b4 88130000 		.word	5000
 196 00b8 00000000 		.word	SystemCoreClock
 197 00bc 00127A00 		.word	8000000
 198 00c0 00000000 		.word	uwTickPrio
 199 00c4 FFFFF6FE 		.word	-17367041
 200 00c8 FFFFFBFF 		.word	-262145
 201              		.cfi_endproc
 202              	.LFE40:
 204              		.section	.text.HAL_RCC_OscConfig,"ax",%progbits
 205              		.align	1
 206              		.global	HAL_RCC_OscConfig
 207              		.syntax unified
 208              		.code	16
 209              		.thumb_func
 211              	HAL_RCC_OscConfig:
 212              	.LVL14:
 213              	.LFB41:
 285:Drivers/STM32F0xx_HAL_Driver/Src/stm32f0xx_hal_rcc.c **** 
 286:Drivers/STM32F0xx_HAL_Driver/Src/stm32f0xx_hal_rcc.c **** /**
 287:Drivers/STM32F0xx_HAL_Driver/Src/stm32f0xx_hal_rcc.c ****   * @brief  Initializes the RCC Oscillators according to the specified parameters in the
 288:Drivers/STM32F0xx_HAL_Driver/Src/stm32f0xx_hal_rcc.c ****   *         RCC_OscInitTypeDef.
 289:Drivers/STM32F0xx_HAL_Driver/Src/stm32f0xx_hal_rcc.c ****   * @param  RCC_OscInitStruct pointer to an RCC_OscInitTypeDef structure that
 290:Drivers/STM32F0xx_HAL_Driver/Src/stm32f0xx_hal_rcc.c ****   *         contains the configuration information for the RCC Oscillators.
 291:Drivers/STM32F0xx_HAL_Driver/Src/stm32f0xx_hal_rcc.c ****   * @note   The PLL is not disabled when used as system clock.
 292:Drivers/STM32F0xx_HAL_Driver/Src/stm32f0xx_hal_rcc.c ****   * @note   Transitions LSE Bypass to LSE On and LSE On to LSE Bypass are not
 293:Drivers/STM32F0xx_HAL_Driver/Src/stm32f0xx_hal_rcc.c ****   *         supported by this macro. User should request a transition to LSE Off
 294:Drivers/STM32F0xx_HAL_Driver/Src/stm32f0xx_hal_rcc.c ****   *         first and then LSE On or LSE Bypass.
 295:Drivers/STM32F0xx_HAL_Driver/Src/stm32f0xx_hal_rcc.c ****   * @note   Transition HSE Bypass to HSE On and HSE On to HSE Bypass are not
 296:Drivers/STM32F0xx_HAL_Driver/Src/stm32f0xx_hal_rcc.c ****   *         supported by this macro. User should request a transition to HSE Off
 297:Drivers/STM32F0xx_HAL_Driver/Src/stm32f0xx_hal_rcc.c ****   *         first and then HSE On or HSE Bypass.
 298:Drivers/STM32F0xx_HAL_Driver/Src/stm32f0xx_hal_rcc.c ****   * @retval HAL status
 299:Drivers/STM32F0xx_HAL_Driver/Src/stm32f0xx_hal_rcc.c ****   */
 300:Drivers/STM32F0xx_HAL_Driver/Src/stm32f0xx_hal_rcc.c **** HAL_StatusTypeDef HAL_RCC_OscConfig(RCC_OscInitTypeDef  *RCC_OscInitStruct)
 301:Drivers/STM32F0xx_HAL_Driver/Src/stm32f0xx_hal_rcc.c **** {
 214              		.loc 1 301 1 is_stmt 1 view -0
 215              		.cfi_startproc
 216              		@ args = 0, pretend = 0, frame = 8
 217              		@ frame_needed = 0, uses_anonymous_args = 0
 218              		.loc 1 301 1 is_stmt 0 view .LVU53
 219 0000 70B5     		push	{r4, r5, r6, lr}
 220              	.LCFI1:
 221              		.cfi_def_cfa_offset 16
 222              		.cfi_offset 4, -16
 223              		.cfi_offset 5, -12
 224              		.cfi_offset 6, -8
 225              		.cfi_offset 14, -4
 226 0002 82B0     		sub	sp, sp, #8
 227              	.LCFI2:
 228              		.cfi_def_cfa_offset 24
 229 0004 041E     		subs	r4, r0, #0
 302:Drivers/STM32F0xx_HAL_Driver/Src/stm32f0xx_hal_rcc.c ****   uint32_t tickstart;
 230              		.loc 1 302 3 is_stmt 1 view .LVU54
 303:Drivers/STM32F0xx_HAL_Driver/Src/stm32f0xx_hal_rcc.c ****   uint32_t pll_config;
 231              		.loc 1 303 3 view .LVU55
 304:Drivers/STM32F0xx_HAL_Driver/Src/stm32f0xx_hal_rcc.c ****   uint32_t pll_config2;
 232              		.loc 1 304 3 view .LVU56
ARM GAS  C:\Users\Password\AppData\Local\Temp\ccQ2oVJO.s 			page 11


 305:Drivers/STM32F0xx_HAL_Driver/Src/stm32f0xx_hal_rcc.c **** 
 306:Drivers/STM32F0xx_HAL_Driver/Src/stm32f0xx_hal_rcc.c ****   /* Check Null pointer */
 307:Drivers/STM32F0xx_HAL_Driver/Src/stm32f0xx_hal_rcc.c ****   if(RCC_OscInitStruct == NULL)
 233              		.loc 1 307 3 view .LVU57
 234              		.loc 1 307 5 is_stmt 0 view .LVU58
 235 0006 00D1     		bne	.LCB195
 236 0008 2EE2     		b	.L78	@long jump
 237              	.LCB195:
 308:Drivers/STM32F0xx_HAL_Driver/Src/stm32f0xx_hal_rcc.c ****   {
 309:Drivers/STM32F0xx_HAL_Driver/Src/stm32f0xx_hal_rcc.c ****     return HAL_ERROR;
 310:Drivers/STM32F0xx_HAL_Driver/Src/stm32f0xx_hal_rcc.c ****   }
 311:Drivers/STM32F0xx_HAL_Driver/Src/stm32f0xx_hal_rcc.c **** 
 312:Drivers/STM32F0xx_HAL_Driver/Src/stm32f0xx_hal_rcc.c ****   /* Check the parameters */
 313:Drivers/STM32F0xx_HAL_Driver/Src/stm32f0xx_hal_rcc.c ****   assert_param(IS_RCC_OSCILLATORTYPE(RCC_OscInitStruct->OscillatorType));
 238              		.loc 1 313 3 is_stmt 1 view .LVU59
 314:Drivers/STM32F0xx_HAL_Driver/Src/stm32f0xx_hal_rcc.c **** 
 315:Drivers/STM32F0xx_HAL_Driver/Src/stm32f0xx_hal_rcc.c ****   /*------------------------------- HSE Configuration ------------------------*/ 
 316:Drivers/STM32F0xx_HAL_Driver/Src/stm32f0xx_hal_rcc.c ****   if(((RCC_OscInitStruct->OscillatorType) & RCC_OSCILLATORTYPE_HSE) == RCC_OSCILLATORTYPE_HSE)
 239              		.loc 1 316 3 view .LVU60
 240              		.loc 1 316 25 is_stmt 0 view .LVU61
 241 000a 0368     		ldr	r3, [r0]
 242              		.loc 1 316 5 view .LVU62
 243 000c DB07     		lsls	r3, r3, #31
 244 000e 26D5     		bpl	.L21
 317:Drivers/STM32F0xx_HAL_Driver/Src/stm32f0xx_hal_rcc.c ****   {
 318:Drivers/STM32F0xx_HAL_Driver/Src/stm32f0xx_hal_rcc.c ****     /* Check the parameters */
 319:Drivers/STM32F0xx_HAL_Driver/Src/stm32f0xx_hal_rcc.c ****     assert_param(IS_RCC_HSE(RCC_OscInitStruct->HSEState));
 245              		.loc 1 319 5 is_stmt 1 view .LVU63
 320:Drivers/STM32F0xx_HAL_Driver/Src/stm32f0xx_hal_rcc.c **** 
 321:Drivers/STM32F0xx_HAL_Driver/Src/stm32f0xx_hal_rcc.c ****     /* When the HSE is used as system clock or clock source for PLL in these cases it is not allowe
 322:Drivers/STM32F0xx_HAL_Driver/Src/stm32f0xx_hal_rcc.c ****     if((__HAL_RCC_GET_SYSCLK_SOURCE() == RCC_SYSCLKSOURCE_STATUS_HSE) 
 246              		.loc 1 322 5 view .LVU64
 247              		.loc 1 322 9 is_stmt 0 view .LVU65
 248 0010 AE4B     		ldr	r3, .L127
 249 0012 5A68     		ldr	r2, [r3, #4]
 250 0014 0C23     		movs	r3, #12
 251 0016 1340     		ands	r3, r2
 252              		.loc 1 322 7 view .LVU66
 253 0018 042B     		cmp	r3, #4
 254 001a 18D0     		beq	.L22
 323:Drivers/STM32F0xx_HAL_Driver/Src/stm32f0xx_hal_rcc.c ****        || ((__HAL_RCC_GET_SYSCLK_SOURCE() == RCC_SYSCLKSOURCE_STATUS_PLLCLK) && (__HAL_RCC_GET_PLL_
 255              		.loc 1 323 13 view .LVU67
 256 001c AB4B     		ldr	r3, .L127
 257 001e 5A68     		ldr	r2, [r3, #4]
 258 0020 0C23     		movs	r3, #12
 259 0022 1340     		ands	r3, r2
 260              		.loc 1 323 8 view .LVU68
 261 0024 082B     		cmp	r3, #8
 262 0026 0ED0     		beq	.L111
 263              	.L23:
 324:Drivers/STM32F0xx_HAL_Driver/Src/stm32f0xx_hal_rcc.c ****     {
 325:Drivers/STM32F0xx_HAL_Driver/Src/stm32f0xx_hal_rcc.c ****       if((__HAL_RCC_GET_FLAG(RCC_FLAG_HSERDY) != RESET) && (RCC_OscInitStruct->HSEState == RCC_HSE_
 326:Drivers/STM32F0xx_HAL_Driver/Src/stm32f0xx_hal_rcc.c ****       {
 327:Drivers/STM32F0xx_HAL_Driver/Src/stm32f0xx_hal_rcc.c ****         return HAL_ERROR;
 328:Drivers/STM32F0xx_HAL_Driver/Src/stm32f0xx_hal_rcc.c ****       }
 329:Drivers/STM32F0xx_HAL_Driver/Src/stm32f0xx_hal_rcc.c ****     }
 330:Drivers/STM32F0xx_HAL_Driver/Src/stm32f0xx_hal_rcc.c ****     else
ARM GAS  C:\Users\Password\AppData\Local\Temp\ccQ2oVJO.s 			page 12


 331:Drivers/STM32F0xx_HAL_Driver/Src/stm32f0xx_hal_rcc.c ****     {
 332:Drivers/STM32F0xx_HAL_Driver/Src/stm32f0xx_hal_rcc.c ****       /* Set the new HSE configuration ---------------------------------------*/
 333:Drivers/STM32F0xx_HAL_Driver/Src/stm32f0xx_hal_rcc.c ****       __HAL_RCC_HSE_CONFIG(RCC_OscInitStruct->HSEState);
 264              		.loc 1 333 7 is_stmt 1 view .LVU69
 265              		.loc 1 333 7 view .LVU70
 266 0028 6368     		ldr	r3, [r4, #4]
 267 002a 012B     		cmp	r3, #1
 268 002c 3CD0     		beq	.L112
 269              		.loc 1 333 7 discriminator 2 view .LVU71
 270 002e 002B     		cmp	r3, #0
 271 0030 51D1     		bne	.L26
 272              		.loc 1 333 7 discriminator 4 view .LVU72
 273 0032 A64B     		ldr	r3, .L127
 274 0034 1A68     		ldr	r2, [r3]
 275 0036 A649     		ldr	r1, .L127+4
 276 0038 0A40     		ands	r2, r1
 277 003a 1A60     		str	r2, [r3]
 278              		.loc 1 333 7 discriminator 4 view .LVU73
 279 003c 1A68     		ldr	r2, [r3]
 280 003e A549     		ldr	r1, .L127+8
 281 0040 0A40     		ands	r2, r1
 282 0042 1A60     		str	r2, [r3]
 283 0044 36E0     		b	.L25
 284              	.L111:
 323:Drivers/STM32F0xx_HAL_Driver/Src/stm32f0xx_hal_rcc.c ****        || ((__HAL_RCC_GET_SYSCLK_SOURCE() == RCC_SYSCLKSOURCE_STATUS_PLLCLK) && (__HAL_RCC_GET_PLL_
 285              		.loc 1 323 82 is_stmt 0 discriminator 1 view .LVU74
 286 0046 A14B     		ldr	r3, .L127
 287 0048 5B68     		ldr	r3, [r3, #4]
 323:Drivers/STM32F0xx_HAL_Driver/Src/stm32f0xx_hal_rcc.c ****        || ((__HAL_RCC_GET_SYSCLK_SOURCE() == RCC_SYSCLKSOURCE_STATUS_PLLCLK) && (__HAL_RCC_GET_PLL_
 288              		.loc 1 323 78 discriminator 1 view .LVU75
 289 004a DB03     		lsls	r3, r3, #15
 290 004c ECD5     		bpl	.L23
 291              	.L22:
 325:Drivers/STM32F0xx_HAL_Driver/Src/stm32f0xx_hal_rcc.c ****       {
 292              		.loc 1 325 7 is_stmt 1 view .LVU76
 325:Drivers/STM32F0xx_HAL_Driver/Src/stm32f0xx_hal_rcc.c ****       {
 293              		.loc 1 325 11 is_stmt 0 view .LVU77
 294 004e 9F4B     		ldr	r3, .L127
 295 0050 1B68     		ldr	r3, [r3]
 325:Drivers/STM32F0xx_HAL_Driver/Src/stm32f0xx_hal_rcc.c ****       {
 296              		.loc 1 325 9 view .LVU78
 297 0052 9B03     		lsls	r3, r3, #14
 298 0054 03D5     		bpl	.L21
 325:Drivers/STM32F0xx_HAL_Driver/Src/stm32f0xx_hal_rcc.c ****       {
 299              		.loc 1 325 78 discriminator 1 view .LVU79
 300 0056 6368     		ldr	r3, [r4, #4]
 325:Drivers/STM32F0xx_HAL_Driver/Src/stm32f0xx_hal_rcc.c ****       {
 301              		.loc 1 325 57 discriminator 1 view .LVU80
 302 0058 002B     		cmp	r3, #0
 303 005a 00D1     		bne	.LCB258
 304 005c 07E2     		b	.L113	@long jump
 305              	.LCB258:
 306              	.LVL15:
 307              	.L21:
 334:Drivers/STM32F0xx_HAL_Driver/Src/stm32f0xx_hal_rcc.c ****       
 335:Drivers/STM32F0xx_HAL_Driver/Src/stm32f0xx_hal_rcc.c **** 
 336:Drivers/STM32F0xx_HAL_Driver/Src/stm32f0xx_hal_rcc.c ****        /* Check the HSE State */
ARM GAS  C:\Users\Password\AppData\Local\Temp\ccQ2oVJO.s 			page 13


 337:Drivers/STM32F0xx_HAL_Driver/Src/stm32f0xx_hal_rcc.c ****       if(RCC_OscInitStruct->HSEState != RCC_HSE_OFF)
 338:Drivers/STM32F0xx_HAL_Driver/Src/stm32f0xx_hal_rcc.c ****       {
 339:Drivers/STM32F0xx_HAL_Driver/Src/stm32f0xx_hal_rcc.c ****         /* Get Start Tick */
 340:Drivers/STM32F0xx_HAL_Driver/Src/stm32f0xx_hal_rcc.c ****         tickstart = HAL_GetTick();
 341:Drivers/STM32F0xx_HAL_Driver/Src/stm32f0xx_hal_rcc.c ****         
 342:Drivers/STM32F0xx_HAL_Driver/Src/stm32f0xx_hal_rcc.c ****         /* Wait till HSE is ready */
 343:Drivers/STM32F0xx_HAL_Driver/Src/stm32f0xx_hal_rcc.c ****         while(__HAL_RCC_GET_FLAG(RCC_FLAG_HSERDY) == RESET)
 344:Drivers/STM32F0xx_HAL_Driver/Src/stm32f0xx_hal_rcc.c ****         {
 345:Drivers/STM32F0xx_HAL_Driver/Src/stm32f0xx_hal_rcc.c ****           if((HAL_GetTick() - tickstart ) > HSE_TIMEOUT_VALUE)
 346:Drivers/STM32F0xx_HAL_Driver/Src/stm32f0xx_hal_rcc.c ****           {
 347:Drivers/STM32F0xx_HAL_Driver/Src/stm32f0xx_hal_rcc.c ****             return HAL_TIMEOUT;
 348:Drivers/STM32F0xx_HAL_Driver/Src/stm32f0xx_hal_rcc.c ****           }
 349:Drivers/STM32F0xx_HAL_Driver/Src/stm32f0xx_hal_rcc.c ****         }
 350:Drivers/STM32F0xx_HAL_Driver/Src/stm32f0xx_hal_rcc.c ****       }
 351:Drivers/STM32F0xx_HAL_Driver/Src/stm32f0xx_hal_rcc.c ****       else
 352:Drivers/STM32F0xx_HAL_Driver/Src/stm32f0xx_hal_rcc.c ****       {
 353:Drivers/STM32F0xx_HAL_Driver/Src/stm32f0xx_hal_rcc.c ****         /* Get Start Tick */
 354:Drivers/STM32F0xx_HAL_Driver/Src/stm32f0xx_hal_rcc.c ****         tickstart = HAL_GetTick();
 355:Drivers/STM32F0xx_HAL_Driver/Src/stm32f0xx_hal_rcc.c ****         
 356:Drivers/STM32F0xx_HAL_Driver/Src/stm32f0xx_hal_rcc.c ****         /* Wait till HSE is disabled */
 357:Drivers/STM32F0xx_HAL_Driver/Src/stm32f0xx_hal_rcc.c ****         while(__HAL_RCC_GET_FLAG(RCC_FLAG_HSERDY) != RESET)
 358:Drivers/STM32F0xx_HAL_Driver/Src/stm32f0xx_hal_rcc.c ****         {
 359:Drivers/STM32F0xx_HAL_Driver/Src/stm32f0xx_hal_rcc.c ****            if((HAL_GetTick() - tickstart ) > HSE_TIMEOUT_VALUE)
 360:Drivers/STM32F0xx_HAL_Driver/Src/stm32f0xx_hal_rcc.c ****           {
 361:Drivers/STM32F0xx_HAL_Driver/Src/stm32f0xx_hal_rcc.c ****             return HAL_TIMEOUT;
 362:Drivers/STM32F0xx_HAL_Driver/Src/stm32f0xx_hal_rcc.c ****           }
 363:Drivers/STM32F0xx_HAL_Driver/Src/stm32f0xx_hal_rcc.c ****         }
 364:Drivers/STM32F0xx_HAL_Driver/Src/stm32f0xx_hal_rcc.c ****       }
 365:Drivers/STM32F0xx_HAL_Driver/Src/stm32f0xx_hal_rcc.c ****     }
 366:Drivers/STM32F0xx_HAL_Driver/Src/stm32f0xx_hal_rcc.c ****   }
 367:Drivers/STM32F0xx_HAL_Driver/Src/stm32f0xx_hal_rcc.c ****   /*----------------------------- HSI Configuration --------------------------*/ 
 368:Drivers/STM32F0xx_HAL_Driver/Src/stm32f0xx_hal_rcc.c ****   if(((RCC_OscInitStruct->OscillatorType) & RCC_OSCILLATORTYPE_HSI) == RCC_OSCILLATORTYPE_HSI)
 308              		.loc 1 368 3 is_stmt 1 view .LVU81
 309              		.loc 1 368 25 is_stmt 0 view .LVU82
 310 005e 2368     		ldr	r3, [r4]
 311              		.loc 1 368 5 view .LVU83
 312 0060 9B07     		lsls	r3, r3, #30
 313 0062 72D5     		bpl	.L33
 369:Drivers/STM32F0xx_HAL_Driver/Src/stm32f0xx_hal_rcc.c ****   {
 370:Drivers/STM32F0xx_HAL_Driver/Src/stm32f0xx_hal_rcc.c ****     /* Check the parameters */
 371:Drivers/STM32F0xx_HAL_Driver/Src/stm32f0xx_hal_rcc.c ****     assert_param(IS_RCC_HSI(RCC_OscInitStruct->HSIState));
 314              		.loc 1 371 5 is_stmt 1 view .LVU84
 372:Drivers/STM32F0xx_HAL_Driver/Src/stm32f0xx_hal_rcc.c ****     assert_param(IS_RCC_CALIBRATION_VALUE(RCC_OscInitStruct->HSICalibrationValue));
 315              		.loc 1 372 5 view .LVU85
 373:Drivers/STM32F0xx_HAL_Driver/Src/stm32f0xx_hal_rcc.c ****     
 374:Drivers/STM32F0xx_HAL_Driver/Src/stm32f0xx_hal_rcc.c ****     /* Check if HSI is used as system clock or as PLL source when PLL is selected as system clock *
 375:Drivers/STM32F0xx_HAL_Driver/Src/stm32f0xx_hal_rcc.c ****     if((__HAL_RCC_GET_SYSCLK_SOURCE() == RCC_SYSCLKSOURCE_STATUS_HSI) 
 316              		.loc 1 375 5 view .LVU86
 317              		.loc 1 375 9 is_stmt 0 view .LVU87
 318 0064 994B     		ldr	r3, .L127
 319 0066 5B68     		ldr	r3, [r3, #4]
 320 0068 0C22     		movs	r2, #12
 321              		.loc 1 375 7 view .LVU88
 322 006a 1A42     		tst	r2, r3
 323 006c 5DD0     		beq	.L34
 376:Drivers/STM32F0xx_HAL_Driver/Src/stm32f0xx_hal_rcc.c ****        || ((__HAL_RCC_GET_SYSCLK_SOURCE() == RCC_SYSCLKSOURCE_STATUS_PLLCLK) && (__HAL_RCC_GET_PLL_
 324              		.loc 1 376 13 view .LVU89
ARM GAS  C:\Users\Password\AppData\Local\Temp\ccQ2oVJO.s 			page 14


 325 006e 974B     		ldr	r3, .L127
 326 0070 5A68     		ldr	r2, [r3, #4]
 327 0072 0C23     		movs	r3, #12
 328 0074 1340     		ands	r3, r2
 329              		.loc 1 376 8 view .LVU90
 330 0076 082B     		cmp	r3, #8
 331 0078 53D0     		beq	.L114
 332              	.L35:
 377:Drivers/STM32F0xx_HAL_Driver/Src/stm32f0xx_hal_rcc.c ****     {
 378:Drivers/STM32F0xx_HAL_Driver/Src/stm32f0xx_hal_rcc.c ****       /* When HSI is used as system clock it will not disabled */
 379:Drivers/STM32F0xx_HAL_Driver/Src/stm32f0xx_hal_rcc.c ****       if((__HAL_RCC_GET_FLAG(RCC_FLAG_HSIRDY) != RESET) && (RCC_OscInitStruct->HSIState != RCC_HSI_
 380:Drivers/STM32F0xx_HAL_Driver/Src/stm32f0xx_hal_rcc.c ****       {
 381:Drivers/STM32F0xx_HAL_Driver/Src/stm32f0xx_hal_rcc.c ****         return HAL_ERROR;
 382:Drivers/STM32F0xx_HAL_Driver/Src/stm32f0xx_hal_rcc.c ****       }
 383:Drivers/STM32F0xx_HAL_Driver/Src/stm32f0xx_hal_rcc.c ****       /* Otherwise, just the calibration is allowed */
 384:Drivers/STM32F0xx_HAL_Driver/Src/stm32f0xx_hal_rcc.c ****       else
 385:Drivers/STM32F0xx_HAL_Driver/Src/stm32f0xx_hal_rcc.c ****       {
 386:Drivers/STM32F0xx_HAL_Driver/Src/stm32f0xx_hal_rcc.c ****         /* Adjusts the Internal High Speed oscillator (HSI) calibration value.*/
 387:Drivers/STM32F0xx_HAL_Driver/Src/stm32f0xx_hal_rcc.c ****         __HAL_RCC_HSI_CALIBRATIONVALUE_ADJUST(RCC_OscInitStruct->HSICalibrationValue);
 388:Drivers/STM32F0xx_HAL_Driver/Src/stm32f0xx_hal_rcc.c ****       }
 389:Drivers/STM32F0xx_HAL_Driver/Src/stm32f0xx_hal_rcc.c ****     }
 390:Drivers/STM32F0xx_HAL_Driver/Src/stm32f0xx_hal_rcc.c ****     else
 391:Drivers/STM32F0xx_HAL_Driver/Src/stm32f0xx_hal_rcc.c ****     {
 392:Drivers/STM32F0xx_HAL_Driver/Src/stm32f0xx_hal_rcc.c ****       /* Check the HSI State */
 393:Drivers/STM32F0xx_HAL_Driver/Src/stm32f0xx_hal_rcc.c ****       if(RCC_OscInitStruct->HSIState != RCC_HSI_OFF)
 333              		.loc 1 393 7 is_stmt 1 view .LVU91
 334              		.loc 1 393 27 is_stmt 0 view .LVU92
 335 007a E368     		ldr	r3, [r4, #12]
 336              		.loc 1 393 9 view .LVU93
 337 007c 002B     		cmp	r3, #0
 338 007e 00D1     		bne	.LCB286
 339 0080 85E0     		b	.L37	@long jump
 340              	.LCB286:
 394:Drivers/STM32F0xx_HAL_Driver/Src/stm32f0xx_hal_rcc.c ****       {
 395:Drivers/STM32F0xx_HAL_Driver/Src/stm32f0xx_hal_rcc.c ****        /* Enable the Internal High Speed oscillator (HSI). */
 396:Drivers/STM32F0xx_HAL_Driver/Src/stm32f0xx_hal_rcc.c ****         __HAL_RCC_HSI_ENABLE();
 341              		.loc 1 396 9 is_stmt 1 view .LVU94
 342 0082 924A     		ldr	r2, .L127
 343 0084 1368     		ldr	r3, [r2]
 344 0086 0121     		movs	r1, #1
 345 0088 0B43     		orrs	r3, r1
 346 008a 1360     		str	r3, [r2]
 397:Drivers/STM32F0xx_HAL_Driver/Src/stm32f0xx_hal_rcc.c ****         
 398:Drivers/STM32F0xx_HAL_Driver/Src/stm32f0xx_hal_rcc.c ****         /* Get Start Tick */
 399:Drivers/STM32F0xx_HAL_Driver/Src/stm32f0xx_hal_rcc.c ****         tickstart = HAL_GetTick();
 347              		.loc 1 399 9 view .LVU95
 348              		.loc 1 399 21 is_stmt 0 view .LVU96
 349 008c FFF7FEFF 		bl	HAL_GetTick
 350              	.LVL16:
 351 0090 0500     		movs	r5, r0
 352              	.LVL17:
 400:Drivers/STM32F0xx_HAL_Driver/Src/stm32f0xx_hal_rcc.c ****         
 401:Drivers/STM32F0xx_HAL_Driver/Src/stm32f0xx_hal_rcc.c ****         /* Wait till HSI is ready */
 402:Drivers/STM32F0xx_HAL_Driver/Src/stm32f0xx_hal_rcc.c ****         while(__HAL_RCC_GET_FLAG(RCC_FLAG_HSIRDY) == RESET)
 353              		.loc 1 402 9 is_stmt 1 view .LVU97
 354              	.L38:
 355              		.loc 1 402 51 view .LVU98
ARM GAS  C:\Users\Password\AppData\Local\Temp\ccQ2oVJO.s 			page 15


 356              		.loc 1 402 15 is_stmt 0 view .LVU99
 357 0092 8E4B     		ldr	r3, .L127
 358 0094 1B68     		ldr	r3, [r3]
 359              		.loc 1 402 51 view .LVU100
 360 0096 9B07     		lsls	r3, r3, #30
 361 0098 70D4     		bmi	.L115
 403:Drivers/STM32F0xx_HAL_Driver/Src/stm32f0xx_hal_rcc.c ****         {
 404:Drivers/STM32F0xx_HAL_Driver/Src/stm32f0xx_hal_rcc.c ****           if((HAL_GetTick() - tickstart ) > HSI_TIMEOUT_VALUE)
 362              		.loc 1 404 11 is_stmt 1 view .LVU101
 363              		.loc 1 404 15 is_stmt 0 view .LVU102
 364 009a FFF7FEFF 		bl	HAL_GetTick
 365              	.LVL18:
 366              		.loc 1 404 29 view .LVU103
 367 009e 401B     		subs	r0, r0, r5
 368              		.loc 1 404 13 view .LVU104
 369 00a0 0228     		cmp	r0, #2
 370 00a2 F6D9     		bls	.L38
 405:Drivers/STM32F0xx_HAL_Driver/Src/stm32f0xx_hal_rcc.c ****           {
 406:Drivers/STM32F0xx_HAL_Driver/Src/stm32f0xx_hal_rcc.c ****             return HAL_TIMEOUT;
 371              		.loc 1 406 20 view .LVU105
 372 00a4 0320     		movs	r0, #3
 373 00a6 E0E1     		b	.L20
 374              	.LVL19:
 375              	.L112:
 333:Drivers/STM32F0xx_HAL_Driver/Src/stm32f0xx_hal_rcc.c ****       
 376              		.loc 1 333 7 is_stmt 1 discriminator 1 view .LVU106
 377 00a8 884A     		ldr	r2, .L127
 378 00aa 1168     		ldr	r1, [r2]
 379 00ac 8023     		movs	r3, #128
 380 00ae 5B02     		lsls	r3, r3, #9
 381 00b0 0B43     		orrs	r3, r1
 382 00b2 1360     		str	r3, [r2]
 383              	.L25:
 333:Drivers/STM32F0xx_HAL_Driver/Src/stm32f0xx_hal_rcc.c ****       
 384              		.loc 1 333 7 discriminator 10 view .LVU107
 337:Drivers/STM32F0xx_HAL_Driver/Src/stm32f0xx_hal_rcc.c ****       {
 385              		.loc 1 337 7 discriminator 10 view .LVU108
 337:Drivers/STM32F0xx_HAL_Driver/Src/stm32f0xx_hal_rcc.c ****       {
 386              		.loc 1 337 27 is_stmt 0 discriminator 10 view .LVU109
 387 00b4 6368     		ldr	r3, [r4, #4]
 337:Drivers/STM32F0xx_HAL_Driver/Src/stm32f0xx_hal_rcc.c ****       {
 388              		.loc 1 337 9 discriminator 10 view .LVU110
 389 00b6 002B     		cmp	r3, #0
 390 00b8 25D0     		beq	.L28
 340:Drivers/STM32F0xx_HAL_Driver/Src/stm32f0xx_hal_rcc.c ****         
 391              		.loc 1 340 9 is_stmt 1 view .LVU111
 340:Drivers/STM32F0xx_HAL_Driver/Src/stm32f0xx_hal_rcc.c ****         
 392              		.loc 1 340 21 is_stmt 0 view .LVU112
 393 00ba FFF7FEFF 		bl	HAL_GetTick
 394              	.LVL20:
 340:Drivers/STM32F0xx_HAL_Driver/Src/stm32f0xx_hal_rcc.c ****         
 395              		.loc 1 340 21 view .LVU113
 396 00be 0500     		movs	r5, r0
 397              	.LVL21:
 343:Drivers/STM32F0xx_HAL_Driver/Src/stm32f0xx_hal_rcc.c ****         {
 398              		.loc 1 343 9 is_stmt 1 view .LVU114
 399              	.L29:
ARM GAS  C:\Users\Password\AppData\Local\Temp\ccQ2oVJO.s 			page 16


 343:Drivers/STM32F0xx_HAL_Driver/Src/stm32f0xx_hal_rcc.c ****         {
 400              		.loc 1 343 51 view .LVU115
 343:Drivers/STM32F0xx_HAL_Driver/Src/stm32f0xx_hal_rcc.c ****         {
 401              		.loc 1 343 15 is_stmt 0 view .LVU116
 402 00c0 824B     		ldr	r3, .L127
 403 00c2 1B68     		ldr	r3, [r3]
 343:Drivers/STM32F0xx_HAL_Driver/Src/stm32f0xx_hal_rcc.c ****         {
 404              		.loc 1 343 51 view .LVU117
 405 00c4 9B03     		lsls	r3, r3, #14
 406 00c6 CAD4     		bmi	.L21
 345:Drivers/STM32F0xx_HAL_Driver/Src/stm32f0xx_hal_rcc.c ****           {
 407              		.loc 1 345 11 is_stmt 1 view .LVU118
 345:Drivers/STM32F0xx_HAL_Driver/Src/stm32f0xx_hal_rcc.c ****           {
 408              		.loc 1 345 15 is_stmt 0 view .LVU119
 409 00c8 FFF7FEFF 		bl	HAL_GetTick
 410              	.LVL22:
 345:Drivers/STM32F0xx_HAL_Driver/Src/stm32f0xx_hal_rcc.c ****           {
 411              		.loc 1 345 29 view .LVU120
 412 00cc 401B     		subs	r0, r0, r5
 345:Drivers/STM32F0xx_HAL_Driver/Src/stm32f0xx_hal_rcc.c ****           {
 413              		.loc 1 345 13 view .LVU121
 414 00ce 6428     		cmp	r0, #100
 415 00d0 F6D9     		bls	.L29
 347:Drivers/STM32F0xx_HAL_Driver/Src/stm32f0xx_hal_rcc.c ****           }
 416              		.loc 1 347 20 view .LVU122
 417 00d2 0320     		movs	r0, #3
 418 00d4 C9E1     		b	.L20
 419              	.LVL23:
 420              	.L26:
 333:Drivers/STM32F0xx_HAL_Driver/Src/stm32f0xx_hal_rcc.c ****       
 421              		.loc 1 333 7 is_stmt 1 discriminator 5 view .LVU123
 422 00d6 052B     		cmp	r3, #5
 423 00d8 09D0     		beq	.L116
 333:Drivers/STM32F0xx_HAL_Driver/Src/stm32f0xx_hal_rcc.c ****       
 424              		.loc 1 333 7 discriminator 8 view .LVU124
 425 00da 7C4B     		ldr	r3, .L127
 426 00dc 1A68     		ldr	r2, [r3]
 427 00de 7C49     		ldr	r1, .L127+4
 428 00e0 0A40     		ands	r2, r1
 429 00e2 1A60     		str	r2, [r3]
 333:Drivers/STM32F0xx_HAL_Driver/Src/stm32f0xx_hal_rcc.c ****       
 430              		.loc 1 333 7 discriminator 8 view .LVU125
 431 00e4 1A68     		ldr	r2, [r3]
 432 00e6 7B49     		ldr	r1, .L127+8
 433 00e8 0A40     		ands	r2, r1
 434 00ea 1A60     		str	r2, [r3]
 435 00ec E2E7     		b	.L25
 436              	.L116:
 333:Drivers/STM32F0xx_HAL_Driver/Src/stm32f0xx_hal_rcc.c ****       
 437              		.loc 1 333 7 discriminator 7 view .LVU126
 438 00ee 774B     		ldr	r3, .L127
 439 00f0 1968     		ldr	r1, [r3]
 440 00f2 8022     		movs	r2, #128
 441 00f4 D202     		lsls	r2, r2, #11
 442 00f6 0A43     		orrs	r2, r1
 443 00f8 1A60     		str	r2, [r3]
 333:Drivers/STM32F0xx_HAL_Driver/Src/stm32f0xx_hal_rcc.c ****       
ARM GAS  C:\Users\Password\AppData\Local\Temp\ccQ2oVJO.s 			page 17


 444              		.loc 1 333 7 discriminator 7 view .LVU127
 445 00fa 1968     		ldr	r1, [r3]
 446 00fc 8022     		movs	r2, #128
 447 00fe 5202     		lsls	r2, r2, #9
 448 0100 0A43     		orrs	r2, r1
 449 0102 1A60     		str	r2, [r3]
 450 0104 D6E7     		b	.L25
 451              	.L28:
 354:Drivers/STM32F0xx_HAL_Driver/Src/stm32f0xx_hal_rcc.c ****         
 452              		.loc 1 354 9 view .LVU128
 354:Drivers/STM32F0xx_HAL_Driver/Src/stm32f0xx_hal_rcc.c ****         
 453              		.loc 1 354 21 is_stmt 0 view .LVU129
 454 0106 FFF7FEFF 		bl	HAL_GetTick
 455              	.LVL24:
 354:Drivers/STM32F0xx_HAL_Driver/Src/stm32f0xx_hal_rcc.c ****         
 456              		.loc 1 354 21 view .LVU130
 457 010a 0500     		movs	r5, r0
 458              	.LVL25:
 357:Drivers/STM32F0xx_HAL_Driver/Src/stm32f0xx_hal_rcc.c ****         {
 459              		.loc 1 357 9 is_stmt 1 view .LVU131
 460              	.L31:
 357:Drivers/STM32F0xx_HAL_Driver/Src/stm32f0xx_hal_rcc.c ****         {
 461              		.loc 1 357 51 view .LVU132
 357:Drivers/STM32F0xx_HAL_Driver/Src/stm32f0xx_hal_rcc.c ****         {
 462              		.loc 1 357 15 is_stmt 0 view .LVU133
 463 010c 6F4B     		ldr	r3, .L127
 464 010e 1B68     		ldr	r3, [r3]
 357:Drivers/STM32F0xx_HAL_Driver/Src/stm32f0xx_hal_rcc.c ****         {
 465              		.loc 1 357 51 view .LVU134
 466 0110 9B03     		lsls	r3, r3, #14
 467 0112 A4D5     		bpl	.L21
 359:Drivers/STM32F0xx_HAL_Driver/Src/stm32f0xx_hal_rcc.c ****           {
 468              		.loc 1 359 12 is_stmt 1 view .LVU135
 359:Drivers/STM32F0xx_HAL_Driver/Src/stm32f0xx_hal_rcc.c ****           {
 469              		.loc 1 359 16 is_stmt 0 view .LVU136
 470 0114 FFF7FEFF 		bl	HAL_GetTick
 471              	.LVL26:
 359:Drivers/STM32F0xx_HAL_Driver/Src/stm32f0xx_hal_rcc.c ****           {
 472              		.loc 1 359 30 view .LVU137
 473 0118 401B     		subs	r0, r0, r5
 359:Drivers/STM32F0xx_HAL_Driver/Src/stm32f0xx_hal_rcc.c ****           {
 474              		.loc 1 359 14 view .LVU138
 475 011a 6428     		cmp	r0, #100
 476 011c F6D9     		bls	.L31
 361:Drivers/STM32F0xx_HAL_Driver/Src/stm32f0xx_hal_rcc.c ****           }
 477              		.loc 1 361 20 view .LVU139
 478 011e 0320     		movs	r0, #3
 479 0120 A3E1     		b	.L20
 480              	.LVL27:
 481              	.L114:
 376:Drivers/STM32F0xx_HAL_Driver/Src/stm32f0xx_hal_rcc.c ****     {
 482              		.loc 1 376 82 discriminator 1 view .LVU140
 483 0122 6A4B     		ldr	r3, .L127
 484 0124 5B68     		ldr	r3, [r3, #4]
 376:Drivers/STM32F0xx_HAL_Driver/Src/stm32f0xx_hal_rcc.c ****     {
 485              		.loc 1 376 78 discriminator 1 view .LVU141
 486 0126 DB03     		lsls	r3, r3, #15
ARM GAS  C:\Users\Password\AppData\Local\Temp\ccQ2oVJO.s 			page 18


 487 0128 A7D4     		bmi	.L35
 488              	.L34:
 379:Drivers/STM32F0xx_HAL_Driver/Src/stm32f0xx_hal_rcc.c ****       {
 489              		.loc 1 379 7 is_stmt 1 view .LVU142
 379:Drivers/STM32F0xx_HAL_Driver/Src/stm32f0xx_hal_rcc.c ****       {
 490              		.loc 1 379 11 is_stmt 0 view .LVU143
 491 012a 684B     		ldr	r3, .L127
 492 012c 1B68     		ldr	r3, [r3]
 379:Drivers/STM32F0xx_HAL_Driver/Src/stm32f0xx_hal_rcc.c ****       {
 493              		.loc 1 379 9 view .LVU144
 494 012e 9B07     		lsls	r3, r3, #30
 495 0130 03D5     		bpl	.L36
 379:Drivers/STM32F0xx_HAL_Driver/Src/stm32f0xx_hal_rcc.c ****       {
 496              		.loc 1 379 78 discriminator 1 view .LVU145
 497 0132 E368     		ldr	r3, [r4, #12]
 379:Drivers/STM32F0xx_HAL_Driver/Src/stm32f0xx_hal_rcc.c ****       {
 498              		.loc 1 379 57 discriminator 1 view .LVU146
 499 0134 012B     		cmp	r3, #1
 500 0136 00D0     		beq	.LCB445
 501 0138 9BE1     		b	.L82	@long jump
 502              	.LCB445:
 503              	.L36:
 387:Drivers/STM32F0xx_HAL_Driver/Src/stm32f0xx_hal_rcc.c ****       }
 504              		.loc 1 387 9 is_stmt 1 view .LVU147
 505 013a 6449     		ldr	r1, .L127
 506 013c 0B68     		ldr	r3, [r1]
 507 013e F822     		movs	r2, #248
 508 0140 9343     		bics	r3, r2
 509 0142 2269     		ldr	r2, [r4, #16]
 510 0144 D200     		lsls	r2, r2, #3
 511 0146 1343     		orrs	r3, r2
 512 0148 0B60     		str	r3, [r1]
 513              	.L33:
 407:Drivers/STM32F0xx_HAL_Driver/Src/stm32f0xx_hal_rcc.c ****           }
 408:Drivers/STM32F0xx_HAL_Driver/Src/stm32f0xx_hal_rcc.c ****         }
 409:Drivers/STM32F0xx_HAL_Driver/Src/stm32f0xx_hal_rcc.c ****                 
 410:Drivers/STM32F0xx_HAL_Driver/Src/stm32f0xx_hal_rcc.c ****         /* Adjusts the Internal High Speed oscillator (HSI) calibration value.*/
 411:Drivers/STM32F0xx_HAL_Driver/Src/stm32f0xx_hal_rcc.c ****         __HAL_RCC_HSI_CALIBRATIONVALUE_ADJUST(RCC_OscInitStruct->HSICalibrationValue);
 412:Drivers/STM32F0xx_HAL_Driver/Src/stm32f0xx_hal_rcc.c ****       }
 413:Drivers/STM32F0xx_HAL_Driver/Src/stm32f0xx_hal_rcc.c ****       else
 414:Drivers/STM32F0xx_HAL_Driver/Src/stm32f0xx_hal_rcc.c ****       {
 415:Drivers/STM32F0xx_HAL_Driver/Src/stm32f0xx_hal_rcc.c ****         /* Disable the Internal High Speed oscillator (HSI). */
 416:Drivers/STM32F0xx_HAL_Driver/Src/stm32f0xx_hal_rcc.c ****         __HAL_RCC_HSI_DISABLE();
 417:Drivers/STM32F0xx_HAL_Driver/Src/stm32f0xx_hal_rcc.c ****         
 418:Drivers/STM32F0xx_HAL_Driver/Src/stm32f0xx_hal_rcc.c ****         /* Get Start Tick */
 419:Drivers/STM32F0xx_HAL_Driver/Src/stm32f0xx_hal_rcc.c ****         tickstart = HAL_GetTick();
 420:Drivers/STM32F0xx_HAL_Driver/Src/stm32f0xx_hal_rcc.c ****         
 421:Drivers/STM32F0xx_HAL_Driver/Src/stm32f0xx_hal_rcc.c ****         /* Wait till HSI is disabled */
 422:Drivers/STM32F0xx_HAL_Driver/Src/stm32f0xx_hal_rcc.c ****         while(__HAL_RCC_GET_FLAG(RCC_FLAG_HSIRDY) != RESET)
 423:Drivers/STM32F0xx_HAL_Driver/Src/stm32f0xx_hal_rcc.c ****         {
 424:Drivers/STM32F0xx_HAL_Driver/Src/stm32f0xx_hal_rcc.c ****           if((HAL_GetTick() - tickstart ) > HSI_TIMEOUT_VALUE)
 425:Drivers/STM32F0xx_HAL_Driver/Src/stm32f0xx_hal_rcc.c ****           {
 426:Drivers/STM32F0xx_HAL_Driver/Src/stm32f0xx_hal_rcc.c ****             return HAL_TIMEOUT;
 427:Drivers/STM32F0xx_HAL_Driver/Src/stm32f0xx_hal_rcc.c ****           }
 428:Drivers/STM32F0xx_HAL_Driver/Src/stm32f0xx_hal_rcc.c ****         }
 429:Drivers/STM32F0xx_HAL_Driver/Src/stm32f0xx_hal_rcc.c ****       }
 430:Drivers/STM32F0xx_HAL_Driver/Src/stm32f0xx_hal_rcc.c ****     }
ARM GAS  C:\Users\Password\AppData\Local\Temp\ccQ2oVJO.s 			page 19


 431:Drivers/STM32F0xx_HAL_Driver/Src/stm32f0xx_hal_rcc.c ****   }
 432:Drivers/STM32F0xx_HAL_Driver/Src/stm32f0xx_hal_rcc.c ****   /*------------------------------ LSI Configuration -------------------------*/ 
 433:Drivers/STM32F0xx_HAL_Driver/Src/stm32f0xx_hal_rcc.c ****   if(((RCC_OscInitStruct->OscillatorType) & RCC_OSCILLATORTYPE_LSI) == RCC_OSCILLATORTYPE_LSI)
 514              		.loc 1 433 3 view .LVU148
 515              		.loc 1 433 25 is_stmt 0 view .LVU149
 516 014a 2368     		ldr	r3, [r4]
 517              		.loc 1 433 5 view .LVU150
 518 014c 1B07     		lsls	r3, r3, #28
 519 014e 44D5     		bpl	.L42
 434:Drivers/STM32F0xx_HAL_Driver/Src/stm32f0xx_hal_rcc.c ****   {
 435:Drivers/STM32F0xx_HAL_Driver/Src/stm32f0xx_hal_rcc.c ****     /* Check the parameters */
 436:Drivers/STM32F0xx_HAL_Driver/Src/stm32f0xx_hal_rcc.c ****     assert_param(IS_RCC_LSI(RCC_OscInitStruct->LSIState));
 520              		.loc 1 436 5 is_stmt 1 view .LVU151
 437:Drivers/STM32F0xx_HAL_Driver/Src/stm32f0xx_hal_rcc.c ****     
 438:Drivers/STM32F0xx_HAL_Driver/Src/stm32f0xx_hal_rcc.c ****     /* Check the LSI State */
 439:Drivers/STM32F0xx_HAL_Driver/Src/stm32f0xx_hal_rcc.c ****     if(RCC_OscInitStruct->LSIState != RCC_LSI_OFF)
 521              		.loc 1 439 5 view .LVU152
 522              		.loc 1 439 25 is_stmt 0 view .LVU153
 523 0150 E369     		ldr	r3, [r4, #28]
 524              		.loc 1 439 7 view .LVU154
 525 0152 002B     		cmp	r3, #0
 526 0154 2ED0     		beq	.L43
 440:Drivers/STM32F0xx_HAL_Driver/Src/stm32f0xx_hal_rcc.c ****     {
 441:Drivers/STM32F0xx_HAL_Driver/Src/stm32f0xx_hal_rcc.c ****       /* Enable the Internal Low Speed oscillator (LSI). */
 442:Drivers/STM32F0xx_HAL_Driver/Src/stm32f0xx_hal_rcc.c ****       __HAL_RCC_LSI_ENABLE();
 527              		.loc 1 442 7 is_stmt 1 view .LVU155
 528 0156 5D4A     		ldr	r2, .L127
 529 0158 536A     		ldr	r3, [r2, #36]
 530 015a 0121     		movs	r1, #1
 531 015c 0B43     		orrs	r3, r1
 532 015e 5362     		str	r3, [r2, #36]
 443:Drivers/STM32F0xx_HAL_Driver/Src/stm32f0xx_hal_rcc.c ****       
 444:Drivers/STM32F0xx_HAL_Driver/Src/stm32f0xx_hal_rcc.c ****       /* Get Start Tick */
 445:Drivers/STM32F0xx_HAL_Driver/Src/stm32f0xx_hal_rcc.c ****       tickstart = HAL_GetTick();
 533              		.loc 1 445 7 view .LVU156
 534              		.loc 1 445 19 is_stmt 0 view .LVU157
 535 0160 FFF7FEFF 		bl	HAL_GetTick
 536              	.LVL28:
 537 0164 0500     		movs	r5, r0
 538              	.LVL29:
 446:Drivers/STM32F0xx_HAL_Driver/Src/stm32f0xx_hal_rcc.c ****       
 447:Drivers/STM32F0xx_HAL_Driver/Src/stm32f0xx_hal_rcc.c ****       /* Wait till LSI is ready */  
 448:Drivers/STM32F0xx_HAL_Driver/Src/stm32f0xx_hal_rcc.c ****       while(__HAL_RCC_GET_FLAG(RCC_FLAG_LSIRDY) == RESET)
 539              		.loc 1 448 7 is_stmt 1 view .LVU158
 540              	.L44:
 541              		.loc 1 448 49 view .LVU159
 542              		.loc 1 448 13 is_stmt 0 view .LVU160
 543 0166 594B     		ldr	r3, .L127
 544 0168 5B6A     		ldr	r3, [r3, #36]
 545              		.loc 1 448 49 view .LVU161
 546 016a 9B07     		lsls	r3, r3, #30
 547 016c 35D4     		bmi	.L42
 449:Drivers/STM32F0xx_HAL_Driver/Src/stm32f0xx_hal_rcc.c ****       {
 450:Drivers/STM32F0xx_HAL_Driver/Src/stm32f0xx_hal_rcc.c ****         if((HAL_GetTick() - tickstart ) > LSI_TIMEOUT_VALUE)
 548              		.loc 1 450 9 is_stmt 1 view .LVU162
 549              		.loc 1 450 13 is_stmt 0 view .LVU163
 550 016e FFF7FEFF 		bl	HAL_GetTick
ARM GAS  C:\Users\Password\AppData\Local\Temp\ccQ2oVJO.s 			page 20


 551              	.LVL30:
 552              		.loc 1 450 27 view .LVU164
 553 0172 401B     		subs	r0, r0, r5
 554              		.loc 1 450 11 view .LVU165
 555 0174 0228     		cmp	r0, #2
 556 0176 F6D9     		bls	.L44
 451:Drivers/STM32F0xx_HAL_Driver/Src/stm32f0xx_hal_rcc.c ****         {
 452:Drivers/STM32F0xx_HAL_Driver/Src/stm32f0xx_hal_rcc.c ****           return HAL_TIMEOUT;
 557              		.loc 1 452 18 view .LVU166
 558 0178 0320     		movs	r0, #3
 559 017a 76E1     		b	.L20
 560              	.L115:
 411:Drivers/STM32F0xx_HAL_Driver/Src/stm32f0xx_hal_rcc.c ****       }
 561              		.loc 1 411 9 is_stmt 1 view .LVU167
 562 017c 5349     		ldr	r1, .L127
 563 017e 0B68     		ldr	r3, [r1]
 564 0180 F822     		movs	r2, #248
 565 0182 9343     		bics	r3, r2
 566 0184 2269     		ldr	r2, [r4, #16]
 567 0186 D200     		lsls	r2, r2, #3
 568 0188 1343     		orrs	r3, r2
 569 018a 0B60     		str	r3, [r1]
 570 018c DDE7     		b	.L33
 571              	.LVL31:
 572              	.L37:
 416:Drivers/STM32F0xx_HAL_Driver/Src/stm32f0xx_hal_rcc.c ****         
 573              		.loc 1 416 9 view .LVU168
 574 018e 4F4A     		ldr	r2, .L127
 575 0190 1368     		ldr	r3, [r2]
 576 0192 0121     		movs	r1, #1
 577 0194 8B43     		bics	r3, r1
 578 0196 1360     		str	r3, [r2]
 419:Drivers/STM32F0xx_HAL_Driver/Src/stm32f0xx_hal_rcc.c ****         
 579              		.loc 1 419 9 view .LVU169
 419:Drivers/STM32F0xx_HAL_Driver/Src/stm32f0xx_hal_rcc.c ****         
 580              		.loc 1 419 21 is_stmt 0 view .LVU170
 581 0198 FFF7FEFF 		bl	HAL_GetTick
 582              	.LVL32:
 583 019c 0500     		movs	r5, r0
 584              	.LVL33:
 422:Drivers/STM32F0xx_HAL_Driver/Src/stm32f0xx_hal_rcc.c ****         {
 585              		.loc 1 422 9 is_stmt 1 view .LVU171
 586              	.L40:
 422:Drivers/STM32F0xx_HAL_Driver/Src/stm32f0xx_hal_rcc.c ****         {
 587              		.loc 1 422 51 view .LVU172
 422:Drivers/STM32F0xx_HAL_Driver/Src/stm32f0xx_hal_rcc.c ****         {
 588              		.loc 1 422 15 is_stmt 0 view .LVU173
 589 019e 4B4B     		ldr	r3, .L127
 590 01a0 1B68     		ldr	r3, [r3]
 422:Drivers/STM32F0xx_HAL_Driver/Src/stm32f0xx_hal_rcc.c ****         {
 591              		.loc 1 422 51 view .LVU174
 592 01a2 9B07     		lsls	r3, r3, #30
 593 01a4 D1D5     		bpl	.L33
 424:Drivers/STM32F0xx_HAL_Driver/Src/stm32f0xx_hal_rcc.c ****           {
 594              		.loc 1 424 11 is_stmt 1 view .LVU175
 424:Drivers/STM32F0xx_HAL_Driver/Src/stm32f0xx_hal_rcc.c ****           {
 595              		.loc 1 424 15 is_stmt 0 view .LVU176
ARM GAS  C:\Users\Password\AppData\Local\Temp\ccQ2oVJO.s 			page 21


 596 01a6 FFF7FEFF 		bl	HAL_GetTick
 597              	.LVL34:
 424:Drivers/STM32F0xx_HAL_Driver/Src/stm32f0xx_hal_rcc.c ****           {
 598              		.loc 1 424 29 view .LVU177
 599 01aa 401B     		subs	r0, r0, r5
 424:Drivers/STM32F0xx_HAL_Driver/Src/stm32f0xx_hal_rcc.c ****           {
 600              		.loc 1 424 13 view .LVU178
 601 01ac 0228     		cmp	r0, #2
 602 01ae F6D9     		bls	.L40
 426:Drivers/STM32F0xx_HAL_Driver/Src/stm32f0xx_hal_rcc.c ****           }
 603              		.loc 1 426 20 view .LVU179
 604 01b0 0320     		movs	r0, #3
 605 01b2 5AE1     		b	.L20
 606              	.LVL35:
 607              	.L43:
 453:Drivers/STM32F0xx_HAL_Driver/Src/stm32f0xx_hal_rcc.c ****         }
 454:Drivers/STM32F0xx_HAL_Driver/Src/stm32f0xx_hal_rcc.c ****       }
 455:Drivers/STM32F0xx_HAL_Driver/Src/stm32f0xx_hal_rcc.c ****     }
 456:Drivers/STM32F0xx_HAL_Driver/Src/stm32f0xx_hal_rcc.c ****     else
 457:Drivers/STM32F0xx_HAL_Driver/Src/stm32f0xx_hal_rcc.c ****     {
 458:Drivers/STM32F0xx_HAL_Driver/Src/stm32f0xx_hal_rcc.c ****       /* Disable the Internal Low Speed oscillator (LSI). */
 459:Drivers/STM32F0xx_HAL_Driver/Src/stm32f0xx_hal_rcc.c ****       __HAL_RCC_LSI_DISABLE();
 608              		.loc 1 459 7 is_stmt 1 view .LVU180
 609 01b4 454A     		ldr	r2, .L127
 610 01b6 536A     		ldr	r3, [r2, #36]
 611 01b8 0121     		movs	r1, #1
 612 01ba 8B43     		bics	r3, r1
 613 01bc 5362     		str	r3, [r2, #36]
 460:Drivers/STM32F0xx_HAL_Driver/Src/stm32f0xx_hal_rcc.c ****       
 461:Drivers/STM32F0xx_HAL_Driver/Src/stm32f0xx_hal_rcc.c ****       /* Get Start Tick */
 462:Drivers/STM32F0xx_HAL_Driver/Src/stm32f0xx_hal_rcc.c ****       tickstart = HAL_GetTick();
 614              		.loc 1 462 7 view .LVU181
 615              		.loc 1 462 19 is_stmt 0 view .LVU182
 616 01be FFF7FEFF 		bl	HAL_GetTick
 617              	.LVL36:
 618 01c2 0500     		movs	r5, r0
 619              	.LVL37:
 463:Drivers/STM32F0xx_HAL_Driver/Src/stm32f0xx_hal_rcc.c ****       
 464:Drivers/STM32F0xx_HAL_Driver/Src/stm32f0xx_hal_rcc.c ****       /* Wait till LSI is disabled */  
 465:Drivers/STM32F0xx_HAL_Driver/Src/stm32f0xx_hal_rcc.c ****       while(__HAL_RCC_GET_FLAG(RCC_FLAG_LSIRDY) != RESET)
 620              		.loc 1 465 7 is_stmt 1 view .LVU183
 621              	.L46:
 622              		.loc 1 465 49 view .LVU184
 623              		.loc 1 465 13 is_stmt 0 view .LVU185
 624 01c4 414B     		ldr	r3, .L127
 625 01c6 5B6A     		ldr	r3, [r3, #36]
 626              		.loc 1 465 49 view .LVU186
 627 01c8 9B07     		lsls	r3, r3, #30
 628 01ca 06D5     		bpl	.L42
 466:Drivers/STM32F0xx_HAL_Driver/Src/stm32f0xx_hal_rcc.c ****       {
 467:Drivers/STM32F0xx_HAL_Driver/Src/stm32f0xx_hal_rcc.c ****         if((HAL_GetTick() - tickstart ) > LSI_TIMEOUT_VALUE)
 629              		.loc 1 467 9 is_stmt 1 view .LVU187
 630              		.loc 1 467 13 is_stmt 0 view .LVU188
 631 01cc FFF7FEFF 		bl	HAL_GetTick
 632              	.LVL38:
 633              		.loc 1 467 27 view .LVU189
 634 01d0 401B     		subs	r0, r0, r5
ARM GAS  C:\Users\Password\AppData\Local\Temp\ccQ2oVJO.s 			page 22


 635              		.loc 1 467 11 view .LVU190
 636 01d2 0228     		cmp	r0, #2
 637 01d4 F6D9     		bls	.L46
 468:Drivers/STM32F0xx_HAL_Driver/Src/stm32f0xx_hal_rcc.c ****         {
 469:Drivers/STM32F0xx_HAL_Driver/Src/stm32f0xx_hal_rcc.c ****           return HAL_TIMEOUT;
 638              		.loc 1 469 18 view .LVU191
 639 01d6 0320     		movs	r0, #3
 640 01d8 47E1     		b	.L20
 641              	.LVL39:
 642              	.L42:
 470:Drivers/STM32F0xx_HAL_Driver/Src/stm32f0xx_hal_rcc.c ****         }
 471:Drivers/STM32F0xx_HAL_Driver/Src/stm32f0xx_hal_rcc.c ****       }
 472:Drivers/STM32F0xx_HAL_Driver/Src/stm32f0xx_hal_rcc.c ****     }
 473:Drivers/STM32F0xx_HAL_Driver/Src/stm32f0xx_hal_rcc.c ****   }
 474:Drivers/STM32F0xx_HAL_Driver/Src/stm32f0xx_hal_rcc.c ****   /*------------------------------ LSE Configuration -------------------------*/ 
 475:Drivers/STM32F0xx_HAL_Driver/Src/stm32f0xx_hal_rcc.c ****   if(((RCC_OscInitStruct->OscillatorType) & RCC_OSCILLATORTYPE_LSE) == RCC_OSCILLATORTYPE_LSE)
 643              		.loc 1 475 3 is_stmt 1 view .LVU192
 644              		.loc 1 475 25 is_stmt 0 view .LVU193
 645 01da 2368     		ldr	r3, [r4]
 646              		.loc 1 475 5 view .LVU194
 647 01dc 5B07     		lsls	r3, r3, #29
 648 01de 00D4     		bmi	.LCB592
 649 01e0 80E0     		b	.L48	@long jump
 650              	.LCB592:
 651              	.LBB2:
 476:Drivers/STM32F0xx_HAL_Driver/Src/stm32f0xx_hal_rcc.c ****   {
 477:Drivers/STM32F0xx_HAL_Driver/Src/stm32f0xx_hal_rcc.c ****     FlagStatus       pwrclkchanged = RESET;
 652              		.loc 1 477 5 is_stmt 1 view .LVU195
 653              	.LVL40:
 478:Drivers/STM32F0xx_HAL_Driver/Src/stm32f0xx_hal_rcc.c ****     
 479:Drivers/STM32F0xx_HAL_Driver/Src/stm32f0xx_hal_rcc.c ****     /* Check the parameters */
 480:Drivers/STM32F0xx_HAL_Driver/Src/stm32f0xx_hal_rcc.c ****     assert_param(IS_RCC_LSE(RCC_OscInitStruct->LSEState));
 654              		.loc 1 480 5 view .LVU196
 481:Drivers/STM32F0xx_HAL_Driver/Src/stm32f0xx_hal_rcc.c **** 
 482:Drivers/STM32F0xx_HAL_Driver/Src/stm32f0xx_hal_rcc.c ****     /* Update LSE configuration in Backup Domain control register    */
 483:Drivers/STM32F0xx_HAL_Driver/Src/stm32f0xx_hal_rcc.c ****     /* Requires to enable write access to Backup Domain of necessary */
 484:Drivers/STM32F0xx_HAL_Driver/Src/stm32f0xx_hal_rcc.c ****     if(__HAL_RCC_PWR_IS_CLK_DISABLED())
 655              		.loc 1 484 5 view .LVU197
 656              		.loc 1 484 8 is_stmt 0 view .LVU198
 657 01e2 3A4B     		ldr	r3, .L127
 658 01e4 DB69     		ldr	r3, [r3, #28]
 659              		.loc 1 484 7 view .LVU199
 660 01e6 DB00     		lsls	r3, r3, #3
 661 01e8 1DD4     		bmi	.L87
 485:Drivers/STM32F0xx_HAL_Driver/Src/stm32f0xx_hal_rcc.c ****     {
 486:Drivers/STM32F0xx_HAL_Driver/Src/stm32f0xx_hal_rcc.c ****       __HAL_RCC_PWR_CLK_ENABLE();
 662              		.loc 1 486 7 is_stmt 1 view .LVU200
 663              	.LBB3:
 664              		.loc 1 486 7 view .LVU201
 665              		.loc 1 486 7 view .LVU202
 666 01ea 384B     		ldr	r3, .L127
 667 01ec DA69     		ldr	r2, [r3, #28]
 668 01ee 8021     		movs	r1, #128
 669 01f0 4905     		lsls	r1, r1, #21
 670 01f2 0A43     		orrs	r2, r1
 671 01f4 DA61     		str	r2, [r3, #28]
 672              		.loc 1 486 7 view .LVU203
ARM GAS  C:\Users\Password\AppData\Local\Temp\ccQ2oVJO.s 			page 23


 673 01f6 DB69     		ldr	r3, [r3, #28]
 674 01f8 0B40     		ands	r3, r1
 675 01fa 0193     		str	r3, [sp, #4]
 676              		.loc 1 486 7 view .LVU204
 677 01fc 019B     		ldr	r3, [sp, #4]
 678              	.LBE3:
 679              		.loc 1 486 7 view .LVU205
 487:Drivers/STM32F0xx_HAL_Driver/Src/stm32f0xx_hal_rcc.c ****       pwrclkchanged = SET;
 680              		.loc 1 487 7 view .LVU206
 681              	.LVL41:
 682              		.loc 1 487 21 is_stmt 0 view .LVU207
 683 01fe 0125     		movs	r5, #1
 684              	.LVL42:
 685              	.L49:
 488:Drivers/STM32F0xx_HAL_Driver/Src/stm32f0xx_hal_rcc.c ****     }
 489:Drivers/STM32F0xx_HAL_Driver/Src/stm32f0xx_hal_rcc.c ****     
 490:Drivers/STM32F0xx_HAL_Driver/Src/stm32f0xx_hal_rcc.c ****     if(HAL_IS_BIT_CLR(PWR->CR, PWR_CR_DBP))
 686              		.loc 1 490 5 is_stmt 1 view .LVU208
 687              		.loc 1 490 8 is_stmt 0 view .LVU209
 688 0200 354B     		ldr	r3, .L127+12
 689 0202 1B68     		ldr	r3, [r3]
 690              		.loc 1 490 7 view .LVU210
 691 0204 DB05     		lsls	r3, r3, #23
 692 0206 10D5     		bpl	.L117
 693              	.L50:
 491:Drivers/STM32F0xx_HAL_Driver/Src/stm32f0xx_hal_rcc.c ****     {
 492:Drivers/STM32F0xx_HAL_Driver/Src/stm32f0xx_hal_rcc.c ****       /* Enable write access to Backup domain */
 493:Drivers/STM32F0xx_HAL_Driver/Src/stm32f0xx_hal_rcc.c ****       SET_BIT(PWR->CR, PWR_CR_DBP);
 494:Drivers/STM32F0xx_HAL_Driver/Src/stm32f0xx_hal_rcc.c ****       
 495:Drivers/STM32F0xx_HAL_Driver/Src/stm32f0xx_hal_rcc.c ****       /* Wait for Backup domain Write protection disable */
 496:Drivers/STM32F0xx_HAL_Driver/Src/stm32f0xx_hal_rcc.c ****       tickstart = HAL_GetTick();
 497:Drivers/STM32F0xx_HAL_Driver/Src/stm32f0xx_hal_rcc.c **** 
 498:Drivers/STM32F0xx_HAL_Driver/Src/stm32f0xx_hal_rcc.c ****       while(HAL_IS_BIT_CLR(PWR->CR, PWR_CR_DBP))
 499:Drivers/STM32F0xx_HAL_Driver/Src/stm32f0xx_hal_rcc.c ****       {
 500:Drivers/STM32F0xx_HAL_Driver/Src/stm32f0xx_hal_rcc.c ****         if((HAL_GetTick() - tickstart) > RCC_DBP_TIMEOUT_VALUE)
 501:Drivers/STM32F0xx_HAL_Driver/Src/stm32f0xx_hal_rcc.c ****         {
 502:Drivers/STM32F0xx_HAL_Driver/Src/stm32f0xx_hal_rcc.c ****           return HAL_TIMEOUT;
 503:Drivers/STM32F0xx_HAL_Driver/Src/stm32f0xx_hal_rcc.c ****         }
 504:Drivers/STM32F0xx_HAL_Driver/Src/stm32f0xx_hal_rcc.c ****       }
 505:Drivers/STM32F0xx_HAL_Driver/Src/stm32f0xx_hal_rcc.c ****     }
 506:Drivers/STM32F0xx_HAL_Driver/Src/stm32f0xx_hal_rcc.c **** 
 507:Drivers/STM32F0xx_HAL_Driver/Src/stm32f0xx_hal_rcc.c ****     /* Set the new LSE configuration -----------------------------------------*/
 508:Drivers/STM32F0xx_HAL_Driver/Src/stm32f0xx_hal_rcc.c ****     __HAL_RCC_LSE_CONFIG(RCC_OscInitStruct->LSEState);
 694              		.loc 1 508 5 is_stmt 1 view .LVU211
 695              		.loc 1 508 5 view .LVU212
 696 0208 A368     		ldr	r3, [r4, #8]
 697 020a 012B     		cmp	r3, #1
 698 020c 21D0     		beq	.L118
 699              		.loc 1 508 5 discriminator 2 view .LVU213
 700 020e 002B     		cmp	r3, #0
 701 0210 36D1     		bne	.L55
 702              		.loc 1 508 5 discriminator 4 view .LVU214
 703 0212 2E4B     		ldr	r3, .L127
 704 0214 1A6A     		ldr	r2, [r3, #32]
 705 0216 0121     		movs	r1, #1
 706 0218 8A43     		bics	r2, r1
 707 021a 1A62     		str	r2, [r3, #32]
ARM GAS  C:\Users\Password\AppData\Local\Temp\ccQ2oVJO.s 			page 24


 708              		.loc 1 508 5 discriminator 4 view .LVU215
 709 021c 1A6A     		ldr	r2, [r3, #32]
 710 021e 0331     		adds	r1, r1, #3
 711 0220 8A43     		bics	r2, r1
 712 0222 1A62     		str	r2, [r3, #32]
 713 0224 1AE0     		b	.L54
 714              	.LVL43:
 715              	.L87:
 477:Drivers/STM32F0xx_HAL_Driver/Src/stm32f0xx_hal_rcc.c ****     
 716              		.loc 1 477 22 is_stmt 0 view .LVU216
 717 0226 0025     		movs	r5, #0
 718 0228 EAE7     		b	.L49
 719              	.LVL44:
 720              	.L117:
 493:Drivers/STM32F0xx_HAL_Driver/Src/stm32f0xx_hal_rcc.c ****       
 721              		.loc 1 493 7 is_stmt 1 view .LVU217
 722 022a 2B4A     		ldr	r2, .L127+12
 723 022c 1168     		ldr	r1, [r2]
 724 022e 8023     		movs	r3, #128
 725 0230 5B00     		lsls	r3, r3, #1
 726 0232 0B43     		orrs	r3, r1
 727 0234 1360     		str	r3, [r2]
 496:Drivers/STM32F0xx_HAL_Driver/Src/stm32f0xx_hal_rcc.c **** 
 728              		.loc 1 496 7 view .LVU218
 496:Drivers/STM32F0xx_HAL_Driver/Src/stm32f0xx_hal_rcc.c **** 
 729              		.loc 1 496 19 is_stmt 0 view .LVU219
 730 0236 FFF7FEFF 		bl	HAL_GetTick
 731              	.LVL45:
 732 023a 0600     		movs	r6, r0
 733              	.LVL46:
 498:Drivers/STM32F0xx_HAL_Driver/Src/stm32f0xx_hal_rcc.c ****       {
 734              		.loc 1 498 7 is_stmt 1 view .LVU220
 735              	.L51:
 498:Drivers/STM32F0xx_HAL_Driver/Src/stm32f0xx_hal_rcc.c ****       {
 736              		.loc 1 498 13 view .LVU221
 737 023c 264B     		ldr	r3, .L127+12
 738 023e 1B68     		ldr	r3, [r3]
 739 0240 DB05     		lsls	r3, r3, #23
 740 0242 E1D4     		bmi	.L50
 500:Drivers/STM32F0xx_HAL_Driver/Src/stm32f0xx_hal_rcc.c ****         {
 741              		.loc 1 500 9 view .LVU222
 500:Drivers/STM32F0xx_HAL_Driver/Src/stm32f0xx_hal_rcc.c ****         {
 742              		.loc 1 500 13 is_stmt 0 view .LVU223
 743 0244 FFF7FEFF 		bl	HAL_GetTick
 744              	.LVL47:
 500:Drivers/STM32F0xx_HAL_Driver/Src/stm32f0xx_hal_rcc.c ****         {
 745              		.loc 1 500 27 view .LVU224
 746 0248 801B     		subs	r0, r0, r6
 500:Drivers/STM32F0xx_HAL_Driver/Src/stm32f0xx_hal_rcc.c ****         {
 747              		.loc 1 500 11 view .LVU225
 748 024a 6428     		cmp	r0, #100
 749 024c F6D9     		bls	.L51
 502:Drivers/STM32F0xx_HAL_Driver/Src/stm32f0xx_hal_rcc.c ****         }
 750              		.loc 1 502 18 view .LVU226
 751 024e 0320     		movs	r0, #3
 752 0250 0BE1     		b	.L20
 753              	.LVL48:
ARM GAS  C:\Users\Password\AppData\Local\Temp\ccQ2oVJO.s 			page 25


 754              	.L118:
 755              		.loc 1 508 5 is_stmt 1 discriminator 1 view .LVU227
 756 0252 1E4A     		ldr	r2, .L127
 757 0254 136A     		ldr	r3, [r2, #32]
 758 0256 0121     		movs	r1, #1
 759 0258 0B43     		orrs	r3, r1
 760 025a 1362     		str	r3, [r2, #32]
 761              	.L54:
 762              		.loc 1 508 5 discriminator 10 view .LVU228
 509:Drivers/STM32F0xx_HAL_Driver/Src/stm32f0xx_hal_rcc.c ****     /* Check the LSE State */
 510:Drivers/STM32F0xx_HAL_Driver/Src/stm32f0xx_hal_rcc.c ****     if(RCC_OscInitStruct->LSEState != RCC_LSE_OFF)
 763              		.loc 1 510 5 discriminator 10 view .LVU229
 764              		.loc 1 510 25 is_stmt 0 discriminator 10 view .LVU230
 765 025c A368     		ldr	r3, [r4, #8]
 766              		.loc 1 510 7 discriminator 10 view .LVU231
 767 025e 002B     		cmp	r3, #0
 768 0260 24D0     		beq	.L57
 511:Drivers/STM32F0xx_HAL_Driver/Src/stm32f0xx_hal_rcc.c ****     {
 512:Drivers/STM32F0xx_HAL_Driver/Src/stm32f0xx_hal_rcc.c ****       /* Get Start Tick */
 513:Drivers/STM32F0xx_HAL_Driver/Src/stm32f0xx_hal_rcc.c ****       tickstart = HAL_GetTick();
 769              		.loc 1 513 7 is_stmt 1 view .LVU232
 770              		.loc 1 513 19 is_stmt 0 view .LVU233
 771 0262 FFF7FEFF 		bl	HAL_GetTick
 772              	.LVL49:
 773 0266 0600     		movs	r6, r0
 774              	.LVL50:
 514:Drivers/STM32F0xx_HAL_Driver/Src/stm32f0xx_hal_rcc.c ****       
 515:Drivers/STM32F0xx_HAL_Driver/Src/stm32f0xx_hal_rcc.c ****       /* Wait till LSE is ready */  
 516:Drivers/STM32F0xx_HAL_Driver/Src/stm32f0xx_hal_rcc.c ****       while(__HAL_RCC_GET_FLAG(RCC_FLAG_LSERDY) == RESET)
 775              		.loc 1 516 7 is_stmt 1 view .LVU234
 776              	.L58:
 777              		.loc 1 516 49 view .LVU235
 778              		.loc 1 516 13 is_stmt 0 view .LVU236
 779 0268 184B     		ldr	r3, .L127
 780 026a 1B6A     		ldr	r3, [r3, #32]
 781              		.loc 1 516 49 view .LVU237
 782 026c 9B07     		lsls	r3, r3, #30
 783 026e 37D4     		bmi	.L60
 517:Drivers/STM32F0xx_HAL_Driver/Src/stm32f0xx_hal_rcc.c ****       {
 518:Drivers/STM32F0xx_HAL_Driver/Src/stm32f0xx_hal_rcc.c ****         if((HAL_GetTick() - tickstart ) > RCC_LSE_TIMEOUT_VALUE)
 784              		.loc 1 518 9 is_stmt 1 view .LVU238
 785              		.loc 1 518 13 is_stmt 0 view .LVU239
 786 0270 FFF7FEFF 		bl	HAL_GetTick
 787              	.LVL51:
 788              		.loc 1 518 27 view .LVU240
 789 0274 801B     		subs	r0, r0, r6
 790              		.loc 1 518 11 view .LVU241
 791 0276 194B     		ldr	r3, .L127+16
 792 0278 9842     		cmp	r0, r3
 793 027a F5D9     		bls	.L58
 519:Drivers/STM32F0xx_HAL_Driver/Src/stm32f0xx_hal_rcc.c ****         {
 520:Drivers/STM32F0xx_HAL_Driver/Src/stm32f0xx_hal_rcc.c ****           return HAL_TIMEOUT;
 794              		.loc 1 520 18 view .LVU242
 795 027c 0320     		movs	r0, #3
 796 027e F4E0     		b	.L20
 797              	.LVL52:
 798              	.L55:
ARM GAS  C:\Users\Password\AppData\Local\Temp\ccQ2oVJO.s 			page 26


 508:Drivers/STM32F0xx_HAL_Driver/Src/stm32f0xx_hal_rcc.c ****     /* Check the LSE State */
 799              		.loc 1 508 5 is_stmt 1 discriminator 5 view .LVU243
 800 0280 052B     		cmp	r3, #5
 801 0282 09D0     		beq	.L119
 508:Drivers/STM32F0xx_HAL_Driver/Src/stm32f0xx_hal_rcc.c ****     /* Check the LSE State */
 802              		.loc 1 508 5 discriminator 8 view .LVU244
 803 0284 114B     		ldr	r3, .L127
 804 0286 1A6A     		ldr	r2, [r3, #32]
 805 0288 0121     		movs	r1, #1
 806 028a 8A43     		bics	r2, r1
 807 028c 1A62     		str	r2, [r3, #32]
 508:Drivers/STM32F0xx_HAL_Driver/Src/stm32f0xx_hal_rcc.c ****     /* Check the LSE State */
 808              		.loc 1 508 5 discriminator 8 view .LVU245
 809 028e 1A6A     		ldr	r2, [r3, #32]
 810 0290 0331     		adds	r1, r1, #3
 811 0292 8A43     		bics	r2, r1
 812 0294 1A62     		str	r2, [r3, #32]
 813 0296 E1E7     		b	.L54
 814              	.L119:
 508:Drivers/STM32F0xx_HAL_Driver/Src/stm32f0xx_hal_rcc.c ****     /* Check the LSE State */
 815              		.loc 1 508 5 discriminator 7 view .LVU246
 816 0298 0C4B     		ldr	r3, .L127
 817 029a 1A6A     		ldr	r2, [r3, #32]
 818 029c 0421     		movs	r1, #4
 819 029e 0A43     		orrs	r2, r1
 820 02a0 1A62     		str	r2, [r3, #32]
 508:Drivers/STM32F0xx_HAL_Driver/Src/stm32f0xx_hal_rcc.c ****     /* Check the LSE State */
 821              		.loc 1 508 5 discriminator 7 view .LVU247
 822 02a2 1A6A     		ldr	r2, [r3, #32]
 823 02a4 0339     		subs	r1, r1, #3
 824 02a6 0A43     		orrs	r2, r1
 825 02a8 1A62     		str	r2, [r3, #32]
 826 02aa D7E7     		b	.L54
 827              	.L57:
 521:Drivers/STM32F0xx_HAL_Driver/Src/stm32f0xx_hal_rcc.c ****         }
 522:Drivers/STM32F0xx_HAL_Driver/Src/stm32f0xx_hal_rcc.c ****       }
 523:Drivers/STM32F0xx_HAL_Driver/Src/stm32f0xx_hal_rcc.c ****     }
 524:Drivers/STM32F0xx_HAL_Driver/Src/stm32f0xx_hal_rcc.c ****     else
 525:Drivers/STM32F0xx_HAL_Driver/Src/stm32f0xx_hal_rcc.c ****     {
 526:Drivers/STM32F0xx_HAL_Driver/Src/stm32f0xx_hal_rcc.c ****       /* Get Start Tick */
 527:Drivers/STM32F0xx_HAL_Driver/Src/stm32f0xx_hal_rcc.c ****       tickstart = HAL_GetTick();
 828              		.loc 1 527 7 view .LVU248
 829              		.loc 1 527 19 is_stmt 0 view .LVU249
 830 02ac FFF7FEFF 		bl	HAL_GetTick
 831              	.LVL53:
 832 02b0 0600     		movs	r6, r0
 833              	.LVL54:
 528:Drivers/STM32F0xx_HAL_Driver/Src/stm32f0xx_hal_rcc.c ****       
 529:Drivers/STM32F0xx_HAL_Driver/Src/stm32f0xx_hal_rcc.c ****       /* Wait till LSE is disabled */  
 530:Drivers/STM32F0xx_HAL_Driver/Src/stm32f0xx_hal_rcc.c ****       while(__HAL_RCC_GET_FLAG(RCC_FLAG_LSERDY) != RESET)
 834              		.loc 1 530 7 is_stmt 1 view .LVU250
 835              	.L61:
 836              		.loc 1 530 49 view .LVU251
 837              		.loc 1 530 13 is_stmt 0 view .LVU252
 838 02b2 064B     		ldr	r3, .L127
 839 02b4 1B6A     		ldr	r3, [r3, #32]
 840              		.loc 1 530 49 view .LVU253
ARM GAS  C:\Users\Password\AppData\Local\Temp\ccQ2oVJO.s 			page 27


 841 02b6 9B07     		lsls	r3, r3, #30
 842 02b8 12D5     		bpl	.L60
 531:Drivers/STM32F0xx_HAL_Driver/Src/stm32f0xx_hal_rcc.c ****       {
 532:Drivers/STM32F0xx_HAL_Driver/Src/stm32f0xx_hal_rcc.c ****         if((HAL_GetTick() - tickstart ) > RCC_LSE_TIMEOUT_VALUE)
 843              		.loc 1 532 9 is_stmt 1 view .LVU254
 844              		.loc 1 532 13 is_stmt 0 view .LVU255
 845 02ba FFF7FEFF 		bl	HAL_GetTick
 846              	.LVL55:
 847              		.loc 1 532 27 view .LVU256
 848 02be 801B     		subs	r0, r0, r6
 849              		.loc 1 532 11 view .LVU257
 850 02c0 064B     		ldr	r3, .L127+16
 851 02c2 9842     		cmp	r0, r3
 852 02c4 F5D9     		bls	.L61
 533:Drivers/STM32F0xx_HAL_Driver/Src/stm32f0xx_hal_rcc.c ****         {
 534:Drivers/STM32F0xx_HAL_Driver/Src/stm32f0xx_hal_rcc.c ****           return HAL_TIMEOUT;
 853              		.loc 1 534 18 view .LVU258
 854 02c6 0320     		movs	r0, #3
 855 02c8 CFE0     		b	.L20
 856              	.L128:
 857 02ca C046     		.align	2
 858              	.L127:
 859 02cc 00100240 		.word	1073876992
 860 02d0 FFFFFEFF 		.word	-65537
 861 02d4 FFFFFBFF 		.word	-262145
 862 02d8 00700040 		.word	1073770496
 863 02dc 88130000 		.word	5000
 864              	.L60:
 535:Drivers/STM32F0xx_HAL_Driver/Src/stm32f0xx_hal_rcc.c ****         }
 536:Drivers/STM32F0xx_HAL_Driver/Src/stm32f0xx_hal_rcc.c ****       }
 537:Drivers/STM32F0xx_HAL_Driver/Src/stm32f0xx_hal_rcc.c ****     }
 538:Drivers/STM32F0xx_HAL_Driver/Src/stm32f0xx_hal_rcc.c **** 
 539:Drivers/STM32F0xx_HAL_Driver/Src/stm32f0xx_hal_rcc.c ****     /* Require to disable power clock if necessary */
 540:Drivers/STM32F0xx_HAL_Driver/Src/stm32f0xx_hal_rcc.c ****     if(pwrclkchanged == SET)
 865              		.loc 1 540 5 is_stmt 1 view .LVU259
 866              		.loc 1 540 7 is_stmt 0 view .LVU260
 867 02e0 012D     		cmp	r5, #1
 868 02e2 33D0     		beq	.L120
 869              	.LVL56:
 870              	.L48:
 871              		.loc 1 540 7 view .LVU261
 872              	.LBE2:
 541:Drivers/STM32F0xx_HAL_Driver/Src/stm32f0xx_hal_rcc.c ****     {
 542:Drivers/STM32F0xx_HAL_Driver/Src/stm32f0xx_hal_rcc.c ****       __HAL_RCC_PWR_CLK_DISABLE();
 543:Drivers/STM32F0xx_HAL_Driver/Src/stm32f0xx_hal_rcc.c ****     }
 544:Drivers/STM32F0xx_HAL_Driver/Src/stm32f0xx_hal_rcc.c ****   }
 545:Drivers/STM32F0xx_HAL_Driver/Src/stm32f0xx_hal_rcc.c **** 
 546:Drivers/STM32F0xx_HAL_Driver/Src/stm32f0xx_hal_rcc.c ****   /*----------------------------- HSI14 Configuration --------------------------*/
 547:Drivers/STM32F0xx_HAL_Driver/Src/stm32f0xx_hal_rcc.c ****   if(((RCC_OscInitStruct->OscillatorType) & RCC_OSCILLATORTYPE_HSI14) == RCC_OSCILLATORTYPE_HSI14)
 873              		.loc 1 547 3 is_stmt 1 view .LVU262
 874              		.loc 1 547 25 is_stmt 0 view .LVU263
 875 02e4 2368     		ldr	r3, [r4]
 876              		.loc 1 547 5 view .LVU264
 877 02e6 DB06     		lsls	r3, r3, #27
 878 02e8 10D5     		bpl	.L63
 548:Drivers/STM32F0xx_HAL_Driver/Src/stm32f0xx_hal_rcc.c ****   {
 549:Drivers/STM32F0xx_HAL_Driver/Src/stm32f0xx_hal_rcc.c ****     /* Check the parameters */
ARM GAS  C:\Users\Password\AppData\Local\Temp\ccQ2oVJO.s 			page 28


 550:Drivers/STM32F0xx_HAL_Driver/Src/stm32f0xx_hal_rcc.c ****     assert_param(IS_RCC_HSI14(RCC_OscInitStruct->HSI14State));
 879              		.loc 1 550 5 is_stmt 1 view .LVU265
 551:Drivers/STM32F0xx_HAL_Driver/Src/stm32f0xx_hal_rcc.c ****     assert_param(IS_RCC_CALIBRATION_VALUE(RCC_OscInitStruct->HSI14CalibrationValue));
 880              		.loc 1 551 5 view .LVU266
 552:Drivers/STM32F0xx_HAL_Driver/Src/stm32f0xx_hal_rcc.c **** 
 553:Drivers/STM32F0xx_HAL_Driver/Src/stm32f0xx_hal_rcc.c ****     /* Check the HSI14 State */
 554:Drivers/STM32F0xx_HAL_Driver/Src/stm32f0xx_hal_rcc.c ****     if(RCC_OscInitStruct->HSI14State == RCC_HSI14_ON)
 881              		.loc 1 554 5 view .LVU267
 882              		.loc 1 554 25 is_stmt 0 view .LVU268
 883 02ea 6369     		ldr	r3, [r4, #20]
 884              		.loc 1 554 7 view .LVU269
 885 02ec 012B     		cmp	r3, #1
 886 02ee 33D0     		beq	.L121
 555:Drivers/STM32F0xx_HAL_Driver/Src/stm32f0xx_hal_rcc.c ****     {
 556:Drivers/STM32F0xx_HAL_Driver/Src/stm32f0xx_hal_rcc.c ****       /* Disable ADC control of the Internal High Speed oscillator HSI14 */
 557:Drivers/STM32F0xx_HAL_Driver/Src/stm32f0xx_hal_rcc.c ****       __HAL_RCC_HSI14ADC_DISABLE();
 558:Drivers/STM32F0xx_HAL_Driver/Src/stm32f0xx_hal_rcc.c **** 
 559:Drivers/STM32F0xx_HAL_Driver/Src/stm32f0xx_hal_rcc.c ****       /* Enable the Internal High Speed oscillator (HSI). */
 560:Drivers/STM32F0xx_HAL_Driver/Src/stm32f0xx_hal_rcc.c ****       __HAL_RCC_HSI14_ENABLE();
 561:Drivers/STM32F0xx_HAL_Driver/Src/stm32f0xx_hal_rcc.c **** 
 562:Drivers/STM32F0xx_HAL_Driver/Src/stm32f0xx_hal_rcc.c ****       /* Get Start Tick */
 563:Drivers/STM32F0xx_HAL_Driver/Src/stm32f0xx_hal_rcc.c ****       tickstart = HAL_GetTick();
 564:Drivers/STM32F0xx_HAL_Driver/Src/stm32f0xx_hal_rcc.c ****       
 565:Drivers/STM32F0xx_HAL_Driver/Src/stm32f0xx_hal_rcc.c ****       /* Wait till HSI is ready */  
 566:Drivers/STM32F0xx_HAL_Driver/Src/stm32f0xx_hal_rcc.c ****       while(__HAL_RCC_GET_FLAG(RCC_FLAG_HSI14RDY) == RESET)
 567:Drivers/STM32F0xx_HAL_Driver/Src/stm32f0xx_hal_rcc.c ****       {
 568:Drivers/STM32F0xx_HAL_Driver/Src/stm32f0xx_hal_rcc.c ****         if((HAL_GetTick() - tickstart) > HSI14_TIMEOUT_VALUE)
 569:Drivers/STM32F0xx_HAL_Driver/Src/stm32f0xx_hal_rcc.c ****         {
 570:Drivers/STM32F0xx_HAL_Driver/Src/stm32f0xx_hal_rcc.c ****           return HAL_TIMEOUT;
 571:Drivers/STM32F0xx_HAL_Driver/Src/stm32f0xx_hal_rcc.c ****         }      
 572:Drivers/STM32F0xx_HAL_Driver/Src/stm32f0xx_hal_rcc.c ****       } 
 573:Drivers/STM32F0xx_HAL_Driver/Src/stm32f0xx_hal_rcc.c **** 
 574:Drivers/STM32F0xx_HAL_Driver/Src/stm32f0xx_hal_rcc.c ****       /* Adjusts the Internal High Speed oscillator 14Mhz (HSI14) calibration value. */
 575:Drivers/STM32F0xx_HAL_Driver/Src/stm32f0xx_hal_rcc.c ****       __HAL_RCC_HSI14_CALIBRATIONVALUE_ADJUST(RCC_OscInitStruct->HSI14CalibrationValue);
 576:Drivers/STM32F0xx_HAL_Driver/Src/stm32f0xx_hal_rcc.c ****     }
 577:Drivers/STM32F0xx_HAL_Driver/Src/stm32f0xx_hal_rcc.c ****     else if(RCC_OscInitStruct->HSI14State == RCC_HSI14_ADC_CONTROL)
 887              		.loc 1 577 10 is_stmt 1 view .LVU270
 888              		.loc 1 577 12 is_stmt 0 view .LVU271
 889 02f0 0533     		adds	r3, r3, #5
 890 02f2 51D1     		bne	.L67
 578:Drivers/STM32F0xx_HAL_Driver/Src/stm32f0xx_hal_rcc.c ****     {
 579:Drivers/STM32F0xx_HAL_Driver/Src/stm32f0xx_hal_rcc.c ****       /* Enable ADC control of the Internal High Speed oscillator HSI14 */
 580:Drivers/STM32F0xx_HAL_Driver/Src/stm32f0xx_hal_rcc.c ****       __HAL_RCC_HSI14ADC_ENABLE();
 891              		.loc 1 580 7 is_stmt 1 view .LVU272
 892 02f4 654A     		ldr	r2, .L129
 893 02f6 536B     		ldr	r3, [r2, #52]
 894 02f8 0421     		movs	r1, #4
 895 02fa 8B43     		bics	r3, r1
 896 02fc 5363     		str	r3, [r2, #52]
 581:Drivers/STM32F0xx_HAL_Driver/Src/stm32f0xx_hal_rcc.c **** 
 582:Drivers/STM32F0xx_HAL_Driver/Src/stm32f0xx_hal_rcc.c ****       /* Adjusts the Internal High Speed oscillator 14Mhz (HSI14) calibration value. */
 583:Drivers/STM32F0xx_HAL_Driver/Src/stm32f0xx_hal_rcc.c ****       __HAL_RCC_HSI14_CALIBRATIONVALUE_ADJUST(RCC_OscInitStruct->HSI14CalibrationValue);
 897              		.loc 1 583 7 view .LVU273
 898 02fe 536B     		ldr	r3, [r2, #52]
 899 0300 F431     		adds	r1, r1, #244
 900 0302 8B43     		bics	r3, r1
 901 0304 A169     		ldr	r1, [r4, #24]
ARM GAS  C:\Users\Password\AppData\Local\Temp\ccQ2oVJO.s 			page 29


 902 0306 C900     		lsls	r1, r1, #3
 903 0308 0B43     		orrs	r3, r1
 904 030a 5363     		str	r3, [r2, #52]
 905              	.L63:
 584:Drivers/STM32F0xx_HAL_Driver/Src/stm32f0xx_hal_rcc.c ****     }
 585:Drivers/STM32F0xx_HAL_Driver/Src/stm32f0xx_hal_rcc.c ****     else
 586:Drivers/STM32F0xx_HAL_Driver/Src/stm32f0xx_hal_rcc.c ****     {
 587:Drivers/STM32F0xx_HAL_Driver/Src/stm32f0xx_hal_rcc.c ****       /* Disable ADC control of the Internal High Speed oscillator HSI14 */
 588:Drivers/STM32F0xx_HAL_Driver/Src/stm32f0xx_hal_rcc.c ****       __HAL_RCC_HSI14ADC_DISABLE();
 589:Drivers/STM32F0xx_HAL_Driver/Src/stm32f0xx_hal_rcc.c **** 
 590:Drivers/STM32F0xx_HAL_Driver/Src/stm32f0xx_hal_rcc.c ****       /* Disable the Internal High Speed oscillator (HSI). */
 591:Drivers/STM32F0xx_HAL_Driver/Src/stm32f0xx_hal_rcc.c ****       __HAL_RCC_HSI14_DISABLE();
 592:Drivers/STM32F0xx_HAL_Driver/Src/stm32f0xx_hal_rcc.c **** 
 593:Drivers/STM32F0xx_HAL_Driver/Src/stm32f0xx_hal_rcc.c ****       /* Get Start Tick */
 594:Drivers/STM32F0xx_HAL_Driver/Src/stm32f0xx_hal_rcc.c ****       tickstart = HAL_GetTick();
 595:Drivers/STM32F0xx_HAL_Driver/Src/stm32f0xx_hal_rcc.c ****       
 596:Drivers/STM32F0xx_HAL_Driver/Src/stm32f0xx_hal_rcc.c ****       /* Wait till HSI is ready */  
 597:Drivers/STM32F0xx_HAL_Driver/Src/stm32f0xx_hal_rcc.c ****       while(__HAL_RCC_GET_FLAG(RCC_FLAG_HSI14RDY) != RESET)
 598:Drivers/STM32F0xx_HAL_Driver/Src/stm32f0xx_hal_rcc.c ****       {
 599:Drivers/STM32F0xx_HAL_Driver/Src/stm32f0xx_hal_rcc.c ****         if((HAL_GetTick() - tickstart) > HSI14_TIMEOUT_VALUE)
 600:Drivers/STM32F0xx_HAL_Driver/Src/stm32f0xx_hal_rcc.c ****         {
 601:Drivers/STM32F0xx_HAL_Driver/Src/stm32f0xx_hal_rcc.c ****           return HAL_TIMEOUT;
 602:Drivers/STM32F0xx_HAL_Driver/Src/stm32f0xx_hal_rcc.c ****         }
 603:Drivers/STM32F0xx_HAL_Driver/Src/stm32f0xx_hal_rcc.c ****       }
 604:Drivers/STM32F0xx_HAL_Driver/Src/stm32f0xx_hal_rcc.c ****     }
 605:Drivers/STM32F0xx_HAL_Driver/Src/stm32f0xx_hal_rcc.c ****   }
 606:Drivers/STM32F0xx_HAL_Driver/Src/stm32f0xx_hal_rcc.c **** 
 607:Drivers/STM32F0xx_HAL_Driver/Src/stm32f0xx_hal_rcc.c **** #if defined(RCC_HSI48_SUPPORT)
 608:Drivers/STM32F0xx_HAL_Driver/Src/stm32f0xx_hal_rcc.c ****   /*----------------------------- HSI48 Configuration --------------------------*/
 609:Drivers/STM32F0xx_HAL_Driver/Src/stm32f0xx_hal_rcc.c ****   if(((RCC_OscInitStruct->OscillatorType) & RCC_OSCILLATORTYPE_HSI48) == RCC_OSCILLATORTYPE_HSI48)
 610:Drivers/STM32F0xx_HAL_Driver/Src/stm32f0xx_hal_rcc.c ****   {
 611:Drivers/STM32F0xx_HAL_Driver/Src/stm32f0xx_hal_rcc.c ****     /* Check the parameters */
 612:Drivers/STM32F0xx_HAL_Driver/Src/stm32f0xx_hal_rcc.c ****     assert_param(IS_RCC_HSI48(RCC_OscInitStruct->HSI48State));
 613:Drivers/STM32F0xx_HAL_Driver/Src/stm32f0xx_hal_rcc.c **** 
 614:Drivers/STM32F0xx_HAL_Driver/Src/stm32f0xx_hal_rcc.c ****     /* When the HSI48 is used as system clock it is not allowed to be disabled */
 615:Drivers/STM32F0xx_HAL_Driver/Src/stm32f0xx_hal_rcc.c ****     if((__HAL_RCC_GET_SYSCLK_SOURCE() == RCC_SYSCLKSOURCE_STATUS_HSI48) ||
 616:Drivers/STM32F0xx_HAL_Driver/Src/stm32f0xx_hal_rcc.c ****        ((__HAL_RCC_GET_SYSCLK_SOURCE() == RCC_SYSCLKSOURCE_STATUS_PLLCLK) && (__HAL_RCC_GET_PLL_OSC
 617:Drivers/STM32F0xx_HAL_Driver/Src/stm32f0xx_hal_rcc.c ****     {
 618:Drivers/STM32F0xx_HAL_Driver/Src/stm32f0xx_hal_rcc.c ****       if((__HAL_RCC_GET_FLAG(RCC_FLAG_HSI48RDY) != RESET) && (RCC_OscInitStruct->HSI48State != RCC_
 619:Drivers/STM32F0xx_HAL_Driver/Src/stm32f0xx_hal_rcc.c ****       {
 620:Drivers/STM32F0xx_HAL_Driver/Src/stm32f0xx_hal_rcc.c ****         return HAL_ERROR;
 621:Drivers/STM32F0xx_HAL_Driver/Src/stm32f0xx_hal_rcc.c ****       }
 622:Drivers/STM32F0xx_HAL_Driver/Src/stm32f0xx_hal_rcc.c ****     }
 623:Drivers/STM32F0xx_HAL_Driver/Src/stm32f0xx_hal_rcc.c ****     else
 624:Drivers/STM32F0xx_HAL_Driver/Src/stm32f0xx_hal_rcc.c ****     {
 625:Drivers/STM32F0xx_HAL_Driver/Src/stm32f0xx_hal_rcc.c ****       /* Check the HSI48 State */
 626:Drivers/STM32F0xx_HAL_Driver/Src/stm32f0xx_hal_rcc.c ****       if(RCC_OscInitStruct->HSI48State != RCC_HSI48_OFF)
 627:Drivers/STM32F0xx_HAL_Driver/Src/stm32f0xx_hal_rcc.c ****       {
 628:Drivers/STM32F0xx_HAL_Driver/Src/stm32f0xx_hal_rcc.c ****         /* Enable the Internal High Speed oscillator (HSI48). */
 629:Drivers/STM32F0xx_HAL_Driver/Src/stm32f0xx_hal_rcc.c ****         __HAL_RCC_HSI48_ENABLE();
 630:Drivers/STM32F0xx_HAL_Driver/Src/stm32f0xx_hal_rcc.c **** 
 631:Drivers/STM32F0xx_HAL_Driver/Src/stm32f0xx_hal_rcc.c ****         /* Get Start Tick */
 632:Drivers/STM32F0xx_HAL_Driver/Src/stm32f0xx_hal_rcc.c ****         tickstart = HAL_GetTick();
 633:Drivers/STM32F0xx_HAL_Driver/Src/stm32f0xx_hal_rcc.c ****       
 634:Drivers/STM32F0xx_HAL_Driver/Src/stm32f0xx_hal_rcc.c ****         /* Wait till HSI48 is ready */  
 635:Drivers/STM32F0xx_HAL_Driver/Src/stm32f0xx_hal_rcc.c ****         while(__HAL_RCC_GET_FLAG(RCC_FLAG_HSI48RDY) == RESET)
 636:Drivers/STM32F0xx_HAL_Driver/Src/stm32f0xx_hal_rcc.c ****         {
ARM GAS  C:\Users\Password\AppData\Local\Temp\ccQ2oVJO.s 			page 30


 637:Drivers/STM32F0xx_HAL_Driver/Src/stm32f0xx_hal_rcc.c ****           if((HAL_GetTick() - tickstart) > HSI48_TIMEOUT_VALUE)
 638:Drivers/STM32F0xx_HAL_Driver/Src/stm32f0xx_hal_rcc.c ****           {
 639:Drivers/STM32F0xx_HAL_Driver/Src/stm32f0xx_hal_rcc.c ****             return HAL_TIMEOUT;
 640:Drivers/STM32F0xx_HAL_Driver/Src/stm32f0xx_hal_rcc.c ****           }
 641:Drivers/STM32F0xx_HAL_Driver/Src/stm32f0xx_hal_rcc.c ****         } 
 642:Drivers/STM32F0xx_HAL_Driver/Src/stm32f0xx_hal_rcc.c ****       }
 643:Drivers/STM32F0xx_HAL_Driver/Src/stm32f0xx_hal_rcc.c ****       else
 644:Drivers/STM32F0xx_HAL_Driver/Src/stm32f0xx_hal_rcc.c ****       {
 645:Drivers/STM32F0xx_HAL_Driver/Src/stm32f0xx_hal_rcc.c ****         /* Disable the Internal High Speed oscillator (HSI48). */
 646:Drivers/STM32F0xx_HAL_Driver/Src/stm32f0xx_hal_rcc.c ****         __HAL_RCC_HSI48_DISABLE();
 647:Drivers/STM32F0xx_HAL_Driver/Src/stm32f0xx_hal_rcc.c **** 
 648:Drivers/STM32F0xx_HAL_Driver/Src/stm32f0xx_hal_rcc.c ****         /* Get Start Tick */
 649:Drivers/STM32F0xx_HAL_Driver/Src/stm32f0xx_hal_rcc.c ****         tickstart = HAL_GetTick();
 650:Drivers/STM32F0xx_HAL_Driver/Src/stm32f0xx_hal_rcc.c ****       
 651:Drivers/STM32F0xx_HAL_Driver/Src/stm32f0xx_hal_rcc.c ****         /* Wait till HSI48 is ready */  
 652:Drivers/STM32F0xx_HAL_Driver/Src/stm32f0xx_hal_rcc.c ****         while(__HAL_RCC_GET_FLAG(RCC_FLAG_HSI48RDY) != RESET)
 653:Drivers/STM32F0xx_HAL_Driver/Src/stm32f0xx_hal_rcc.c ****         {
 654:Drivers/STM32F0xx_HAL_Driver/Src/stm32f0xx_hal_rcc.c ****           if((HAL_GetTick() - tickstart) > HSI48_TIMEOUT_VALUE)
 655:Drivers/STM32F0xx_HAL_Driver/Src/stm32f0xx_hal_rcc.c ****           {
 656:Drivers/STM32F0xx_HAL_Driver/Src/stm32f0xx_hal_rcc.c ****             return HAL_TIMEOUT;
 657:Drivers/STM32F0xx_HAL_Driver/Src/stm32f0xx_hal_rcc.c ****           }
 658:Drivers/STM32F0xx_HAL_Driver/Src/stm32f0xx_hal_rcc.c ****         }
 659:Drivers/STM32F0xx_HAL_Driver/Src/stm32f0xx_hal_rcc.c ****       }
 660:Drivers/STM32F0xx_HAL_Driver/Src/stm32f0xx_hal_rcc.c ****     }
 661:Drivers/STM32F0xx_HAL_Driver/Src/stm32f0xx_hal_rcc.c ****   }
 662:Drivers/STM32F0xx_HAL_Driver/Src/stm32f0xx_hal_rcc.c **** #endif /* RCC_HSI48_SUPPORT */
 663:Drivers/STM32F0xx_HAL_Driver/Src/stm32f0xx_hal_rcc.c ****        
 664:Drivers/STM32F0xx_HAL_Driver/Src/stm32f0xx_hal_rcc.c ****   /*-------------------------------- PLL Configuration -----------------------*/
 665:Drivers/STM32F0xx_HAL_Driver/Src/stm32f0xx_hal_rcc.c ****   /* Check the parameters */
 666:Drivers/STM32F0xx_HAL_Driver/Src/stm32f0xx_hal_rcc.c ****   assert_param(IS_RCC_PLL(RCC_OscInitStruct->PLL.PLLState));
 906              		.loc 1 666 3 view .LVU274
 667:Drivers/STM32F0xx_HAL_Driver/Src/stm32f0xx_hal_rcc.c ****   if ((RCC_OscInitStruct->PLL.PLLState) != RCC_PLL_NONE)
 907              		.loc 1 667 3 view .LVU275
 908              		.loc 1 667 30 is_stmt 0 view .LVU276
 909 030c 236A     		ldr	r3, [r4, #32]
 910              		.loc 1 667 6 view .LVU277
 911 030e 002B     		cmp	r3, #0
 912 0310 00D1     		bne	.LCB860
 913 0312 B0E0     		b	.L93	@long jump
 914              	.LCB860:
 668:Drivers/STM32F0xx_HAL_Driver/Src/stm32f0xx_hal_rcc.c ****   {
 669:Drivers/STM32F0xx_HAL_Driver/Src/stm32f0xx_hal_rcc.c ****     /* Check if the PLL is used as system clock or not */
 670:Drivers/STM32F0xx_HAL_Driver/Src/stm32f0xx_hal_rcc.c ****     if(__HAL_RCC_GET_SYSCLK_SOURCE() != RCC_SYSCLKSOURCE_STATUS_PLLCLK)
 915              		.loc 1 670 5 is_stmt 1 view .LVU278
 916              		.loc 1 670 8 is_stmt 0 view .LVU279
 917 0314 5D4A     		ldr	r2, .L129
 918 0316 5168     		ldr	r1, [r2, #4]
 919 0318 0C22     		movs	r2, #12
 920 031a 0A40     		ands	r2, r1
 921              		.loc 1 670 7 view .LVU280
 922 031c 082A     		cmp	r2, #8
 923 031e 00D1     		bne	.LCB867
 924 0320 8AE0     		b	.L70	@long jump
 925              	.LCB867:
 671:Drivers/STM32F0xx_HAL_Driver/Src/stm32f0xx_hal_rcc.c ****     { 
 672:Drivers/STM32F0xx_HAL_Driver/Src/stm32f0xx_hal_rcc.c ****       if((RCC_OscInitStruct->PLL.PLLState) == RCC_PLL_ON)
 926              		.loc 1 672 7 is_stmt 1 view .LVU281
ARM GAS  C:\Users\Password\AppData\Local\Temp\ccQ2oVJO.s 			page 31


 927              		.loc 1 672 9 is_stmt 0 view .LVU282
 928 0322 022B     		cmp	r3, #2
 929 0324 4FD0     		beq	.L122
 673:Drivers/STM32F0xx_HAL_Driver/Src/stm32f0xx_hal_rcc.c ****       {
 674:Drivers/STM32F0xx_HAL_Driver/Src/stm32f0xx_hal_rcc.c ****         /* Check the parameters */
 675:Drivers/STM32F0xx_HAL_Driver/Src/stm32f0xx_hal_rcc.c ****         assert_param(IS_RCC_PLLSOURCE(RCC_OscInitStruct->PLL.PLLSource));
 676:Drivers/STM32F0xx_HAL_Driver/Src/stm32f0xx_hal_rcc.c ****         assert_param(IS_RCC_PLL_MUL(RCC_OscInitStruct->PLL.PLLMUL));
 677:Drivers/STM32F0xx_HAL_Driver/Src/stm32f0xx_hal_rcc.c ****         assert_param(IS_RCC_PREDIV(RCC_OscInitStruct->PLL.PREDIV));
 678:Drivers/STM32F0xx_HAL_Driver/Src/stm32f0xx_hal_rcc.c ****   
 679:Drivers/STM32F0xx_HAL_Driver/Src/stm32f0xx_hal_rcc.c ****         /* Disable the main PLL. */
 680:Drivers/STM32F0xx_HAL_Driver/Src/stm32f0xx_hal_rcc.c ****         __HAL_RCC_PLL_DISABLE();
 681:Drivers/STM32F0xx_HAL_Driver/Src/stm32f0xx_hal_rcc.c ****         
 682:Drivers/STM32F0xx_HAL_Driver/Src/stm32f0xx_hal_rcc.c ****         /* Get Start Tick */
 683:Drivers/STM32F0xx_HAL_Driver/Src/stm32f0xx_hal_rcc.c ****         tickstart = HAL_GetTick();
 684:Drivers/STM32F0xx_HAL_Driver/Src/stm32f0xx_hal_rcc.c ****         
 685:Drivers/STM32F0xx_HAL_Driver/Src/stm32f0xx_hal_rcc.c ****         /* Wait till PLL is disabled */
 686:Drivers/STM32F0xx_HAL_Driver/Src/stm32f0xx_hal_rcc.c ****         while(__HAL_RCC_GET_FLAG(RCC_FLAG_PLLRDY)  != RESET)
 687:Drivers/STM32F0xx_HAL_Driver/Src/stm32f0xx_hal_rcc.c ****         {
 688:Drivers/STM32F0xx_HAL_Driver/Src/stm32f0xx_hal_rcc.c ****           if((HAL_GetTick() - tickstart ) > PLL_TIMEOUT_VALUE)
 689:Drivers/STM32F0xx_HAL_Driver/Src/stm32f0xx_hal_rcc.c ****           {
 690:Drivers/STM32F0xx_HAL_Driver/Src/stm32f0xx_hal_rcc.c ****             return HAL_TIMEOUT;
 691:Drivers/STM32F0xx_HAL_Driver/Src/stm32f0xx_hal_rcc.c ****           }
 692:Drivers/STM32F0xx_HAL_Driver/Src/stm32f0xx_hal_rcc.c ****         }
 693:Drivers/STM32F0xx_HAL_Driver/Src/stm32f0xx_hal_rcc.c **** 
 694:Drivers/STM32F0xx_HAL_Driver/Src/stm32f0xx_hal_rcc.c ****         /* Configure the main PLL clock source, predivider and multiplication factor. */
 695:Drivers/STM32F0xx_HAL_Driver/Src/stm32f0xx_hal_rcc.c ****         __HAL_RCC_PLL_CONFIG(RCC_OscInitStruct->PLL.PLLSource,
 696:Drivers/STM32F0xx_HAL_Driver/Src/stm32f0xx_hal_rcc.c ****                              RCC_OscInitStruct->PLL.PREDIV,
 697:Drivers/STM32F0xx_HAL_Driver/Src/stm32f0xx_hal_rcc.c ****                              RCC_OscInitStruct->PLL.PLLMUL);
 698:Drivers/STM32F0xx_HAL_Driver/Src/stm32f0xx_hal_rcc.c ****         /* Enable the main PLL. */
 699:Drivers/STM32F0xx_HAL_Driver/Src/stm32f0xx_hal_rcc.c ****         __HAL_RCC_PLL_ENABLE();
 700:Drivers/STM32F0xx_HAL_Driver/Src/stm32f0xx_hal_rcc.c ****         
 701:Drivers/STM32F0xx_HAL_Driver/Src/stm32f0xx_hal_rcc.c ****         /* Get Start Tick */
 702:Drivers/STM32F0xx_HAL_Driver/Src/stm32f0xx_hal_rcc.c ****         tickstart = HAL_GetTick();
 703:Drivers/STM32F0xx_HAL_Driver/Src/stm32f0xx_hal_rcc.c ****         
 704:Drivers/STM32F0xx_HAL_Driver/Src/stm32f0xx_hal_rcc.c ****         /* Wait till PLL is ready */
 705:Drivers/STM32F0xx_HAL_Driver/Src/stm32f0xx_hal_rcc.c ****         while(__HAL_RCC_GET_FLAG(RCC_FLAG_PLLRDY)  == RESET)
 706:Drivers/STM32F0xx_HAL_Driver/Src/stm32f0xx_hal_rcc.c ****         {
 707:Drivers/STM32F0xx_HAL_Driver/Src/stm32f0xx_hal_rcc.c ****           if((HAL_GetTick() - tickstart ) > PLL_TIMEOUT_VALUE)
 708:Drivers/STM32F0xx_HAL_Driver/Src/stm32f0xx_hal_rcc.c ****           {
 709:Drivers/STM32F0xx_HAL_Driver/Src/stm32f0xx_hal_rcc.c ****             return HAL_TIMEOUT;
 710:Drivers/STM32F0xx_HAL_Driver/Src/stm32f0xx_hal_rcc.c ****           }
 711:Drivers/STM32F0xx_HAL_Driver/Src/stm32f0xx_hal_rcc.c ****         }
 712:Drivers/STM32F0xx_HAL_Driver/Src/stm32f0xx_hal_rcc.c ****       }
 713:Drivers/STM32F0xx_HAL_Driver/Src/stm32f0xx_hal_rcc.c ****       else
 714:Drivers/STM32F0xx_HAL_Driver/Src/stm32f0xx_hal_rcc.c ****       {
 715:Drivers/STM32F0xx_HAL_Driver/Src/stm32f0xx_hal_rcc.c ****         /* Disable the main PLL. */
 716:Drivers/STM32F0xx_HAL_Driver/Src/stm32f0xx_hal_rcc.c ****         __HAL_RCC_PLL_DISABLE();
 930              		.loc 1 716 9 is_stmt 1 view .LVU283
 931 0326 594A     		ldr	r2, .L129
 932 0328 1368     		ldr	r3, [r2]
 933 032a 5949     		ldr	r1, .L129+4
 934 032c 0B40     		ands	r3, r1
 935 032e 1360     		str	r3, [r2]
 717:Drivers/STM32F0xx_HAL_Driver/Src/stm32f0xx_hal_rcc.c ****  
 718:Drivers/STM32F0xx_HAL_Driver/Src/stm32f0xx_hal_rcc.c ****         /* Get Start Tick */
 719:Drivers/STM32F0xx_HAL_Driver/Src/stm32f0xx_hal_rcc.c ****         tickstart = HAL_GetTick();
 936              		.loc 1 719 9 view .LVU284
ARM GAS  C:\Users\Password\AppData\Local\Temp\ccQ2oVJO.s 			page 32


 937              		.loc 1 719 21 is_stmt 0 view .LVU285
 938 0330 FFF7FEFF 		bl	HAL_GetTick
 939              	.LVL57:
 940 0334 0400     		movs	r4, r0
 941              	.LVL58:
 720:Drivers/STM32F0xx_HAL_Driver/Src/stm32f0xx_hal_rcc.c ****         
 721:Drivers/STM32F0xx_HAL_Driver/Src/stm32f0xx_hal_rcc.c ****         /* Wait till PLL is disabled */  
 722:Drivers/STM32F0xx_HAL_Driver/Src/stm32f0xx_hal_rcc.c ****         while(__HAL_RCC_GET_FLAG(RCC_FLAG_PLLRDY)  != RESET)
 942              		.loc 1 722 9 is_stmt 1 view .LVU286
 943              	.L76:
 944              		.loc 1 722 52 view .LVU287
 945              		.loc 1 722 15 is_stmt 0 view .LVU288
 946 0336 554B     		ldr	r3, .L129
 947 0338 1B68     		ldr	r3, [r3]
 948              		.loc 1 722 52 view .LVU289
 949 033a 9B01     		lsls	r3, r3, #6
 950 033c 7AD5     		bpl	.L123
 723:Drivers/STM32F0xx_HAL_Driver/Src/stm32f0xx_hal_rcc.c ****         {
 724:Drivers/STM32F0xx_HAL_Driver/Src/stm32f0xx_hal_rcc.c ****           if((HAL_GetTick() - tickstart ) > PLL_TIMEOUT_VALUE)
 951              		.loc 1 724 11 is_stmt 1 view .LVU290
 952              		.loc 1 724 15 is_stmt 0 view .LVU291
 953 033e FFF7FEFF 		bl	HAL_GetTick
 954              	.LVL59:
 955              		.loc 1 724 29 view .LVU292
 956 0342 001B     		subs	r0, r0, r4
 957              		.loc 1 724 13 view .LVU293
 958 0344 0228     		cmp	r0, #2
 959 0346 F6D9     		bls	.L76
 725:Drivers/STM32F0xx_HAL_Driver/Src/stm32f0xx_hal_rcc.c ****           {
 726:Drivers/STM32F0xx_HAL_Driver/Src/stm32f0xx_hal_rcc.c ****             return HAL_TIMEOUT;
 960              		.loc 1 726 20 view .LVU294
 961 0348 0320     		movs	r0, #3
 962 034a 8EE0     		b	.L20
 963              	.LVL60:
 964              	.L120:
 965              	.LBB4:
 542:Drivers/STM32F0xx_HAL_Driver/Src/stm32f0xx_hal_rcc.c ****     }
 966              		.loc 1 542 7 is_stmt 1 view .LVU295
 967 034c 4F4A     		ldr	r2, .L129
 968 034e D369     		ldr	r3, [r2, #28]
 969 0350 5049     		ldr	r1, .L129+8
 970 0352 0B40     		ands	r3, r1
 971 0354 D361     		str	r3, [r2, #28]
 972 0356 C5E7     		b	.L48
 973              	.LVL61:
 974              	.L121:
 542:Drivers/STM32F0xx_HAL_Driver/Src/stm32f0xx_hal_rcc.c ****     }
 975              		.loc 1 542 7 is_stmt 0 view .LVU296
 976              	.LBE4:
 557:Drivers/STM32F0xx_HAL_Driver/Src/stm32f0xx_hal_rcc.c **** 
 977              		.loc 1 557 7 is_stmt 1 view .LVU297
 978 0358 4C4B     		ldr	r3, .L129
 979 035a 5A6B     		ldr	r2, [r3, #52]
 980 035c 0421     		movs	r1, #4
 981 035e 0A43     		orrs	r2, r1
 982 0360 5A63     		str	r2, [r3, #52]
 560:Drivers/STM32F0xx_HAL_Driver/Src/stm32f0xx_hal_rcc.c **** 
ARM GAS  C:\Users\Password\AppData\Local\Temp\ccQ2oVJO.s 			page 33


 983              		.loc 1 560 7 view .LVU298
 984 0362 5A6B     		ldr	r2, [r3, #52]
 985 0364 0339     		subs	r1, r1, #3
 986 0366 0A43     		orrs	r2, r1
 987 0368 5A63     		str	r2, [r3, #52]
 563:Drivers/STM32F0xx_HAL_Driver/Src/stm32f0xx_hal_rcc.c ****       
 988              		.loc 1 563 7 view .LVU299
 563:Drivers/STM32F0xx_HAL_Driver/Src/stm32f0xx_hal_rcc.c ****       
 989              		.loc 1 563 19 is_stmt 0 view .LVU300
 990 036a FFF7FEFF 		bl	HAL_GetTick
 991              	.LVL62:
 992 036e 0500     		movs	r5, r0
 993              	.LVL63:
 566:Drivers/STM32F0xx_HAL_Driver/Src/stm32f0xx_hal_rcc.c ****       {
 994              		.loc 1 566 7 is_stmt 1 view .LVU301
 995              	.L65:
 566:Drivers/STM32F0xx_HAL_Driver/Src/stm32f0xx_hal_rcc.c ****       {
 996              		.loc 1 566 51 view .LVU302
 566:Drivers/STM32F0xx_HAL_Driver/Src/stm32f0xx_hal_rcc.c ****       {
 997              		.loc 1 566 13 is_stmt 0 view .LVU303
 998 0370 464B     		ldr	r3, .L129
 999 0372 5B6B     		ldr	r3, [r3, #52]
 566:Drivers/STM32F0xx_HAL_Driver/Src/stm32f0xx_hal_rcc.c ****       {
 1000              		.loc 1 566 51 view .LVU304
 1001 0374 9B07     		lsls	r3, r3, #30
 1002 0376 06D4     		bmi	.L124
 568:Drivers/STM32F0xx_HAL_Driver/Src/stm32f0xx_hal_rcc.c ****         {
 1003              		.loc 1 568 9 is_stmt 1 view .LVU305
 568:Drivers/STM32F0xx_HAL_Driver/Src/stm32f0xx_hal_rcc.c ****         {
 1004              		.loc 1 568 13 is_stmt 0 view .LVU306
 1005 0378 FFF7FEFF 		bl	HAL_GetTick
 1006              	.LVL64:
 568:Drivers/STM32F0xx_HAL_Driver/Src/stm32f0xx_hal_rcc.c ****         {
 1007              		.loc 1 568 27 view .LVU307
 1008 037c 401B     		subs	r0, r0, r5
 568:Drivers/STM32F0xx_HAL_Driver/Src/stm32f0xx_hal_rcc.c ****         {
 1009              		.loc 1 568 11 view .LVU308
 1010 037e 0228     		cmp	r0, #2
 1011 0380 F6D9     		bls	.L65
 570:Drivers/STM32F0xx_HAL_Driver/Src/stm32f0xx_hal_rcc.c ****         }      
 1012              		.loc 1 570 18 view .LVU309
 1013 0382 0320     		movs	r0, #3
 1014 0384 71E0     		b	.L20
 1015              	.L124:
 575:Drivers/STM32F0xx_HAL_Driver/Src/stm32f0xx_hal_rcc.c ****     }
 1016              		.loc 1 575 7 is_stmt 1 view .LVU310
 1017 0386 4149     		ldr	r1, .L129
 1018 0388 4B6B     		ldr	r3, [r1, #52]
 1019 038a F822     		movs	r2, #248
 1020 038c 9343     		bics	r3, r2
 1021 038e A269     		ldr	r2, [r4, #24]
 1022 0390 D200     		lsls	r2, r2, #3
 1023 0392 1343     		orrs	r3, r2
 1024 0394 4B63     		str	r3, [r1, #52]
 1025 0396 B9E7     		b	.L63
 1026              	.LVL65:
 1027              	.L67:
ARM GAS  C:\Users\Password\AppData\Local\Temp\ccQ2oVJO.s 			page 34


 588:Drivers/STM32F0xx_HAL_Driver/Src/stm32f0xx_hal_rcc.c **** 
 1028              		.loc 1 588 7 view .LVU311
 1029 0398 3C4B     		ldr	r3, .L129
 1030 039a 5A6B     		ldr	r2, [r3, #52]
 1031 039c 0421     		movs	r1, #4
 1032 039e 0A43     		orrs	r2, r1
 1033 03a0 5A63     		str	r2, [r3, #52]
 591:Drivers/STM32F0xx_HAL_Driver/Src/stm32f0xx_hal_rcc.c **** 
 1034              		.loc 1 591 7 view .LVU312
 1035 03a2 5A6B     		ldr	r2, [r3, #52]
 1036 03a4 0339     		subs	r1, r1, #3
 1037 03a6 8A43     		bics	r2, r1
 1038 03a8 5A63     		str	r2, [r3, #52]
 594:Drivers/STM32F0xx_HAL_Driver/Src/stm32f0xx_hal_rcc.c ****       
 1039              		.loc 1 594 7 view .LVU313
 594:Drivers/STM32F0xx_HAL_Driver/Src/stm32f0xx_hal_rcc.c ****       
 1040              		.loc 1 594 19 is_stmt 0 view .LVU314
 1041 03aa FFF7FEFF 		bl	HAL_GetTick
 1042              	.LVL66:
 1043 03ae 0500     		movs	r5, r0
 1044              	.LVL67:
 597:Drivers/STM32F0xx_HAL_Driver/Src/stm32f0xx_hal_rcc.c ****       {
 1045              		.loc 1 597 7 is_stmt 1 view .LVU315
 1046              	.L68:
 597:Drivers/STM32F0xx_HAL_Driver/Src/stm32f0xx_hal_rcc.c ****       {
 1047              		.loc 1 597 51 view .LVU316
 597:Drivers/STM32F0xx_HAL_Driver/Src/stm32f0xx_hal_rcc.c ****       {
 1048              		.loc 1 597 13 is_stmt 0 view .LVU317
 1049 03b0 364B     		ldr	r3, .L129
 1050 03b2 5B6B     		ldr	r3, [r3, #52]
 597:Drivers/STM32F0xx_HAL_Driver/Src/stm32f0xx_hal_rcc.c ****       {
 1051              		.loc 1 597 51 view .LVU318
 1052 03b4 9B07     		lsls	r3, r3, #30
 1053 03b6 A9D5     		bpl	.L63
 599:Drivers/STM32F0xx_HAL_Driver/Src/stm32f0xx_hal_rcc.c ****         {
 1054              		.loc 1 599 9 is_stmt 1 view .LVU319
 599:Drivers/STM32F0xx_HAL_Driver/Src/stm32f0xx_hal_rcc.c ****         {
 1055              		.loc 1 599 13 is_stmt 0 view .LVU320
 1056 03b8 FFF7FEFF 		bl	HAL_GetTick
 1057              	.LVL68:
 599:Drivers/STM32F0xx_HAL_Driver/Src/stm32f0xx_hal_rcc.c ****         {
 1058              		.loc 1 599 27 view .LVU321
 1059 03bc 401B     		subs	r0, r0, r5
 599:Drivers/STM32F0xx_HAL_Driver/Src/stm32f0xx_hal_rcc.c ****         {
 1060              		.loc 1 599 11 view .LVU322
 1061 03be 0228     		cmp	r0, #2
 1062 03c0 F6D9     		bls	.L68
 601:Drivers/STM32F0xx_HAL_Driver/Src/stm32f0xx_hal_rcc.c ****         }
 1063              		.loc 1 601 18 view .LVU323
 1064 03c2 0320     		movs	r0, #3
 1065 03c4 51E0     		b	.L20
 1066              	.LVL69:
 1067              	.L122:
 675:Drivers/STM32F0xx_HAL_Driver/Src/stm32f0xx_hal_rcc.c ****         assert_param(IS_RCC_PLL_MUL(RCC_OscInitStruct->PLL.PLLMUL));
 1068              		.loc 1 675 9 is_stmt 1 view .LVU324
 676:Drivers/STM32F0xx_HAL_Driver/Src/stm32f0xx_hal_rcc.c ****         assert_param(IS_RCC_PREDIV(RCC_OscInitStruct->PLL.PREDIV));
 1069              		.loc 1 676 9 view .LVU325
ARM GAS  C:\Users\Password\AppData\Local\Temp\ccQ2oVJO.s 			page 35


 677:Drivers/STM32F0xx_HAL_Driver/Src/stm32f0xx_hal_rcc.c ****   
 1070              		.loc 1 677 9 view .LVU326
 680:Drivers/STM32F0xx_HAL_Driver/Src/stm32f0xx_hal_rcc.c ****         
 1071              		.loc 1 680 9 view .LVU327
 1072 03c6 314A     		ldr	r2, .L129
 1073 03c8 1368     		ldr	r3, [r2]
 1074 03ca 3149     		ldr	r1, .L129+4
 1075 03cc 0B40     		ands	r3, r1
 1076 03ce 1360     		str	r3, [r2]
 683:Drivers/STM32F0xx_HAL_Driver/Src/stm32f0xx_hal_rcc.c ****         
 1077              		.loc 1 683 9 view .LVU328
 683:Drivers/STM32F0xx_HAL_Driver/Src/stm32f0xx_hal_rcc.c ****         
 1078              		.loc 1 683 21 is_stmt 0 view .LVU329
 1079 03d0 FFF7FEFF 		bl	HAL_GetTick
 1080              	.LVL70:
 1081 03d4 0500     		movs	r5, r0
 1082              	.LVL71:
 686:Drivers/STM32F0xx_HAL_Driver/Src/stm32f0xx_hal_rcc.c ****         {
 1083              		.loc 1 686 9 is_stmt 1 view .LVU330
 1084              	.L72:
 686:Drivers/STM32F0xx_HAL_Driver/Src/stm32f0xx_hal_rcc.c ****         {
 1085              		.loc 1 686 52 view .LVU331
 686:Drivers/STM32F0xx_HAL_Driver/Src/stm32f0xx_hal_rcc.c ****         {
 1086              		.loc 1 686 15 is_stmt 0 view .LVU332
 1087 03d6 2D4B     		ldr	r3, .L129
 1088 03d8 1B68     		ldr	r3, [r3]
 686:Drivers/STM32F0xx_HAL_Driver/Src/stm32f0xx_hal_rcc.c ****         {
 1089              		.loc 1 686 52 view .LVU333
 1090 03da 9B01     		lsls	r3, r3, #6
 1091 03dc 06D5     		bpl	.L125
 688:Drivers/STM32F0xx_HAL_Driver/Src/stm32f0xx_hal_rcc.c ****           {
 1092              		.loc 1 688 11 is_stmt 1 view .LVU334
 688:Drivers/STM32F0xx_HAL_Driver/Src/stm32f0xx_hal_rcc.c ****           {
 1093              		.loc 1 688 15 is_stmt 0 view .LVU335
 1094 03de FFF7FEFF 		bl	HAL_GetTick
 1095              	.LVL72:
 688:Drivers/STM32F0xx_HAL_Driver/Src/stm32f0xx_hal_rcc.c ****           {
 1096              		.loc 1 688 29 view .LVU336
 1097 03e2 401B     		subs	r0, r0, r5
 688:Drivers/STM32F0xx_HAL_Driver/Src/stm32f0xx_hal_rcc.c ****           {
 1098              		.loc 1 688 13 view .LVU337
 1099 03e4 0228     		cmp	r0, #2
 1100 03e6 F6D9     		bls	.L72
 690:Drivers/STM32F0xx_HAL_Driver/Src/stm32f0xx_hal_rcc.c ****           }
 1101              		.loc 1 690 20 view .LVU338
 1102 03e8 0320     		movs	r0, #3
 1103 03ea 3EE0     		b	.L20
 1104              	.L125:
 695:Drivers/STM32F0xx_HAL_Driver/Src/stm32f0xx_hal_rcc.c ****                              RCC_OscInitStruct->PLL.PREDIV,
 1105              		.loc 1 695 9 is_stmt 1 view .LVU339
 695:Drivers/STM32F0xx_HAL_Driver/Src/stm32f0xx_hal_rcc.c ****                              RCC_OscInitStruct->PLL.PREDIV,
 1106              		.loc 1 695 9 view .LVU340
 1107 03ec 274B     		ldr	r3, .L129
 1108 03ee DA6A     		ldr	r2, [r3, #44]
 1109 03f0 0F21     		movs	r1, #15
 1110 03f2 8A43     		bics	r2, r1
 1111 03f4 E16A     		ldr	r1, [r4, #44]
ARM GAS  C:\Users\Password\AppData\Local\Temp\ccQ2oVJO.s 			page 36


 1112 03f6 0A43     		orrs	r2, r1
 1113 03f8 DA62     		str	r2, [r3, #44]
 695:Drivers/STM32F0xx_HAL_Driver/Src/stm32f0xx_hal_rcc.c ****                              RCC_OscInitStruct->PLL.PREDIV,
 1114              		.loc 1 695 9 view .LVU341
 1115 03fa 5A68     		ldr	r2, [r3, #4]
 1116 03fc 2649     		ldr	r1, .L129+12
 1117 03fe 0A40     		ands	r2, r1
 1118 0400 A16A     		ldr	r1, [r4, #40]
 1119 0402 606A     		ldr	r0, [r4, #36]
 1120 0404 0143     		orrs	r1, r0
 1121 0406 0A43     		orrs	r2, r1
 1122 0408 5A60     		str	r2, [r3, #4]
 695:Drivers/STM32F0xx_HAL_Driver/Src/stm32f0xx_hal_rcc.c ****                              RCC_OscInitStruct->PLL.PREDIV,
 1123              		.loc 1 695 9 view .LVU342
 699:Drivers/STM32F0xx_HAL_Driver/Src/stm32f0xx_hal_rcc.c ****         
 1124              		.loc 1 699 9 view .LVU343
 1125 040a 1968     		ldr	r1, [r3]
 1126 040c 8022     		movs	r2, #128
 1127 040e 5204     		lsls	r2, r2, #17
 1128 0410 0A43     		orrs	r2, r1
 1129 0412 1A60     		str	r2, [r3]
 702:Drivers/STM32F0xx_HAL_Driver/Src/stm32f0xx_hal_rcc.c ****         
 1130              		.loc 1 702 9 view .LVU344
 702:Drivers/STM32F0xx_HAL_Driver/Src/stm32f0xx_hal_rcc.c ****         
 1131              		.loc 1 702 21 is_stmt 0 view .LVU345
 1132 0414 FFF7FEFF 		bl	HAL_GetTick
 1133              	.LVL73:
 1134 0418 0400     		movs	r4, r0
 1135              	.LVL74:
 705:Drivers/STM32F0xx_HAL_Driver/Src/stm32f0xx_hal_rcc.c ****         {
 1136              		.loc 1 705 9 is_stmt 1 view .LVU346
 1137              	.L74:
 705:Drivers/STM32F0xx_HAL_Driver/Src/stm32f0xx_hal_rcc.c ****         {
 1138              		.loc 1 705 52 view .LVU347
 705:Drivers/STM32F0xx_HAL_Driver/Src/stm32f0xx_hal_rcc.c ****         {
 1139              		.loc 1 705 15 is_stmt 0 view .LVU348
 1140 041a 1C4B     		ldr	r3, .L129
 1141 041c 1B68     		ldr	r3, [r3]
 705:Drivers/STM32F0xx_HAL_Driver/Src/stm32f0xx_hal_rcc.c ****         {
 1142              		.loc 1 705 52 view .LVU349
 1143 041e 9B01     		lsls	r3, r3, #6
 1144 0420 06D4     		bmi	.L126
 707:Drivers/STM32F0xx_HAL_Driver/Src/stm32f0xx_hal_rcc.c ****           {
 1145              		.loc 1 707 11 is_stmt 1 view .LVU350
 707:Drivers/STM32F0xx_HAL_Driver/Src/stm32f0xx_hal_rcc.c ****           {
 1146              		.loc 1 707 15 is_stmt 0 view .LVU351
 1147 0422 FFF7FEFF 		bl	HAL_GetTick
 1148              	.LVL75:
 707:Drivers/STM32F0xx_HAL_Driver/Src/stm32f0xx_hal_rcc.c ****           {
 1149              		.loc 1 707 29 view .LVU352
 1150 0426 001B     		subs	r0, r0, r4
 707:Drivers/STM32F0xx_HAL_Driver/Src/stm32f0xx_hal_rcc.c ****           {
 1151              		.loc 1 707 13 view .LVU353
 1152 0428 0228     		cmp	r0, #2
 1153 042a F6D9     		bls	.L74
 709:Drivers/STM32F0xx_HAL_Driver/Src/stm32f0xx_hal_rcc.c ****           }
 1154              		.loc 1 709 20 view .LVU354
ARM GAS  C:\Users\Password\AppData\Local\Temp\ccQ2oVJO.s 			page 37


 1155 042c 0320     		movs	r0, #3
 1156 042e 1CE0     		b	.L20
 1157              	.L126:
 727:Drivers/STM32F0xx_HAL_Driver/Src/stm32f0xx_hal_rcc.c ****           }
 728:Drivers/STM32F0xx_HAL_Driver/Src/stm32f0xx_hal_rcc.c ****         }
 729:Drivers/STM32F0xx_HAL_Driver/Src/stm32f0xx_hal_rcc.c ****       }
 730:Drivers/STM32F0xx_HAL_Driver/Src/stm32f0xx_hal_rcc.c ****     }
 731:Drivers/STM32F0xx_HAL_Driver/Src/stm32f0xx_hal_rcc.c ****     else
 732:Drivers/STM32F0xx_HAL_Driver/Src/stm32f0xx_hal_rcc.c ****     {
 733:Drivers/STM32F0xx_HAL_Driver/Src/stm32f0xx_hal_rcc.c ****       /* Check if there is a request to disable the PLL used as System clock source */
 734:Drivers/STM32F0xx_HAL_Driver/Src/stm32f0xx_hal_rcc.c ****       if((RCC_OscInitStruct->PLL.PLLState) == RCC_PLL_OFF)
 735:Drivers/STM32F0xx_HAL_Driver/Src/stm32f0xx_hal_rcc.c ****       {
 736:Drivers/STM32F0xx_HAL_Driver/Src/stm32f0xx_hal_rcc.c ****         return HAL_ERROR;
 737:Drivers/STM32F0xx_HAL_Driver/Src/stm32f0xx_hal_rcc.c ****       }
 738:Drivers/STM32F0xx_HAL_Driver/Src/stm32f0xx_hal_rcc.c ****       else
 739:Drivers/STM32F0xx_HAL_Driver/Src/stm32f0xx_hal_rcc.c ****       {
 740:Drivers/STM32F0xx_HAL_Driver/Src/stm32f0xx_hal_rcc.c ****         /* Do not return HAL_ERROR if request repeats the current configuration */
 741:Drivers/STM32F0xx_HAL_Driver/Src/stm32f0xx_hal_rcc.c ****         pll_config  = RCC->CFGR;
 742:Drivers/STM32F0xx_HAL_Driver/Src/stm32f0xx_hal_rcc.c ****         pll_config2 = RCC->CFGR2;
 743:Drivers/STM32F0xx_HAL_Driver/Src/stm32f0xx_hal_rcc.c ****         if((READ_BIT(pll_config,  RCC_CFGR_PLLSRC)  != RCC_OscInitStruct->PLL.PLLSource) ||
 744:Drivers/STM32F0xx_HAL_Driver/Src/stm32f0xx_hal_rcc.c ****            (READ_BIT(pll_config2, RCC_CFGR2_PREDIV) != RCC_OscInitStruct->PLL.PREDIV)    ||
 745:Drivers/STM32F0xx_HAL_Driver/Src/stm32f0xx_hal_rcc.c ****            (READ_BIT(pll_config,  RCC_CFGR_PLLMUL)  != RCC_OscInitStruct->PLL.PLLMUL))
 746:Drivers/STM32F0xx_HAL_Driver/Src/stm32f0xx_hal_rcc.c ****         {
 747:Drivers/STM32F0xx_HAL_Driver/Src/stm32f0xx_hal_rcc.c ****           return HAL_ERROR;
 748:Drivers/STM32F0xx_HAL_Driver/Src/stm32f0xx_hal_rcc.c ****         }
 749:Drivers/STM32F0xx_HAL_Driver/Src/stm32f0xx_hal_rcc.c ****       }
 750:Drivers/STM32F0xx_HAL_Driver/Src/stm32f0xx_hal_rcc.c ****     }
 751:Drivers/STM32F0xx_HAL_Driver/Src/stm32f0xx_hal_rcc.c ****   }
 752:Drivers/STM32F0xx_HAL_Driver/Src/stm32f0xx_hal_rcc.c **** 
 753:Drivers/STM32F0xx_HAL_Driver/Src/stm32f0xx_hal_rcc.c ****   return HAL_OK;
 1158              		.loc 1 753 10 view .LVU355
 1159 0430 0020     		movs	r0, #0
 1160 0432 1AE0     		b	.L20
 1161              	.L123:
 1162              		.loc 1 753 10 view .LVU356
 1163 0434 0020     		movs	r0, #0
 1164 0436 18E0     		b	.L20
 1165              	.LVL76:
 1166              	.L70:
 734:Drivers/STM32F0xx_HAL_Driver/Src/stm32f0xx_hal_rcc.c ****       {
 1167              		.loc 1 734 7 is_stmt 1 view .LVU357
 734:Drivers/STM32F0xx_HAL_Driver/Src/stm32f0xx_hal_rcc.c ****       {
 1168              		.loc 1 734 9 is_stmt 0 view .LVU358
 1169 0438 012B     		cmp	r3, #1
 1170 043a 1ED0     		beq	.L97
 741:Drivers/STM32F0xx_HAL_Driver/Src/stm32f0xx_hal_rcc.c ****         pll_config2 = RCC->CFGR2;
 1171              		.loc 1 741 9 is_stmt 1 view .LVU359
 741:Drivers/STM32F0xx_HAL_Driver/Src/stm32f0xx_hal_rcc.c ****         pll_config2 = RCC->CFGR2;
 1172              		.loc 1 741 21 is_stmt 0 view .LVU360
 1173 043c 134B     		ldr	r3, .L129
 1174 043e 5A68     		ldr	r2, [r3, #4]
 1175              	.LVL77:
 742:Drivers/STM32F0xx_HAL_Driver/Src/stm32f0xx_hal_rcc.c ****         if((READ_BIT(pll_config,  RCC_CFGR_PLLSRC)  != RCC_OscInitStruct->PLL.PLLSource) ||
 1176              		.loc 1 742 9 is_stmt 1 view .LVU361
 742:Drivers/STM32F0xx_HAL_Driver/Src/stm32f0xx_hal_rcc.c ****         if((READ_BIT(pll_config,  RCC_CFGR_PLLSRC)  != RCC_OscInitStruct->PLL.PLLSource) ||
 1177              		.loc 1 742 21 is_stmt 0 view .LVU362
 1178 0440 D86A     		ldr	r0, [r3, #44]
ARM GAS  C:\Users\Password\AppData\Local\Temp\ccQ2oVJO.s 			page 38


 1179              	.LVL78:
 743:Drivers/STM32F0xx_HAL_Driver/Src/stm32f0xx_hal_rcc.c ****            (READ_BIT(pll_config2, RCC_CFGR2_PREDIV) != RCC_OscInitStruct->PLL.PREDIV)    ||
 1180              		.loc 1 743 9 is_stmt 1 view .LVU363
 743:Drivers/STM32F0xx_HAL_Driver/Src/stm32f0xx_hal_rcc.c ****            (READ_BIT(pll_config2, RCC_CFGR2_PREDIV) != RCC_OscInitStruct->PLL.PREDIV)    ||
 1181              		.loc 1 743 13 is_stmt 0 view .LVU364
 1182 0442 8023     		movs	r3, #128
 1183 0444 5B02     		lsls	r3, r3, #9
 1184 0446 1340     		ands	r3, r2
 743:Drivers/STM32F0xx_HAL_Driver/Src/stm32f0xx_hal_rcc.c ****            (READ_BIT(pll_config2, RCC_CFGR2_PREDIV) != RCC_OscInitStruct->PLL.PREDIV)    ||
 1185              		.loc 1 743 78 view .LVU365
 1186 0448 616A     		ldr	r1, [r4, #36]
 743:Drivers/STM32F0xx_HAL_Driver/Src/stm32f0xx_hal_rcc.c ****            (READ_BIT(pll_config2, RCC_CFGR2_PREDIV) != RCC_OscInitStruct->PLL.PREDIV)    ||
 1187              		.loc 1 743 11 view .LVU366
 1188 044a 8B42     		cmp	r3, r1
 1189 044c 17D1     		bne	.L98
 744:Drivers/STM32F0xx_HAL_Driver/Src/stm32f0xx_hal_rcc.c ****            (READ_BIT(pll_config,  RCC_CFGR_PLLMUL)  != RCC_OscInitStruct->PLL.PLLMUL))
 1190              		.loc 1 744 13 discriminator 1 view .LVU367
 1191 044e 0F23     		movs	r3, #15
 1192 0450 0340     		ands	r3, r0
 744:Drivers/STM32F0xx_HAL_Driver/Src/stm32f0xx_hal_rcc.c ****            (READ_BIT(pll_config,  RCC_CFGR_PLLMUL)  != RCC_OscInitStruct->PLL.PLLMUL))
 1193              		.loc 1 744 78 discriminator 1 view .LVU368
 1194 0452 E16A     		ldr	r1, [r4, #44]
 743:Drivers/STM32F0xx_HAL_Driver/Src/stm32f0xx_hal_rcc.c ****            (READ_BIT(pll_config2, RCC_CFGR2_PREDIV) != RCC_OscInitStruct->PLL.PREDIV)    ||
 1195              		.loc 1 743 90 discriminator 1 view .LVU369
 1196 0454 8B42     		cmp	r3, r1
 1197 0456 14D1     		bne	.L99
 745:Drivers/STM32F0xx_HAL_Driver/Src/stm32f0xx_hal_rcc.c ****         {
 1198              		.loc 1 745 13 view .LVU370
 1199 0458 F023     		movs	r3, #240
 1200 045a 9B03     		lsls	r3, r3, #14
 1201 045c 1A40     		ands	r2, r3
 1202              	.LVL79:
 745:Drivers/STM32F0xx_HAL_Driver/Src/stm32f0xx_hal_rcc.c ****         {
 1203              		.loc 1 745 78 view .LVU371
 1204 045e A36A     		ldr	r3, [r4, #40]
 744:Drivers/STM32F0xx_HAL_Driver/Src/stm32f0xx_hal_rcc.c ****            (READ_BIT(pll_config,  RCC_CFGR_PLLMUL)  != RCC_OscInitStruct->PLL.PLLMUL))
 1205              		.loc 1 744 90 view .LVU372
 1206 0460 9A42     		cmp	r2, r3
 1207 0462 10D1     		bne	.L100
 1208              		.loc 1 753 10 view .LVU373
 1209 0464 0020     		movs	r0, #0
 1210              	.LVL80:
 1211              		.loc 1 753 10 view .LVU374
 1212 0466 00E0     		b	.L20
 1213              	.LVL81:
 1214              	.L78:
 309:Drivers/STM32F0xx_HAL_Driver/Src/stm32f0xx_hal_rcc.c ****   }
 1215              		.loc 1 309 12 view .LVU375
 1216 0468 0120     		movs	r0, #1
 1217              	.LVL82:
 1218              	.L20:
 754:Drivers/STM32F0xx_HAL_Driver/Src/stm32f0xx_hal_rcc.c **** }
 1219              		.loc 1 754 1 view .LVU376
 1220 046a 02B0     		add	sp, sp, #8
 1221              		@ sp needed
 1222 046c 70BD     		pop	{r4, r5, r6, pc}
 1223              	.LVL83:
ARM GAS  C:\Users\Password\AppData\Local\Temp\ccQ2oVJO.s 			page 39


 1224              	.L113:
 327:Drivers/STM32F0xx_HAL_Driver/Src/stm32f0xx_hal_rcc.c ****       }
 1225              		.loc 1 327 16 view .LVU377
 1226 046e 0120     		movs	r0, #1
 1227              	.LVL84:
 327:Drivers/STM32F0xx_HAL_Driver/Src/stm32f0xx_hal_rcc.c ****       }
 1228              		.loc 1 327 16 view .LVU378
 1229 0470 FBE7     		b	.L20
 1230              	.L82:
 381:Drivers/STM32F0xx_HAL_Driver/Src/stm32f0xx_hal_rcc.c ****       }
 1231              		.loc 1 381 16 view .LVU379
 1232 0472 0120     		movs	r0, #1
 1233 0474 F9E7     		b	.L20
 1234              	.L93:
 753:Drivers/STM32F0xx_HAL_Driver/Src/stm32f0xx_hal_rcc.c **** }
 1235              		.loc 1 753 10 view .LVU380
 1236 0476 0020     		movs	r0, #0
 1237 0478 F7E7     		b	.L20
 1238              	.L97:
 736:Drivers/STM32F0xx_HAL_Driver/Src/stm32f0xx_hal_rcc.c ****       }
 1239              		.loc 1 736 16 view .LVU381
 1240 047a 0120     		movs	r0, #1
 1241 047c F5E7     		b	.L20
 1242              	.LVL85:
 1243              	.L98:
 747:Drivers/STM32F0xx_HAL_Driver/Src/stm32f0xx_hal_rcc.c ****         }
 1244              		.loc 1 747 18 view .LVU382
 1245 047e 0120     		movs	r0, #1
 1246              	.LVL86:
 747:Drivers/STM32F0xx_HAL_Driver/Src/stm32f0xx_hal_rcc.c ****         }
 1247              		.loc 1 747 18 view .LVU383
 1248 0480 F3E7     		b	.L20
 1249              	.LVL87:
 1250              	.L99:
 747:Drivers/STM32F0xx_HAL_Driver/Src/stm32f0xx_hal_rcc.c ****         }
 1251              		.loc 1 747 18 view .LVU384
 1252 0482 0120     		movs	r0, #1
 1253              	.LVL88:
 747:Drivers/STM32F0xx_HAL_Driver/Src/stm32f0xx_hal_rcc.c ****         }
 1254              		.loc 1 747 18 view .LVU385
 1255 0484 F1E7     		b	.L20
 1256              	.LVL89:
 1257              	.L100:
 747:Drivers/STM32F0xx_HAL_Driver/Src/stm32f0xx_hal_rcc.c ****         }
 1258              		.loc 1 747 18 view .LVU386
 1259 0486 0120     		movs	r0, #1
 1260              	.LVL90:
 747:Drivers/STM32F0xx_HAL_Driver/Src/stm32f0xx_hal_rcc.c ****         }
 1261              		.loc 1 747 18 view .LVU387
 1262 0488 EFE7     		b	.L20
 1263              	.L130:
 1264 048a C046     		.align	2
 1265              	.L129:
 1266 048c 00100240 		.word	1073876992
 1267 0490 FFFFFFFE 		.word	-16777217
 1268 0494 FFFFFFEF 		.word	-268435457
 1269 0498 FFFFC2FF 		.word	-3997697
ARM GAS  C:\Users\Password\AppData\Local\Temp\ccQ2oVJO.s 			page 40


 1270              		.cfi_endproc
 1271              	.LFE41:
 1273              		.section	.text.HAL_RCC_MCOConfig,"ax",%progbits
 1274              		.align	1
 1275              		.global	HAL_RCC_MCOConfig
 1276              		.syntax unified
 1277              		.code	16
 1278              		.thumb_func
 1280              	HAL_RCC_MCOConfig:
 1281              	.LVL91:
 1282              	.LFB43:
 755:Drivers/STM32F0xx_HAL_Driver/Src/stm32f0xx_hal_rcc.c **** 
 756:Drivers/STM32F0xx_HAL_Driver/Src/stm32f0xx_hal_rcc.c **** /**
 757:Drivers/STM32F0xx_HAL_Driver/Src/stm32f0xx_hal_rcc.c ****   * @brief  Initializes the CPU, AHB and APB buses clocks according to the specified 
 758:Drivers/STM32F0xx_HAL_Driver/Src/stm32f0xx_hal_rcc.c ****   *         parameters in the RCC_ClkInitStruct.
 759:Drivers/STM32F0xx_HAL_Driver/Src/stm32f0xx_hal_rcc.c ****   * @param  RCC_ClkInitStruct pointer to an RCC_OscInitTypeDef structure that
 760:Drivers/STM32F0xx_HAL_Driver/Src/stm32f0xx_hal_rcc.c ****   *         contains the configuration information for the RCC peripheral.
 761:Drivers/STM32F0xx_HAL_Driver/Src/stm32f0xx_hal_rcc.c ****   * @param  FLatency FLASH Latency                   
 762:Drivers/STM32F0xx_HAL_Driver/Src/stm32f0xx_hal_rcc.c ****   *          The value of this parameter depend on device used within the same series
 763:Drivers/STM32F0xx_HAL_Driver/Src/stm32f0xx_hal_rcc.c ****   * @note   The SystemCoreClock CMSIS variable is used to store System Clock Frequency 
 764:Drivers/STM32F0xx_HAL_Driver/Src/stm32f0xx_hal_rcc.c ****   *         and updated by @ref HAL_RCC_GetHCLKFreq() function called within this function
 765:Drivers/STM32F0xx_HAL_Driver/Src/stm32f0xx_hal_rcc.c ****   *
 766:Drivers/STM32F0xx_HAL_Driver/Src/stm32f0xx_hal_rcc.c ****   * @note   The HSI is used (enabled by hardware) as system clock source after
 767:Drivers/STM32F0xx_HAL_Driver/Src/stm32f0xx_hal_rcc.c ****   *         start-up from Reset, wake-up from STOP and STANDBY mode, or in case
 768:Drivers/STM32F0xx_HAL_Driver/Src/stm32f0xx_hal_rcc.c ****   *         of failure of the HSE used directly or indirectly as system clock
 769:Drivers/STM32F0xx_HAL_Driver/Src/stm32f0xx_hal_rcc.c ****   *         (if the Clock Security System CSS is enabled).
 770:Drivers/STM32F0xx_HAL_Driver/Src/stm32f0xx_hal_rcc.c ****   *           
 771:Drivers/STM32F0xx_HAL_Driver/Src/stm32f0xx_hal_rcc.c ****   * @note   A switch from one clock source to another occurs only if the target
 772:Drivers/STM32F0xx_HAL_Driver/Src/stm32f0xx_hal_rcc.c ****   *         clock source is ready (clock stable after start-up delay or PLL locked). 
 773:Drivers/STM32F0xx_HAL_Driver/Src/stm32f0xx_hal_rcc.c ****   *         If a clock source which is not yet ready is selected, the switch will
 774:Drivers/STM32F0xx_HAL_Driver/Src/stm32f0xx_hal_rcc.c ****   *         occur when the clock source will be ready. 
 775:Drivers/STM32F0xx_HAL_Driver/Src/stm32f0xx_hal_rcc.c ****   *         You can use @ref HAL_RCC_GetClockConfig() function to know which clock is
 776:Drivers/STM32F0xx_HAL_Driver/Src/stm32f0xx_hal_rcc.c ****   *         currently used as system clock source.
 777:Drivers/STM32F0xx_HAL_Driver/Src/stm32f0xx_hal_rcc.c ****   * @retval HAL status
 778:Drivers/STM32F0xx_HAL_Driver/Src/stm32f0xx_hal_rcc.c ****   */
 779:Drivers/STM32F0xx_HAL_Driver/Src/stm32f0xx_hal_rcc.c **** HAL_StatusTypeDef HAL_RCC_ClockConfig(RCC_ClkInitTypeDef  *RCC_ClkInitStruct, uint32_t FLatency)
 780:Drivers/STM32F0xx_HAL_Driver/Src/stm32f0xx_hal_rcc.c **** {
 781:Drivers/STM32F0xx_HAL_Driver/Src/stm32f0xx_hal_rcc.c ****   uint32_t tickstart;
 782:Drivers/STM32F0xx_HAL_Driver/Src/stm32f0xx_hal_rcc.c **** 
 783:Drivers/STM32F0xx_HAL_Driver/Src/stm32f0xx_hal_rcc.c ****   /* Check Null pointer */
 784:Drivers/STM32F0xx_HAL_Driver/Src/stm32f0xx_hal_rcc.c ****   if(RCC_ClkInitStruct == NULL)
 785:Drivers/STM32F0xx_HAL_Driver/Src/stm32f0xx_hal_rcc.c ****   {
 786:Drivers/STM32F0xx_HAL_Driver/Src/stm32f0xx_hal_rcc.c ****     return HAL_ERROR;
 787:Drivers/STM32F0xx_HAL_Driver/Src/stm32f0xx_hal_rcc.c ****   }
 788:Drivers/STM32F0xx_HAL_Driver/Src/stm32f0xx_hal_rcc.c **** 
 789:Drivers/STM32F0xx_HAL_Driver/Src/stm32f0xx_hal_rcc.c ****   /* Check the parameters */
 790:Drivers/STM32F0xx_HAL_Driver/Src/stm32f0xx_hal_rcc.c ****   assert_param(IS_RCC_CLOCKTYPE(RCC_ClkInitStruct->ClockType));
 791:Drivers/STM32F0xx_HAL_Driver/Src/stm32f0xx_hal_rcc.c ****   assert_param(IS_FLASH_LATENCY(FLatency));
 792:Drivers/STM32F0xx_HAL_Driver/Src/stm32f0xx_hal_rcc.c **** 
 793:Drivers/STM32F0xx_HAL_Driver/Src/stm32f0xx_hal_rcc.c ****   /* To correctly read data from FLASH memory, the number of wait states (LATENCY) 
 794:Drivers/STM32F0xx_HAL_Driver/Src/stm32f0xx_hal_rcc.c ****   must be correctly programmed according to the frequency of the CPU clock 
 795:Drivers/STM32F0xx_HAL_Driver/Src/stm32f0xx_hal_rcc.c ****     (HCLK) of the device. */
 796:Drivers/STM32F0xx_HAL_Driver/Src/stm32f0xx_hal_rcc.c **** 
 797:Drivers/STM32F0xx_HAL_Driver/Src/stm32f0xx_hal_rcc.c ****   /* Increasing the number of wait states because of higher CPU frequency */
 798:Drivers/STM32F0xx_HAL_Driver/Src/stm32f0xx_hal_rcc.c ****   if(FLatency > __HAL_FLASH_GET_LATENCY())
 799:Drivers/STM32F0xx_HAL_Driver/Src/stm32f0xx_hal_rcc.c ****   {    
 800:Drivers/STM32F0xx_HAL_Driver/Src/stm32f0xx_hal_rcc.c ****     /* Program the new number of wait states to the LATENCY bits in the FLASH_ACR register */
ARM GAS  C:\Users\Password\AppData\Local\Temp\ccQ2oVJO.s 			page 41


 801:Drivers/STM32F0xx_HAL_Driver/Src/stm32f0xx_hal_rcc.c ****     __HAL_FLASH_SET_LATENCY(FLatency);
 802:Drivers/STM32F0xx_HAL_Driver/Src/stm32f0xx_hal_rcc.c ****     
 803:Drivers/STM32F0xx_HAL_Driver/Src/stm32f0xx_hal_rcc.c ****     /* Check that the new number of wait states is taken into account to access the Flash
 804:Drivers/STM32F0xx_HAL_Driver/Src/stm32f0xx_hal_rcc.c ****     memory by reading the FLASH_ACR register */
 805:Drivers/STM32F0xx_HAL_Driver/Src/stm32f0xx_hal_rcc.c ****     if(__HAL_FLASH_GET_LATENCY() != FLatency)
 806:Drivers/STM32F0xx_HAL_Driver/Src/stm32f0xx_hal_rcc.c ****     {
 807:Drivers/STM32F0xx_HAL_Driver/Src/stm32f0xx_hal_rcc.c ****       return HAL_ERROR;
 808:Drivers/STM32F0xx_HAL_Driver/Src/stm32f0xx_hal_rcc.c ****     }
 809:Drivers/STM32F0xx_HAL_Driver/Src/stm32f0xx_hal_rcc.c ****   }
 810:Drivers/STM32F0xx_HAL_Driver/Src/stm32f0xx_hal_rcc.c **** 
 811:Drivers/STM32F0xx_HAL_Driver/Src/stm32f0xx_hal_rcc.c ****   /*-------------------------- HCLK Configuration --------------------------*/
 812:Drivers/STM32F0xx_HAL_Driver/Src/stm32f0xx_hal_rcc.c ****   if(((RCC_ClkInitStruct->ClockType) & RCC_CLOCKTYPE_HCLK) == RCC_CLOCKTYPE_HCLK)
 813:Drivers/STM32F0xx_HAL_Driver/Src/stm32f0xx_hal_rcc.c ****   {
 814:Drivers/STM32F0xx_HAL_Driver/Src/stm32f0xx_hal_rcc.c ****     /* Set the highest APB divider in order to ensure that we do not go through
 815:Drivers/STM32F0xx_HAL_Driver/Src/stm32f0xx_hal_rcc.c ****        a non-spec phase whatever we decrease or increase HCLK. */
 816:Drivers/STM32F0xx_HAL_Driver/Src/stm32f0xx_hal_rcc.c ****     if(((RCC_ClkInitStruct->ClockType) & RCC_CLOCKTYPE_PCLK1) == RCC_CLOCKTYPE_PCLK1)
 817:Drivers/STM32F0xx_HAL_Driver/Src/stm32f0xx_hal_rcc.c ****     {
 818:Drivers/STM32F0xx_HAL_Driver/Src/stm32f0xx_hal_rcc.c ****       MODIFY_REG(RCC->CFGR, RCC_CFGR_PPRE, RCC_HCLK_DIV16);
 819:Drivers/STM32F0xx_HAL_Driver/Src/stm32f0xx_hal_rcc.c ****     }
 820:Drivers/STM32F0xx_HAL_Driver/Src/stm32f0xx_hal_rcc.c **** 
 821:Drivers/STM32F0xx_HAL_Driver/Src/stm32f0xx_hal_rcc.c ****     /* Set the new HCLK clock divider */
 822:Drivers/STM32F0xx_HAL_Driver/Src/stm32f0xx_hal_rcc.c ****     assert_param(IS_RCC_HCLK(RCC_ClkInitStruct->AHBCLKDivider));
 823:Drivers/STM32F0xx_HAL_Driver/Src/stm32f0xx_hal_rcc.c ****     MODIFY_REG(RCC->CFGR, RCC_CFGR_HPRE, RCC_ClkInitStruct->AHBCLKDivider);
 824:Drivers/STM32F0xx_HAL_Driver/Src/stm32f0xx_hal_rcc.c ****   }
 825:Drivers/STM32F0xx_HAL_Driver/Src/stm32f0xx_hal_rcc.c **** 
 826:Drivers/STM32F0xx_HAL_Driver/Src/stm32f0xx_hal_rcc.c ****   /*------------------------- SYSCLK Configuration ---------------------------*/ 
 827:Drivers/STM32F0xx_HAL_Driver/Src/stm32f0xx_hal_rcc.c ****   if(((RCC_ClkInitStruct->ClockType) & RCC_CLOCKTYPE_SYSCLK) == RCC_CLOCKTYPE_SYSCLK)
 828:Drivers/STM32F0xx_HAL_Driver/Src/stm32f0xx_hal_rcc.c ****   {
 829:Drivers/STM32F0xx_HAL_Driver/Src/stm32f0xx_hal_rcc.c ****     assert_param(IS_RCC_SYSCLKSOURCE(RCC_ClkInitStruct->SYSCLKSource));
 830:Drivers/STM32F0xx_HAL_Driver/Src/stm32f0xx_hal_rcc.c ****     
 831:Drivers/STM32F0xx_HAL_Driver/Src/stm32f0xx_hal_rcc.c ****     /* HSE is selected as System Clock Source */
 832:Drivers/STM32F0xx_HAL_Driver/Src/stm32f0xx_hal_rcc.c ****     if(RCC_ClkInitStruct->SYSCLKSource == RCC_SYSCLKSOURCE_HSE)
 833:Drivers/STM32F0xx_HAL_Driver/Src/stm32f0xx_hal_rcc.c ****     {
 834:Drivers/STM32F0xx_HAL_Driver/Src/stm32f0xx_hal_rcc.c ****       /* Check the HSE ready flag */  
 835:Drivers/STM32F0xx_HAL_Driver/Src/stm32f0xx_hal_rcc.c ****       if(__HAL_RCC_GET_FLAG(RCC_FLAG_HSERDY) == RESET)
 836:Drivers/STM32F0xx_HAL_Driver/Src/stm32f0xx_hal_rcc.c ****       {
 837:Drivers/STM32F0xx_HAL_Driver/Src/stm32f0xx_hal_rcc.c ****         return HAL_ERROR;
 838:Drivers/STM32F0xx_HAL_Driver/Src/stm32f0xx_hal_rcc.c ****       }
 839:Drivers/STM32F0xx_HAL_Driver/Src/stm32f0xx_hal_rcc.c ****     }
 840:Drivers/STM32F0xx_HAL_Driver/Src/stm32f0xx_hal_rcc.c ****     /* PLL is selected as System Clock Source */
 841:Drivers/STM32F0xx_HAL_Driver/Src/stm32f0xx_hal_rcc.c ****     else if(RCC_ClkInitStruct->SYSCLKSource == RCC_SYSCLKSOURCE_PLLCLK)
 842:Drivers/STM32F0xx_HAL_Driver/Src/stm32f0xx_hal_rcc.c ****     {
 843:Drivers/STM32F0xx_HAL_Driver/Src/stm32f0xx_hal_rcc.c ****       /* Check the PLL ready flag */  
 844:Drivers/STM32F0xx_HAL_Driver/Src/stm32f0xx_hal_rcc.c ****       if(__HAL_RCC_GET_FLAG(RCC_FLAG_PLLRDY) == RESET)
 845:Drivers/STM32F0xx_HAL_Driver/Src/stm32f0xx_hal_rcc.c ****       {
 846:Drivers/STM32F0xx_HAL_Driver/Src/stm32f0xx_hal_rcc.c ****         return HAL_ERROR;
 847:Drivers/STM32F0xx_HAL_Driver/Src/stm32f0xx_hal_rcc.c ****       }
 848:Drivers/STM32F0xx_HAL_Driver/Src/stm32f0xx_hal_rcc.c ****     }
 849:Drivers/STM32F0xx_HAL_Driver/Src/stm32f0xx_hal_rcc.c **** #if defined(RCC_CFGR_SWS_HSI48)
 850:Drivers/STM32F0xx_HAL_Driver/Src/stm32f0xx_hal_rcc.c ****     /* HSI48 is selected as System Clock Source */
 851:Drivers/STM32F0xx_HAL_Driver/Src/stm32f0xx_hal_rcc.c ****     else if(RCC_ClkInitStruct->SYSCLKSource == RCC_SYSCLKSOURCE_HSI48)
 852:Drivers/STM32F0xx_HAL_Driver/Src/stm32f0xx_hal_rcc.c ****     {
 853:Drivers/STM32F0xx_HAL_Driver/Src/stm32f0xx_hal_rcc.c ****       /* Check the HSI48 ready flag */
 854:Drivers/STM32F0xx_HAL_Driver/Src/stm32f0xx_hal_rcc.c ****       if(__HAL_RCC_GET_FLAG(RCC_FLAG_HSI48RDY) == RESET)
 855:Drivers/STM32F0xx_HAL_Driver/Src/stm32f0xx_hal_rcc.c ****       {
 856:Drivers/STM32F0xx_HAL_Driver/Src/stm32f0xx_hal_rcc.c ****         return HAL_ERROR;
 857:Drivers/STM32F0xx_HAL_Driver/Src/stm32f0xx_hal_rcc.c ****       }
ARM GAS  C:\Users\Password\AppData\Local\Temp\ccQ2oVJO.s 			page 42


 858:Drivers/STM32F0xx_HAL_Driver/Src/stm32f0xx_hal_rcc.c ****     }
 859:Drivers/STM32F0xx_HAL_Driver/Src/stm32f0xx_hal_rcc.c **** #endif /* RCC_CFGR_SWS_HSI48 */
 860:Drivers/STM32F0xx_HAL_Driver/Src/stm32f0xx_hal_rcc.c ****     /* HSI is selected as System Clock Source */
 861:Drivers/STM32F0xx_HAL_Driver/Src/stm32f0xx_hal_rcc.c ****     else
 862:Drivers/STM32F0xx_HAL_Driver/Src/stm32f0xx_hal_rcc.c ****     {
 863:Drivers/STM32F0xx_HAL_Driver/Src/stm32f0xx_hal_rcc.c ****       /* Check the HSI ready flag */  
 864:Drivers/STM32F0xx_HAL_Driver/Src/stm32f0xx_hal_rcc.c ****       if(__HAL_RCC_GET_FLAG(RCC_FLAG_HSIRDY) == RESET)
 865:Drivers/STM32F0xx_HAL_Driver/Src/stm32f0xx_hal_rcc.c ****       {
 866:Drivers/STM32F0xx_HAL_Driver/Src/stm32f0xx_hal_rcc.c ****         return HAL_ERROR;
 867:Drivers/STM32F0xx_HAL_Driver/Src/stm32f0xx_hal_rcc.c ****       }
 868:Drivers/STM32F0xx_HAL_Driver/Src/stm32f0xx_hal_rcc.c ****     }
 869:Drivers/STM32F0xx_HAL_Driver/Src/stm32f0xx_hal_rcc.c ****     __HAL_RCC_SYSCLK_CONFIG(RCC_ClkInitStruct->SYSCLKSource);
 870:Drivers/STM32F0xx_HAL_Driver/Src/stm32f0xx_hal_rcc.c **** 
 871:Drivers/STM32F0xx_HAL_Driver/Src/stm32f0xx_hal_rcc.c ****     /* Get Start Tick */
 872:Drivers/STM32F0xx_HAL_Driver/Src/stm32f0xx_hal_rcc.c ****     tickstart = HAL_GetTick();
 873:Drivers/STM32F0xx_HAL_Driver/Src/stm32f0xx_hal_rcc.c ****     
 874:Drivers/STM32F0xx_HAL_Driver/Src/stm32f0xx_hal_rcc.c ****     while (__HAL_RCC_GET_SYSCLK_SOURCE() != (RCC_ClkInitStruct->SYSCLKSource << RCC_CFGR_SWS_Pos))
 875:Drivers/STM32F0xx_HAL_Driver/Src/stm32f0xx_hal_rcc.c ****     {
 876:Drivers/STM32F0xx_HAL_Driver/Src/stm32f0xx_hal_rcc.c ****       if((HAL_GetTick() - tickstart ) > CLOCKSWITCH_TIMEOUT_VALUE)
 877:Drivers/STM32F0xx_HAL_Driver/Src/stm32f0xx_hal_rcc.c ****       {
 878:Drivers/STM32F0xx_HAL_Driver/Src/stm32f0xx_hal_rcc.c ****         return HAL_TIMEOUT;
 879:Drivers/STM32F0xx_HAL_Driver/Src/stm32f0xx_hal_rcc.c ****       }
 880:Drivers/STM32F0xx_HAL_Driver/Src/stm32f0xx_hal_rcc.c ****     }
 881:Drivers/STM32F0xx_HAL_Driver/Src/stm32f0xx_hal_rcc.c ****   }
 882:Drivers/STM32F0xx_HAL_Driver/Src/stm32f0xx_hal_rcc.c **** 
 883:Drivers/STM32F0xx_HAL_Driver/Src/stm32f0xx_hal_rcc.c ****   /* Decreasing the number of wait states because of lower CPU frequency */
 884:Drivers/STM32F0xx_HAL_Driver/Src/stm32f0xx_hal_rcc.c ****   if(FLatency < __HAL_FLASH_GET_LATENCY())
 885:Drivers/STM32F0xx_HAL_Driver/Src/stm32f0xx_hal_rcc.c ****   {    
 886:Drivers/STM32F0xx_HAL_Driver/Src/stm32f0xx_hal_rcc.c ****     /* Program the new number of wait states to the LATENCY bits in the FLASH_ACR register */
 887:Drivers/STM32F0xx_HAL_Driver/Src/stm32f0xx_hal_rcc.c ****     __HAL_FLASH_SET_LATENCY(FLatency);
 888:Drivers/STM32F0xx_HAL_Driver/Src/stm32f0xx_hal_rcc.c ****     
 889:Drivers/STM32F0xx_HAL_Driver/Src/stm32f0xx_hal_rcc.c ****     /* Check that the new number of wait states is taken into account to access the Flash
 890:Drivers/STM32F0xx_HAL_Driver/Src/stm32f0xx_hal_rcc.c ****     memory by reading the FLASH_ACR register */
 891:Drivers/STM32F0xx_HAL_Driver/Src/stm32f0xx_hal_rcc.c ****     if(__HAL_FLASH_GET_LATENCY() != FLatency)
 892:Drivers/STM32F0xx_HAL_Driver/Src/stm32f0xx_hal_rcc.c ****     {
 893:Drivers/STM32F0xx_HAL_Driver/Src/stm32f0xx_hal_rcc.c ****       return HAL_ERROR;
 894:Drivers/STM32F0xx_HAL_Driver/Src/stm32f0xx_hal_rcc.c ****     }
 895:Drivers/STM32F0xx_HAL_Driver/Src/stm32f0xx_hal_rcc.c ****   }    
 896:Drivers/STM32F0xx_HAL_Driver/Src/stm32f0xx_hal_rcc.c **** 
 897:Drivers/STM32F0xx_HAL_Driver/Src/stm32f0xx_hal_rcc.c ****   /*-------------------------- PCLK1 Configuration ---------------------------*/ 
 898:Drivers/STM32F0xx_HAL_Driver/Src/stm32f0xx_hal_rcc.c ****   if(((RCC_ClkInitStruct->ClockType) & RCC_CLOCKTYPE_PCLK1) == RCC_CLOCKTYPE_PCLK1)
 899:Drivers/STM32F0xx_HAL_Driver/Src/stm32f0xx_hal_rcc.c ****   {
 900:Drivers/STM32F0xx_HAL_Driver/Src/stm32f0xx_hal_rcc.c ****     assert_param(IS_RCC_PCLK(RCC_ClkInitStruct->APB1CLKDivider));
 901:Drivers/STM32F0xx_HAL_Driver/Src/stm32f0xx_hal_rcc.c ****     MODIFY_REG(RCC->CFGR, RCC_CFGR_PPRE, RCC_ClkInitStruct->APB1CLKDivider);
 902:Drivers/STM32F0xx_HAL_Driver/Src/stm32f0xx_hal_rcc.c ****   }
 903:Drivers/STM32F0xx_HAL_Driver/Src/stm32f0xx_hal_rcc.c ****   
 904:Drivers/STM32F0xx_HAL_Driver/Src/stm32f0xx_hal_rcc.c ****   /* Update the SystemCoreClock global variable */
 905:Drivers/STM32F0xx_HAL_Driver/Src/stm32f0xx_hal_rcc.c ****   SystemCoreClock = HAL_RCC_GetSysClockFreq() >> AHBPrescTable[(RCC->CFGR & RCC_CFGR_HPRE)>> RCC_CF
 906:Drivers/STM32F0xx_HAL_Driver/Src/stm32f0xx_hal_rcc.c **** 
 907:Drivers/STM32F0xx_HAL_Driver/Src/stm32f0xx_hal_rcc.c ****   /* Configure the source of time base considering new system clocks settings*/
 908:Drivers/STM32F0xx_HAL_Driver/Src/stm32f0xx_hal_rcc.c ****   HAL_InitTick (TICK_INT_PRIORITY);
 909:Drivers/STM32F0xx_HAL_Driver/Src/stm32f0xx_hal_rcc.c ****   
 910:Drivers/STM32F0xx_HAL_Driver/Src/stm32f0xx_hal_rcc.c ****   return HAL_OK;
 911:Drivers/STM32F0xx_HAL_Driver/Src/stm32f0xx_hal_rcc.c **** }
 912:Drivers/STM32F0xx_HAL_Driver/Src/stm32f0xx_hal_rcc.c **** 
 913:Drivers/STM32F0xx_HAL_Driver/Src/stm32f0xx_hal_rcc.c **** /**
 914:Drivers/STM32F0xx_HAL_Driver/Src/stm32f0xx_hal_rcc.c ****   * @}
ARM GAS  C:\Users\Password\AppData\Local\Temp\ccQ2oVJO.s 			page 43


 915:Drivers/STM32F0xx_HAL_Driver/Src/stm32f0xx_hal_rcc.c ****   */
 916:Drivers/STM32F0xx_HAL_Driver/Src/stm32f0xx_hal_rcc.c **** 
 917:Drivers/STM32F0xx_HAL_Driver/Src/stm32f0xx_hal_rcc.c **** /** @defgroup RCC_Exported_Functions_Group2 Peripheral Control functions
 918:Drivers/STM32F0xx_HAL_Driver/Src/stm32f0xx_hal_rcc.c ****   *  @brief   RCC clocks control functions
 919:Drivers/STM32F0xx_HAL_Driver/Src/stm32f0xx_hal_rcc.c ****   *
 920:Drivers/STM32F0xx_HAL_Driver/Src/stm32f0xx_hal_rcc.c ****   @verbatim   
 921:Drivers/STM32F0xx_HAL_Driver/Src/stm32f0xx_hal_rcc.c ****   ===============================================================================
 922:Drivers/STM32F0xx_HAL_Driver/Src/stm32f0xx_hal_rcc.c ****                   ##### Peripheral Control functions #####
 923:Drivers/STM32F0xx_HAL_Driver/Src/stm32f0xx_hal_rcc.c ****   ===============================================================================  
 924:Drivers/STM32F0xx_HAL_Driver/Src/stm32f0xx_hal_rcc.c ****     [..]
 925:Drivers/STM32F0xx_HAL_Driver/Src/stm32f0xx_hal_rcc.c ****     This subsection provides a set of functions allowing to control the RCC Clocks 
 926:Drivers/STM32F0xx_HAL_Driver/Src/stm32f0xx_hal_rcc.c ****     frequencies.
 927:Drivers/STM32F0xx_HAL_Driver/Src/stm32f0xx_hal_rcc.c **** 
 928:Drivers/STM32F0xx_HAL_Driver/Src/stm32f0xx_hal_rcc.c ****   @endverbatim
 929:Drivers/STM32F0xx_HAL_Driver/Src/stm32f0xx_hal_rcc.c ****   * @{
 930:Drivers/STM32F0xx_HAL_Driver/Src/stm32f0xx_hal_rcc.c ****   */
 931:Drivers/STM32F0xx_HAL_Driver/Src/stm32f0xx_hal_rcc.c **** 
 932:Drivers/STM32F0xx_HAL_Driver/Src/stm32f0xx_hal_rcc.c **** #if defined(RCC_CFGR_MCOPRE)
 933:Drivers/STM32F0xx_HAL_Driver/Src/stm32f0xx_hal_rcc.c **** /**
 934:Drivers/STM32F0xx_HAL_Driver/Src/stm32f0xx_hal_rcc.c ****   * @brief  Selects the clock source to output on MCO pin.
 935:Drivers/STM32F0xx_HAL_Driver/Src/stm32f0xx_hal_rcc.c ****   * @note   MCO pin should be configured in alternate function mode.
 936:Drivers/STM32F0xx_HAL_Driver/Src/stm32f0xx_hal_rcc.c ****   * @param  RCC_MCOx specifies the output direction for the clock source.
 937:Drivers/STM32F0xx_HAL_Driver/Src/stm32f0xx_hal_rcc.c ****   *          This parameter can be one of the following values:
 938:Drivers/STM32F0xx_HAL_Driver/Src/stm32f0xx_hal_rcc.c ****   *            @arg @ref RCC_MCO1 Clock source to output on MCO1 pin(PA8).
 939:Drivers/STM32F0xx_HAL_Driver/Src/stm32f0xx_hal_rcc.c ****   * @param  RCC_MCOSource specifies the clock source to output.
 940:Drivers/STM32F0xx_HAL_Driver/Src/stm32f0xx_hal_rcc.c ****   *          This parameter can be one of the following values:
 941:Drivers/STM32F0xx_HAL_Driver/Src/stm32f0xx_hal_rcc.c ****   *            @arg @ref RCC_MCO1SOURCE_NOCLOCK     No clock selected
 942:Drivers/STM32F0xx_HAL_Driver/Src/stm32f0xx_hal_rcc.c ****   *            @arg @ref RCC_MCO1SOURCE_SYSCLK      System Clock selected as MCO clock
 943:Drivers/STM32F0xx_HAL_Driver/Src/stm32f0xx_hal_rcc.c ****   *            @arg @ref RCC_MCO1SOURCE_HSI         HSI selected as MCO clock
 944:Drivers/STM32F0xx_HAL_Driver/Src/stm32f0xx_hal_rcc.c ****   *            @arg @ref RCC_MCO1SOURCE_HSE         HSE selected as MCO clock
 945:Drivers/STM32F0xx_HAL_Driver/Src/stm32f0xx_hal_rcc.c ****   *            @arg @ref RCC_MCO1SOURCE_LSI         LSI selected as MCO clock
 946:Drivers/STM32F0xx_HAL_Driver/Src/stm32f0xx_hal_rcc.c ****   *            @arg @ref RCC_MCO1SOURCE_LSE         LSE selected as MCO clock
 947:Drivers/STM32F0xx_HAL_Driver/Src/stm32f0xx_hal_rcc.c ****   *            @arg @ref RCC_MCO1SOURCE_HSI14       HSI14 selected as MCO clock
 948:Drivers/STM32F0xx_HAL_Driver/Src/stm32f0xx_hal_rcc.c ****   @if STM32F042x6
 949:Drivers/STM32F0xx_HAL_Driver/Src/stm32f0xx_hal_rcc.c ****   *            @arg @ref RCC_MCO1SOURCE_HSI48       HSI48 selected as MCO clock
 950:Drivers/STM32F0xx_HAL_Driver/Src/stm32f0xx_hal_rcc.c ****   *            @arg @ref RCC_MCO1SOURCE_PLLCLK      PLLCLK selected as MCO clock
 951:Drivers/STM32F0xx_HAL_Driver/Src/stm32f0xx_hal_rcc.c ****   @elseif STM32F048xx
 952:Drivers/STM32F0xx_HAL_Driver/Src/stm32f0xx_hal_rcc.c ****   *            @arg @ref RCC_MCO1SOURCE_HSI48       HSI48 selected as MCO clock
 953:Drivers/STM32F0xx_HAL_Driver/Src/stm32f0xx_hal_rcc.c ****   *            @arg @ref RCC_MCO1SOURCE_PLLCLK      PLLCLK selected as MCO clock
 954:Drivers/STM32F0xx_HAL_Driver/Src/stm32f0xx_hal_rcc.c ****   @elseif STM32F071xB
 955:Drivers/STM32F0xx_HAL_Driver/Src/stm32f0xx_hal_rcc.c ****   *            @arg @ref RCC_MCO1SOURCE_HSI48       HSI48 selected as MCO clock
 956:Drivers/STM32F0xx_HAL_Driver/Src/stm32f0xx_hal_rcc.c ****   *            @arg @ref RCC_MCO1SOURCE_PLLCLK      PLLCLK selected as MCO clock
 957:Drivers/STM32F0xx_HAL_Driver/Src/stm32f0xx_hal_rcc.c ****   @elseif STM32F072xB
 958:Drivers/STM32F0xx_HAL_Driver/Src/stm32f0xx_hal_rcc.c ****   *            @arg @ref RCC_MCO1SOURCE_HSI48       HSI48 selected as MCO clock
 959:Drivers/STM32F0xx_HAL_Driver/Src/stm32f0xx_hal_rcc.c ****   *            @arg @ref RCC_MCO1SOURCE_PLLCLK      PLLCLK selected as MCO clock
 960:Drivers/STM32F0xx_HAL_Driver/Src/stm32f0xx_hal_rcc.c ****   @elseif STM32F078xx
 961:Drivers/STM32F0xx_HAL_Driver/Src/stm32f0xx_hal_rcc.c ****   *            @arg @ref RCC_MCO1SOURCE_HSI48       HSI48 selected as MCO clock
 962:Drivers/STM32F0xx_HAL_Driver/Src/stm32f0xx_hal_rcc.c ****   *            @arg @ref RCC_MCO1SOURCE_PLLCLK      PLLCLK selected as MCO clock
 963:Drivers/STM32F0xx_HAL_Driver/Src/stm32f0xx_hal_rcc.c ****   @elseif STM32F091xC
 964:Drivers/STM32F0xx_HAL_Driver/Src/stm32f0xx_hal_rcc.c ****   *            @arg @ref RCC_MCO1SOURCE_HSI48       HSI48 selected as MCO clock
 965:Drivers/STM32F0xx_HAL_Driver/Src/stm32f0xx_hal_rcc.c ****   *            @arg @ref RCC_MCO1SOURCE_PLLCLK      PLLCLK selected as MCO clock
 966:Drivers/STM32F0xx_HAL_Driver/Src/stm32f0xx_hal_rcc.c ****   @elseif STM32F098xx
 967:Drivers/STM32F0xx_HAL_Driver/Src/stm32f0xx_hal_rcc.c ****   *            @arg @ref RCC_MCO1SOURCE_HSI48       HSI48 selected as MCO clock
 968:Drivers/STM32F0xx_HAL_Driver/Src/stm32f0xx_hal_rcc.c ****   *            @arg @ref RCC_MCO1SOURCE_PLLCLK      PLLCLK selected as MCO clock
 969:Drivers/STM32F0xx_HAL_Driver/Src/stm32f0xx_hal_rcc.c ****   @elif STM32F030x6
 970:Drivers/STM32F0xx_HAL_Driver/Src/stm32f0xx_hal_rcc.c ****   *            @arg @ref RCC_MCO1SOURCE_PLLCLK      PLLCLK selected as MCO clock
 971:Drivers/STM32F0xx_HAL_Driver/Src/stm32f0xx_hal_rcc.c ****   @elif STM32F030xC
ARM GAS  C:\Users\Password\AppData\Local\Temp\ccQ2oVJO.s 			page 44


 972:Drivers/STM32F0xx_HAL_Driver/Src/stm32f0xx_hal_rcc.c ****   *            @arg @ref RCC_MCO1SOURCE_PLLCLK      PLLCLK selected as MCO clock
 973:Drivers/STM32F0xx_HAL_Driver/Src/stm32f0xx_hal_rcc.c ****   @elif STM32F031x6
 974:Drivers/STM32F0xx_HAL_Driver/Src/stm32f0xx_hal_rcc.c ****   *            @arg @ref RCC_MCO1SOURCE_PLLCLK      PLLCLK selected as MCO clock
 975:Drivers/STM32F0xx_HAL_Driver/Src/stm32f0xx_hal_rcc.c ****   @elif STM32F038xx
 976:Drivers/STM32F0xx_HAL_Driver/Src/stm32f0xx_hal_rcc.c ****   *            @arg @ref RCC_MCO1SOURCE_PLLCLK      PLLCLK selected as MCO clock
 977:Drivers/STM32F0xx_HAL_Driver/Src/stm32f0xx_hal_rcc.c ****   @elif STM32F070x6
 978:Drivers/STM32F0xx_HAL_Driver/Src/stm32f0xx_hal_rcc.c ****   *            @arg @ref RCC_MCO1SOURCE_PLLCLK      PLLCLK selected as MCO clock
 979:Drivers/STM32F0xx_HAL_Driver/Src/stm32f0xx_hal_rcc.c ****   @elif STM32F070xB
 980:Drivers/STM32F0xx_HAL_Driver/Src/stm32f0xx_hal_rcc.c ****   *            @arg @ref RCC_MCO1SOURCE_PLLCLK      PLLCLK selected as MCO clock
 981:Drivers/STM32F0xx_HAL_Driver/Src/stm32f0xx_hal_rcc.c ****   @endif
 982:Drivers/STM32F0xx_HAL_Driver/Src/stm32f0xx_hal_rcc.c ****   *            @arg @ref RCC_MCO1SOURCE_PLLCLK_DIV2 PLLCLK Divided by 2 selected as MCO clock
 983:Drivers/STM32F0xx_HAL_Driver/Src/stm32f0xx_hal_rcc.c ****   * @param  RCC_MCODiv specifies the MCO DIV.
 984:Drivers/STM32F0xx_HAL_Driver/Src/stm32f0xx_hal_rcc.c ****   *          This parameter can be one of the following values:
 985:Drivers/STM32F0xx_HAL_Driver/Src/stm32f0xx_hal_rcc.c ****   *            @arg @ref RCC_MCODIV_1   no division applied to MCO clock
 986:Drivers/STM32F0xx_HAL_Driver/Src/stm32f0xx_hal_rcc.c ****   *            @arg @ref RCC_MCODIV_2   division by 2 applied to MCO clock
 987:Drivers/STM32F0xx_HAL_Driver/Src/stm32f0xx_hal_rcc.c ****   *            @arg @ref RCC_MCODIV_4   division by 4 applied to MCO clock
 988:Drivers/STM32F0xx_HAL_Driver/Src/stm32f0xx_hal_rcc.c ****   *            @arg @ref RCC_MCODIV_8   division by 8 applied to MCO clock
 989:Drivers/STM32F0xx_HAL_Driver/Src/stm32f0xx_hal_rcc.c ****   *            @arg @ref RCC_MCODIV_16  division by 16 applied to MCO clock
 990:Drivers/STM32F0xx_HAL_Driver/Src/stm32f0xx_hal_rcc.c ****   *            @arg @ref RCC_MCODIV_32  division by 32 applied to MCO clock
 991:Drivers/STM32F0xx_HAL_Driver/Src/stm32f0xx_hal_rcc.c ****   *            @arg @ref RCC_MCODIV_64  division by 64 applied to MCO clock
 992:Drivers/STM32F0xx_HAL_Driver/Src/stm32f0xx_hal_rcc.c ****   *            @arg @ref RCC_MCODIV_128 division by 128 applied to MCO clock
 993:Drivers/STM32F0xx_HAL_Driver/Src/stm32f0xx_hal_rcc.c ****   * @retval None
 994:Drivers/STM32F0xx_HAL_Driver/Src/stm32f0xx_hal_rcc.c ****   */
 995:Drivers/STM32F0xx_HAL_Driver/Src/stm32f0xx_hal_rcc.c **** #else
 996:Drivers/STM32F0xx_HAL_Driver/Src/stm32f0xx_hal_rcc.c **** /**
 997:Drivers/STM32F0xx_HAL_Driver/Src/stm32f0xx_hal_rcc.c ****   * @brief  Selects the clock source to output on MCO pin.
 998:Drivers/STM32F0xx_HAL_Driver/Src/stm32f0xx_hal_rcc.c ****   * @note   MCO pin should be configured in alternate function mode.
 999:Drivers/STM32F0xx_HAL_Driver/Src/stm32f0xx_hal_rcc.c ****   * @param  RCC_MCOx specifies the output direction for the clock source.
1000:Drivers/STM32F0xx_HAL_Driver/Src/stm32f0xx_hal_rcc.c ****   *          This parameter can be one of the following values:
1001:Drivers/STM32F0xx_HAL_Driver/Src/stm32f0xx_hal_rcc.c ****   *            @arg @ref RCC_MCO1 Clock source to output on MCO1 pin(PA8).
1002:Drivers/STM32F0xx_HAL_Driver/Src/stm32f0xx_hal_rcc.c ****   * @param  RCC_MCOSource specifies the clock source to output.
1003:Drivers/STM32F0xx_HAL_Driver/Src/stm32f0xx_hal_rcc.c ****   *          This parameter can be one of the following values:
1004:Drivers/STM32F0xx_HAL_Driver/Src/stm32f0xx_hal_rcc.c ****   *            @arg @ref RCC_MCO1SOURCE_NOCLOCK     No clock selected as MCO clock
1005:Drivers/STM32F0xx_HAL_Driver/Src/stm32f0xx_hal_rcc.c ****   *            @arg @ref RCC_MCO1SOURCE_SYSCLK      System clock selected as MCO clock
1006:Drivers/STM32F0xx_HAL_Driver/Src/stm32f0xx_hal_rcc.c ****   *            @arg @ref RCC_MCO1SOURCE_HSI         HSI selected as MCO clock
1007:Drivers/STM32F0xx_HAL_Driver/Src/stm32f0xx_hal_rcc.c ****   *            @arg @ref RCC_MCO1SOURCE_HSE         HSE selected as MCO clock
1008:Drivers/STM32F0xx_HAL_Driver/Src/stm32f0xx_hal_rcc.c ****   *            @arg @ref RCC_MCO1SOURCE_LSI         LSI selected as MCO clock
1009:Drivers/STM32F0xx_HAL_Driver/Src/stm32f0xx_hal_rcc.c ****   *            @arg @ref RCC_MCO1SOURCE_LSE         LSE selected as MCO clock
1010:Drivers/STM32F0xx_HAL_Driver/Src/stm32f0xx_hal_rcc.c ****   *            @arg @ref RCC_MCO1SOURCE_HSI14       HSI14 selected as MCO clock
1011:Drivers/STM32F0xx_HAL_Driver/Src/stm32f0xx_hal_rcc.c ****   *            @arg @ref RCC_MCO1SOURCE_PLLCLK_DIV2 PLLCLK Divided by 2 selected as MCO clock
1012:Drivers/STM32F0xx_HAL_Driver/Src/stm32f0xx_hal_rcc.c ****   * @param  RCC_MCODiv specifies the MCO DIV.
1013:Drivers/STM32F0xx_HAL_Driver/Src/stm32f0xx_hal_rcc.c ****   *          This parameter can be one of the following values:
1014:Drivers/STM32F0xx_HAL_Driver/Src/stm32f0xx_hal_rcc.c ****   *            @arg @ref RCC_MCODIV_1 no division applied to MCO clock
1015:Drivers/STM32F0xx_HAL_Driver/Src/stm32f0xx_hal_rcc.c ****   * @retval None
1016:Drivers/STM32F0xx_HAL_Driver/Src/stm32f0xx_hal_rcc.c ****   */
1017:Drivers/STM32F0xx_HAL_Driver/Src/stm32f0xx_hal_rcc.c **** #endif
1018:Drivers/STM32F0xx_HAL_Driver/Src/stm32f0xx_hal_rcc.c **** void HAL_RCC_MCOConfig(uint32_t RCC_MCOx, uint32_t RCC_MCOSource, uint32_t RCC_MCODiv)
1019:Drivers/STM32F0xx_HAL_Driver/Src/stm32f0xx_hal_rcc.c **** {
 1283              		.loc 1 1019 1 is_stmt 1 view -0
 1284              		.cfi_startproc
 1285              		@ args = 0, pretend = 0, frame = 24
 1286              		@ frame_needed = 0, uses_anonymous_args = 0
 1287              		.loc 1 1019 1 is_stmt 0 view .LVU389
 1288 0000 70B5     		push	{r4, r5, r6, lr}
 1289              	.LCFI3:
 1290              		.cfi_def_cfa_offset 16
 1291              		.cfi_offset 4, -16
ARM GAS  C:\Users\Password\AppData\Local\Temp\ccQ2oVJO.s 			page 45


 1292              		.cfi_offset 5, -12
 1293              		.cfi_offset 6, -8
 1294              		.cfi_offset 14, -4
 1295 0002 86B0     		sub	sp, sp, #24
 1296              	.LCFI4:
 1297              		.cfi_def_cfa_offset 40
 1298 0004 0D00     		movs	r5, r1
 1299 0006 1600     		movs	r6, r2
1020:Drivers/STM32F0xx_HAL_Driver/Src/stm32f0xx_hal_rcc.c ****   GPIO_InitTypeDef gpio;
 1300              		.loc 1 1020 3 is_stmt 1 view .LVU390
1021:Drivers/STM32F0xx_HAL_Driver/Src/stm32f0xx_hal_rcc.c **** 
1022:Drivers/STM32F0xx_HAL_Driver/Src/stm32f0xx_hal_rcc.c ****   /* Check the parameters */
1023:Drivers/STM32F0xx_HAL_Driver/Src/stm32f0xx_hal_rcc.c ****   assert_param(IS_RCC_MCO(RCC_MCOx));
 1301              		.loc 1 1023 3 view .LVU391
1024:Drivers/STM32F0xx_HAL_Driver/Src/stm32f0xx_hal_rcc.c ****   assert_param(IS_RCC_MCODIV(RCC_MCODiv));
 1302              		.loc 1 1024 3 view .LVU392
1025:Drivers/STM32F0xx_HAL_Driver/Src/stm32f0xx_hal_rcc.c ****   assert_param(IS_RCC_MCO1SOURCE(RCC_MCOSource));
 1303              		.loc 1 1025 3 view .LVU393
1026:Drivers/STM32F0xx_HAL_Driver/Src/stm32f0xx_hal_rcc.c ****   
1027:Drivers/STM32F0xx_HAL_Driver/Src/stm32f0xx_hal_rcc.c ****   /* Configure the MCO1 pin in alternate function mode */
1028:Drivers/STM32F0xx_HAL_Driver/Src/stm32f0xx_hal_rcc.c ****   gpio.Mode      = GPIO_MODE_AF_PP;
 1304              		.loc 1 1028 3 view .LVU394
 1305              		.loc 1 1028 18 is_stmt 0 view .LVU395
 1306 0008 0223     		movs	r3, #2
 1307 000a 0293     		str	r3, [sp, #8]
1029:Drivers/STM32F0xx_HAL_Driver/Src/stm32f0xx_hal_rcc.c ****   gpio.Speed     = GPIO_SPEED_FREQ_HIGH;
 1308              		.loc 1 1029 3 is_stmt 1 view .LVU396
 1309              		.loc 1 1029 18 is_stmt 0 view .LVU397
 1310 000c 0133     		adds	r3, r3, #1
 1311 000e 0493     		str	r3, [sp, #16]
1030:Drivers/STM32F0xx_HAL_Driver/Src/stm32f0xx_hal_rcc.c ****   gpio.Pull      = GPIO_NOPULL;
 1312              		.loc 1 1030 3 is_stmt 1 view .LVU398
 1313              		.loc 1 1030 18 is_stmt 0 view .LVU399
 1314 0010 0023     		movs	r3, #0
 1315 0012 0393     		str	r3, [sp, #12]
1031:Drivers/STM32F0xx_HAL_Driver/Src/stm32f0xx_hal_rcc.c ****   gpio.Pin       = MCO1_PIN;
 1316              		.loc 1 1031 3 is_stmt 1 view .LVU400
 1317              		.loc 1 1031 18 is_stmt 0 view .LVU401
 1318 0014 8022     		movs	r2, #128
 1319              	.LVL92:
 1320              		.loc 1 1031 18 view .LVU402
 1321 0016 5200     		lsls	r2, r2, #1
 1322 0018 0192     		str	r2, [sp, #4]
1032:Drivers/STM32F0xx_HAL_Driver/Src/stm32f0xx_hal_rcc.c ****   gpio.Alternate = GPIO_AF0_MCO;
 1323              		.loc 1 1032 3 is_stmt 1 view .LVU403
 1324              		.loc 1 1032 18 is_stmt 0 view .LVU404
 1325 001a 0593     		str	r3, [sp, #20]
1033:Drivers/STM32F0xx_HAL_Driver/Src/stm32f0xx_hal_rcc.c **** 
1034:Drivers/STM32F0xx_HAL_Driver/Src/stm32f0xx_hal_rcc.c ****   /* MCO1 Clock Enable */
1035:Drivers/STM32F0xx_HAL_Driver/Src/stm32f0xx_hal_rcc.c ****   MCO1_CLK_ENABLE();
 1326              		.loc 1 1035 3 is_stmt 1 view .LVU405
 1327              	.LBB5:
 1328              		.loc 1 1035 3 view .LVU406
 1329              		.loc 1 1035 3 view .LVU407
 1330 001c 0B4C     		ldr	r4, .L132
 1331 001e 6369     		ldr	r3, [r4, #20]
 1332 0020 8022     		movs	r2, #128
ARM GAS  C:\Users\Password\AppData\Local\Temp\ccQ2oVJO.s 			page 46


 1333 0022 9202     		lsls	r2, r2, #10
 1334 0024 1343     		orrs	r3, r2
 1335 0026 6361     		str	r3, [r4, #20]
 1336              		.loc 1 1035 3 view .LVU408
 1337 0028 6369     		ldr	r3, [r4, #20]
 1338 002a 1340     		ands	r3, r2
 1339 002c 0093     		str	r3, [sp]
 1340              		.loc 1 1035 3 view .LVU409
 1341 002e 009B     		ldr	r3, [sp]
 1342              	.LBE5:
 1343              		.loc 1 1035 3 view .LVU410
1036:Drivers/STM32F0xx_HAL_Driver/Src/stm32f0xx_hal_rcc.c ****   
1037:Drivers/STM32F0xx_HAL_Driver/Src/stm32f0xx_hal_rcc.c ****   HAL_GPIO_Init(MCO1_GPIO_PORT, &gpio);
 1344              		.loc 1 1037 3 view .LVU411
 1345 0030 9020     		movs	r0, #144
 1346              	.LVL93:
 1347              		.loc 1 1037 3 is_stmt 0 view .LVU412
 1348 0032 01A9     		add	r1, sp, #4
 1349              	.LVL94:
 1350              		.loc 1 1037 3 view .LVU413
 1351 0034 C005     		lsls	r0, r0, #23
 1352 0036 FFF7FEFF 		bl	HAL_GPIO_Init
 1353              	.LVL95:
1038:Drivers/STM32F0xx_HAL_Driver/Src/stm32f0xx_hal_rcc.c ****   
1039:Drivers/STM32F0xx_HAL_Driver/Src/stm32f0xx_hal_rcc.c ****   /* Configure the MCO clock source */
1040:Drivers/STM32F0xx_HAL_Driver/Src/stm32f0xx_hal_rcc.c ****   __HAL_RCC_MCO1_CONFIG(RCC_MCOSource, RCC_MCODiv);
 1354              		.loc 1 1040 3 is_stmt 1 view .LVU414
 1355 003a 6268     		ldr	r2, [r4, #4]
 1356 003c 044B     		ldr	r3, .L132+4
 1357 003e 1A40     		ands	r2, r3
 1358 0040 3543     		orrs	r5, r6
 1359              	.LVL96:
 1360              		.loc 1 1040 3 is_stmt 0 view .LVU415
 1361 0042 2A43     		orrs	r2, r5
 1362 0044 6260     		str	r2, [r4, #4]
1041:Drivers/STM32F0xx_HAL_Driver/Src/stm32f0xx_hal_rcc.c **** }
 1363              		.loc 1 1041 1 view .LVU416
 1364 0046 06B0     		add	sp, sp, #24
 1365              		@ sp needed
 1366              	.LVL97:
 1367              		.loc 1 1041 1 view .LVU417
 1368 0048 70BD     		pop	{r4, r5, r6, pc}
 1369              	.L133:
 1370 004a C046     		.align	2
 1371              	.L132:
 1372 004c 00100240 		.word	1073876992
 1373 0050 FFFFFF80 		.word	-2130706433
 1374              		.cfi_endproc
 1375              	.LFE43:
 1377              		.section	.text.HAL_RCC_EnableCSS,"ax",%progbits
 1378              		.align	1
 1379              		.global	HAL_RCC_EnableCSS
 1380              		.syntax unified
 1381              		.code	16
 1382              		.thumb_func
 1384              	HAL_RCC_EnableCSS:
 1385              	.LFB44:
ARM GAS  C:\Users\Password\AppData\Local\Temp\ccQ2oVJO.s 			page 47


1042:Drivers/STM32F0xx_HAL_Driver/Src/stm32f0xx_hal_rcc.c **** 
1043:Drivers/STM32F0xx_HAL_Driver/Src/stm32f0xx_hal_rcc.c **** /**
1044:Drivers/STM32F0xx_HAL_Driver/Src/stm32f0xx_hal_rcc.c ****   * @brief  Enables the Clock Security System.
1045:Drivers/STM32F0xx_HAL_Driver/Src/stm32f0xx_hal_rcc.c ****   * @note   If a failure is detected on the HSE oscillator clock, this oscillator
1046:Drivers/STM32F0xx_HAL_Driver/Src/stm32f0xx_hal_rcc.c ****   *         is automatically disabled and an interrupt is generated to inform the
1047:Drivers/STM32F0xx_HAL_Driver/Src/stm32f0xx_hal_rcc.c ****   *         software about the failure (Clock Security System Interrupt, CSSI),
1048:Drivers/STM32F0xx_HAL_Driver/Src/stm32f0xx_hal_rcc.c ****   *         allowing the MCU to perform rescue operations. The CSSI is linked to 
1049:Drivers/STM32F0xx_HAL_Driver/Src/stm32f0xx_hal_rcc.c ****   *         the Cortex-M0 NMI (Non-Maskable Interrupt) exception vector.  
1050:Drivers/STM32F0xx_HAL_Driver/Src/stm32f0xx_hal_rcc.c ****   * @retval None
1051:Drivers/STM32F0xx_HAL_Driver/Src/stm32f0xx_hal_rcc.c ****   */
1052:Drivers/STM32F0xx_HAL_Driver/Src/stm32f0xx_hal_rcc.c **** void HAL_RCC_EnableCSS(void)
1053:Drivers/STM32F0xx_HAL_Driver/Src/stm32f0xx_hal_rcc.c **** {
 1386              		.loc 1 1053 1 is_stmt 1 view -0
 1387              		.cfi_startproc
 1388              		@ args = 0, pretend = 0, frame = 0
 1389              		@ frame_needed = 0, uses_anonymous_args = 0
 1390              		@ link register save eliminated.
1054:Drivers/STM32F0xx_HAL_Driver/Src/stm32f0xx_hal_rcc.c ****   SET_BIT(RCC->CR, RCC_CR_CSSON) ;
 1391              		.loc 1 1054 3 view .LVU419
 1392 0000 034A     		ldr	r2, .L135
 1393 0002 1168     		ldr	r1, [r2]
 1394 0004 8023     		movs	r3, #128
 1395 0006 1B03     		lsls	r3, r3, #12
 1396 0008 0B43     		orrs	r3, r1
 1397 000a 1360     		str	r3, [r2]
1055:Drivers/STM32F0xx_HAL_Driver/Src/stm32f0xx_hal_rcc.c **** }
 1398              		.loc 1 1055 1 is_stmt 0 view .LVU420
 1399              		@ sp needed
 1400 000c 7047     		bx	lr
 1401              	.L136:
 1402 000e C046     		.align	2
 1403              	.L135:
 1404 0010 00100240 		.word	1073876992
 1405              		.cfi_endproc
 1406              	.LFE44:
 1408              		.section	.text.HAL_RCC_DisableCSS,"ax",%progbits
 1409              		.align	1
 1410              		.global	HAL_RCC_DisableCSS
 1411              		.syntax unified
 1412              		.code	16
 1413              		.thumb_func
 1415              	HAL_RCC_DisableCSS:
 1416              	.LFB45:
1056:Drivers/STM32F0xx_HAL_Driver/Src/stm32f0xx_hal_rcc.c **** 
1057:Drivers/STM32F0xx_HAL_Driver/Src/stm32f0xx_hal_rcc.c **** /**
1058:Drivers/STM32F0xx_HAL_Driver/Src/stm32f0xx_hal_rcc.c ****   * @brief  Disables the Clock Security System.
1059:Drivers/STM32F0xx_HAL_Driver/Src/stm32f0xx_hal_rcc.c ****   * @retval None
1060:Drivers/STM32F0xx_HAL_Driver/Src/stm32f0xx_hal_rcc.c ****   */
1061:Drivers/STM32F0xx_HAL_Driver/Src/stm32f0xx_hal_rcc.c **** void HAL_RCC_DisableCSS(void)
1062:Drivers/STM32F0xx_HAL_Driver/Src/stm32f0xx_hal_rcc.c **** {
 1417              		.loc 1 1062 1 is_stmt 1 view -0
 1418              		.cfi_startproc
 1419              		@ args = 0, pretend = 0, frame = 0
 1420              		@ frame_needed = 0, uses_anonymous_args = 0
 1421              		@ link register save eliminated.
1063:Drivers/STM32F0xx_HAL_Driver/Src/stm32f0xx_hal_rcc.c ****   CLEAR_BIT(RCC->CR, RCC_CR_CSSON) ;
 1422              		.loc 1 1063 3 view .LVU422
ARM GAS  C:\Users\Password\AppData\Local\Temp\ccQ2oVJO.s 			page 48


 1423 0000 024A     		ldr	r2, .L138
 1424 0002 1368     		ldr	r3, [r2]
 1425 0004 0249     		ldr	r1, .L138+4
 1426 0006 0B40     		ands	r3, r1
 1427 0008 1360     		str	r3, [r2]
1064:Drivers/STM32F0xx_HAL_Driver/Src/stm32f0xx_hal_rcc.c **** }
 1428              		.loc 1 1064 1 is_stmt 0 view .LVU423
 1429              		@ sp needed
 1430 000a 7047     		bx	lr
 1431              	.L139:
 1432              		.align	2
 1433              	.L138:
 1434 000c 00100240 		.word	1073876992
 1435 0010 FFFFF7FF 		.word	-524289
 1436              		.cfi_endproc
 1437              	.LFE45:
 1439              		.global	__aeabi_uidiv
 1440              		.section	.rodata.HAL_RCC_GetSysClockFreq.str1.4,"aMS",%progbits,1
 1441              		.align	2
 1442              	.LC2:
 1443 0000 02030405 		.ascii	"\002\003\004\005\006\007\010\011\012\013\014\015\016"
 1443      06070809 
 1443      0A0B0C0D 
 1443      0E
 1444 000d 0F101000 		.ascii	"\017\020\020\000"
 1445 0011 000000   		.align	2
 1446              	.LC4:
 1447 0014 01020304 		.ascii	"\001\002\003\004\005\006\007\010\011\012\013\014\015"
 1447      05060708 
 1447      090A0B0C 
 1447      0D
 1448 0021 0E0F1000 		.ascii	"\016\017\020\000"
 1449              		.section	.text.HAL_RCC_GetSysClockFreq,"ax",%progbits
 1450              		.align	1
 1451              		.global	HAL_RCC_GetSysClockFreq
 1452              		.syntax unified
 1453              		.code	16
 1454              		.thumb_func
 1456              	HAL_RCC_GetSysClockFreq:
 1457              	.LFB46:
1065:Drivers/STM32F0xx_HAL_Driver/Src/stm32f0xx_hal_rcc.c **** 
1066:Drivers/STM32F0xx_HAL_Driver/Src/stm32f0xx_hal_rcc.c **** /**
1067:Drivers/STM32F0xx_HAL_Driver/Src/stm32f0xx_hal_rcc.c ****   * @brief  Returns the SYSCLK frequency     
1068:Drivers/STM32F0xx_HAL_Driver/Src/stm32f0xx_hal_rcc.c ****   * @note   The system frequency computed by this function is not the real 
1069:Drivers/STM32F0xx_HAL_Driver/Src/stm32f0xx_hal_rcc.c ****   *         frequency in the chip. It is calculated based on the predefined 
1070:Drivers/STM32F0xx_HAL_Driver/Src/stm32f0xx_hal_rcc.c ****   *         constant and the selected clock source:
1071:Drivers/STM32F0xx_HAL_Driver/Src/stm32f0xx_hal_rcc.c ****   * @note     If SYSCLK source is HSI, function returns values based on HSI_VALUE(*)
1072:Drivers/STM32F0xx_HAL_Driver/Src/stm32f0xx_hal_rcc.c ****   * @note     If SYSCLK source is HSE, function returns a value based on HSE_VALUE
1073:Drivers/STM32F0xx_HAL_Driver/Src/stm32f0xx_hal_rcc.c ****   *           divided by PREDIV factor(**)
1074:Drivers/STM32F0xx_HAL_Driver/Src/stm32f0xx_hal_rcc.c ****   * @note     If SYSCLK source is PLL, function returns a value based on HSE_VALUE
1075:Drivers/STM32F0xx_HAL_Driver/Src/stm32f0xx_hal_rcc.c ****   *           divided by PREDIV factor(**) or depending on STM32F0xxxx devices either a value based
1076:Drivers/STM32F0xx_HAL_Driver/Src/stm32f0xx_hal_rcc.c ****   *           on HSI_VALUE divided by 2 or HSI_VALUE divided by PREDIV factor(*) multiplied by the 
1077:Drivers/STM32F0xx_HAL_Driver/Src/stm32f0xx_hal_rcc.c ****   *           PLL factor.
1078:Drivers/STM32F0xx_HAL_Driver/Src/stm32f0xx_hal_rcc.c ****   * @note     (*) HSI_VALUE is a constant defined in stm32f0xx_hal_conf.h file (default value
1079:Drivers/STM32F0xx_HAL_Driver/Src/stm32f0xx_hal_rcc.c ****   *               8 MHz) but the real value may vary depending on the variations
1080:Drivers/STM32F0xx_HAL_Driver/Src/stm32f0xx_hal_rcc.c ****   *               in voltage and temperature.
1081:Drivers/STM32F0xx_HAL_Driver/Src/stm32f0xx_hal_rcc.c ****   * @note     (**) HSE_VALUE is a constant defined in stm32f0xx_hal_conf.h file (default value
ARM GAS  C:\Users\Password\AppData\Local\Temp\ccQ2oVJO.s 			page 49


1082:Drivers/STM32F0xx_HAL_Driver/Src/stm32f0xx_hal_rcc.c ****   *                8 MHz), user has to ensure that HSE_VALUE is same as the real
1083:Drivers/STM32F0xx_HAL_Driver/Src/stm32f0xx_hal_rcc.c ****   *                frequency of the crystal used. Otherwise, this function may
1084:Drivers/STM32F0xx_HAL_Driver/Src/stm32f0xx_hal_rcc.c ****   *                have wrong result.
1085:Drivers/STM32F0xx_HAL_Driver/Src/stm32f0xx_hal_rcc.c ****   *                  
1086:Drivers/STM32F0xx_HAL_Driver/Src/stm32f0xx_hal_rcc.c ****   * @note   The result of this function could be not correct when using fractional
1087:Drivers/STM32F0xx_HAL_Driver/Src/stm32f0xx_hal_rcc.c ****   *         value for HSE crystal.
1088:Drivers/STM32F0xx_HAL_Driver/Src/stm32f0xx_hal_rcc.c ****   *           
1089:Drivers/STM32F0xx_HAL_Driver/Src/stm32f0xx_hal_rcc.c ****   * @note   This function can be used by the user application to compute the 
1090:Drivers/STM32F0xx_HAL_Driver/Src/stm32f0xx_hal_rcc.c ****   *         baud-rate for the communication peripherals or configure other parameters.
1091:Drivers/STM32F0xx_HAL_Driver/Src/stm32f0xx_hal_rcc.c ****   *           
1092:Drivers/STM32F0xx_HAL_Driver/Src/stm32f0xx_hal_rcc.c ****   * @note   Each time SYSCLK changes, this function must be called to update the
1093:Drivers/STM32F0xx_HAL_Driver/Src/stm32f0xx_hal_rcc.c ****   *         right SYSCLK value. Otherwise, any configuration based on this function will be incorre
1094:Drivers/STM32F0xx_HAL_Driver/Src/stm32f0xx_hal_rcc.c ****   *         
1095:Drivers/STM32F0xx_HAL_Driver/Src/stm32f0xx_hal_rcc.c ****   * @retval SYSCLK frequency
1096:Drivers/STM32F0xx_HAL_Driver/Src/stm32f0xx_hal_rcc.c ****   */
1097:Drivers/STM32F0xx_HAL_Driver/Src/stm32f0xx_hal_rcc.c **** uint32_t HAL_RCC_GetSysClockFreq(void)
1098:Drivers/STM32F0xx_HAL_Driver/Src/stm32f0xx_hal_rcc.c **** {
 1458              		.loc 1 1098 1 is_stmt 1 view -0
 1459              		.cfi_startproc
 1460              		@ args = 0, pretend = 0, frame = 32
 1461              		@ frame_needed = 0, uses_anonymous_args = 0
 1462 0000 30B5     		push	{r4, r5, lr}
 1463              	.LCFI5:
 1464              		.cfi_def_cfa_offset 12
 1465              		.cfi_offset 4, -12
 1466              		.cfi_offset 5, -8
 1467              		.cfi_offset 14, -4
 1468 0002 89B0     		sub	sp, sp, #36
 1469              	.LCFI6:
 1470              		.cfi_def_cfa_offset 48
1099:Drivers/STM32F0xx_HAL_Driver/Src/stm32f0xx_hal_rcc.c ****   const uint8_t aPLLMULFactorTable[16] = { 2U,  3U,  4U,  5U,  6U,  7U,  8U,  9U,
 1471              		.loc 1 1099 3 view .LVU425
 1472              		.loc 1 1099 17 is_stmt 0 view .LVU426
 1473 0004 04AA     		add	r2, sp, #16
 1474 0006 184B     		ldr	r3, .L145
 1475 0008 31CB     		ldmia	r3!, {r0, r4, r5}
 1476 000a 31C2     		stmia	r2!, {r0, r4, r5}
 1477 000c 1B68     		ldr	r3, [r3]
 1478 000e 1360     		str	r3, [r2]
1100:Drivers/STM32F0xx_HAL_Driver/Src/stm32f0xx_hal_rcc.c ****                                          10U, 11U, 12U, 13U, 14U, 15U, 16U, 16U};
1101:Drivers/STM32F0xx_HAL_Driver/Src/stm32f0xx_hal_rcc.c ****   const uint8_t aPredivFactorTable[16] = { 1U, 2U,  3U,  4U,  5U,  6U,  7U,  8U,
 1479              		.loc 1 1101 3 is_stmt 1 view .LVU427
 1480              		.loc 1 1101 17 is_stmt 0 view .LVU428
 1481 0010 6A46     		mov	r2, sp
 1482 0012 164B     		ldr	r3, .L145+4
 1483 0014 31CB     		ldmia	r3!, {r0, r4, r5}
 1484 0016 31C2     		stmia	r2!, {r0, r4, r5}
 1485 0018 1B68     		ldr	r3, [r3]
 1486 001a 1360     		str	r3, [r2]
1102:Drivers/STM32F0xx_HAL_Driver/Src/stm32f0xx_hal_rcc.c ****                                            9U,10U, 11U, 12U, 13U, 14U, 15U, 16U};
1103:Drivers/STM32F0xx_HAL_Driver/Src/stm32f0xx_hal_rcc.c **** 
1104:Drivers/STM32F0xx_HAL_Driver/Src/stm32f0xx_hal_rcc.c ****   uint32_t tmpreg = 0U, prediv = 0U, pllclk = 0U, pllmul = 0U;
 1487              		.loc 1 1104 3 is_stmt 1 view .LVU429
 1488              	.LVL98:
1105:Drivers/STM32F0xx_HAL_Driver/Src/stm32f0xx_hal_rcc.c ****   uint32_t sysclockfreq = 0U;
 1489              		.loc 1 1105 3 view .LVU430
1106:Drivers/STM32F0xx_HAL_Driver/Src/stm32f0xx_hal_rcc.c ****   
ARM GAS  C:\Users\Password\AppData\Local\Temp\ccQ2oVJO.s 			page 50


1107:Drivers/STM32F0xx_HAL_Driver/Src/stm32f0xx_hal_rcc.c ****   tmpreg = RCC->CFGR;
 1490              		.loc 1 1107 3 view .LVU431
 1491              		.loc 1 1107 10 is_stmt 0 view .LVU432
 1492 001c 144B     		ldr	r3, .L145+8
 1493 001e 5A68     		ldr	r2, [r3, #4]
 1494              	.LVL99:
1108:Drivers/STM32F0xx_HAL_Driver/Src/stm32f0xx_hal_rcc.c ****   
1109:Drivers/STM32F0xx_HAL_Driver/Src/stm32f0xx_hal_rcc.c ****   /* Get SYSCLK source -------------------------------------------------------*/
1110:Drivers/STM32F0xx_HAL_Driver/Src/stm32f0xx_hal_rcc.c ****   switch (tmpreg & RCC_CFGR_SWS)
 1495              		.loc 1 1110 3 is_stmt 1 view .LVU433
 1496              		.loc 1 1110 18 is_stmt 0 view .LVU434
 1497 0020 0C23     		movs	r3, #12
 1498 0022 1340     		ands	r3, r2
 1499              		.loc 1 1110 3 view .LVU435
 1500 0024 042B     		cmp	r3, #4
 1501 0026 1AD0     		beq	.L143
 1502 0028 082B     		cmp	r3, #8
 1503 002a 1AD1     		bne	.L144
1111:Drivers/STM32F0xx_HAL_Driver/Src/stm32f0xx_hal_rcc.c ****   {
1112:Drivers/STM32F0xx_HAL_Driver/Src/stm32f0xx_hal_rcc.c ****     case RCC_SYSCLKSOURCE_STATUS_HSE:  /* HSE used as system clock */
1113:Drivers/STM32F0xx_HAL_Driver/Src/stm32f0xx_hal_rcc.c ****     {
1114:Drivers/STM32F0xx_HAL_Driver/Src/stm32f0xx_hal_rcc.c ****       sysclockfreq = HSE_VALUE;
1115:Drivers/STM32F0xx_HAL_Driver/Src/stm32f0xx_hal_rcc.c ****       break;
1116:Drivers/STM32F0xx_HAL_Driver/Src/stm32f0xx_hal_rcc.c ****     }
1117:Drivers/STM32F0xx_HAL_Driver/Src/stm32f0xx_hal_rcc.c ****     case RCC_SYSCLKSOURCE_STATUS_PLLCLK:  /* PLL used as system clock */
1118:Drivers/STM32F0xx_HAL_Driver/Src/stm32f0xx_hal_rcc.c ****     {
1119:Drivers/STM32F0xx_HAL_Driver/Src/stm32f0xx_hal_rcc.c ****       pllmul = aPLLMULFactorTable[(uint32_t)(tmpreg & RCC_CFGR_PLLMUL) >> RCC_CFGR_PLLMUL_BITNUMBER
 1504              		.loc 1 1119 7 is_stmt 1 view .LVU436
 1505              		.loc 1 1119 72 is_stmt 0 view .LVU437
 1506 002c 910C     		lsrs	r1, r2, #18
 1507 002e 0733     		adds	r3, r3, #7
 1508 0030 1940     		ands	r1, r3
 1509              		.loc 1 1119 34 view .LVU438
 1510 0032 04A8     		add	r0, sp, #16
 1511 0034 445C     		ldrb	r4, [r0, r1]
 1512              	.LVL100:
1120:Drivers/STM32F0xx_HAL_Driver/Src/stm32f0xx_hal_rcc.c ****       prediv = aPredivFactorTable[(uint32_t)(RCC->CFGR2 & RCC_CFGR2_PREDIV) >> RCC_CFGR2_PREDIV_BIT
 1513              		.loc 1 1120 7 is_stmt 1 view .LVU439
 1514              		.loc 1 1120 49 is_stmt 0 view .LVU440
 1515 0036 0E49     		ldr	r1, .L145+8
 1516 0038 C96A     		ldr	r1, [r1, #44]
 1517              		.loc 1 1120 77 view .LVU441
 1518 003a 0B40     		ands	r3, r1
 1519              		.loc 1 1120 34 view .LVU442
 1520 003c 6946     		mov	r1, sp
 1521 003e C95C     		ldrb	r1, [r1, r3]
 1522              	.LVL101:
1121:Drivers/STM32F0xx_HAL_Driver/Src/stm32f0xx_hal_rcc.c ****       if ((tmpreg & RCC_CFGR_PLLSRC) == RCC_PLLSOURCE_HSE)
 1523              		.loc 1 1121 7 is_stmt 1 view .LVU443
 1524              		.loc 1 1121 10 is_stmt 0 view .LVU444
 1525 0040 D203     		lsls	r2, r2, #15
 1526 0042 04D5     		bpl	.L142
 1527              	.LVL102:
1122:Drivers/STM32F0xx_HAL_Driver/Src/stm32f0xx_hal_rcc.c ****       {
1123:Drivers/STM32F0xx_HAL_Driver/Src/stm32f0xx_hal_rcc.c ****         /* HSE used as PLL clock source : PLLCLK = HSE/PREDIV * PLLMUL */
1124:Drivers/STM32F0xx_HAL_Driver/Src/stm32f0xx_hal_rcc.c ****         pllclk = (uint32_t)((uint64_t) HSE_VALUE / (uint64_t) (prediv)) * ((uint64_t) pllmul);
 1528              		.loc 1 1124 9 is_stmt 1 view .LVU445
ARM GAS  C:\Users\Password\AppData\Local\Temp\ccQ2oVJO.s 			page 51


 1529              		.loc 1 1124 18 is_stmt 0 view .LVU446
 1530 0044 0B48     		ldr	r0, .L145+12
 1531 0046 FFF7FEFF 		bl	__aeabi_uidiv
 1532              	.LVL103:
 1533              		.loc 1 1124 16 view .LVU447
 1534 004a 6043     		muls	r0, r4
 1535              	.LVL104:
 1536              		.loc 1 1124 16 view .LVU448
 1537 004c 0AE0     		b	.L140
 1538              	.LVL105:
 1539              	.L142:
1125:Drivers/STM32F0xx_HAL_Driver/Src/stm32f0xx_hal_rcc.c ****       }
1126:Drivers/STM32F0xx_HAL_Driver/Src/stm32f0xx_hal_rcc.c **** #if defined(RCC_CFGR_PLLSRC_HSI48_PREDIV)
1127:Drivers/STM32F0xx_HAL_Driver/Src/stm32f0xx_hal_rcc.c ****       else if ((tmpreg & RCC_CFGR_PLLSRC) == RCC_PLLSOURCE_HSI48)
1128:Drivers/STM32F0xx_HAL_Driver/Src/stm32f0xx_hal_rcc.c ****       {
1129:Drivers/STM32F0xx_HAL_Driver/Src/stm32f0xx_hal_rcc.c ****         /* HSI48 used as PLL clock source : PLLCLK = HSI48/PREDIV * PLLMUL */
1130:Drivers/STM32F0xx_HAL_Driver/Src/stm32f0xx_hal_rcc.c ****         pllclk = (uint32_t)((uint64_t) HSI48_VALUE / (uint64_t) (prediv)) * ((uint64_t) pllmul);
1131:Drivers/STM32F0xx_HAL_Driver/Src/stm32f0xx_hal_rcc.c ****       }
1132:Drivers/STM32F0xx_HAL_Driver/Src/stm32f0xx_hal_rcc.c **** #endif /* RCC_CFGR_PLLSRC_HSI48_PREDIV */
1133:Drivers/STM32F0xx_HAL_Driver/Src/stm32f0xx_hal_rcc.c ****       else
1134:Drivers/STM32F0xx_HAL_Driver/Src/stm32f0xx_hal_rcc.c ****       {
1135:Drivers/STM32F0xx_HAL_Driver/Src/stm32f0xx_hal_rcc.c **** #if  (defined(STM32F042x6) || defined(STM32F048xx) || defined(STM32F070x6) || defined(STM32F071xB) 
1136:Drivers/STM32F0xx_HAL_Driver/Src/stm32f0xx_hal_rcc.c ****         /* HSI used as PLL clock source : PLLCLK = HSI/PREDIV * PLLMUL */
1137:Drivers/STM32F0xx_HAL_Driver/Src/stm32f0xx_hal_rcc.c ****         pllclk = (uint32_t)((uint64_t) HSI_VALUE / (uint64_t) (prediv)) * ((uint64_t) pllmul);
1138:Drivers/STM32F0xx_HAL_Driver/Src/stm32f0xx_hal_rcc.c **** #else
1139:Drivers/STM32F0xx_HAL_Driver/Src/stm32f0xx_hal_rcc.c ****         /* HSI used as PLL clock source : PLLCLK = HSI/2 * PLLMUL */
1140:Drivers/STM32F0xx_HAL_Driver/Src/stm32f0xx_hal_rcc.c ****         pllclk = (uint32_t)((uint64_t) (HSI_VALUE >> 1U) * ((uint64_t) pllmul));
 1540              		.loc 1 1140 9 is_stmt 1 view .LVU449
 1541              		.loc 1 1140 16 is_stmt 0 view .LVU450
 1542 004e 6201     		lsls	r2, r4, #5
 1543 0050 121B     		subs	r2, r2, r4
 1544 0052 9301     		lsls	r3, r2, #6
 1545 0054 9B1A     		subs	r3, r3, r2
 1546 0056 DB00     		lsls	r3, r3, #3
 1547 0058 1B19     		adds	r3, r3, r4
 1548 005a 1802     		lsls	r0, r3, #8
 1549              	.LVL106:
 1550              		.loc 1 1140 16 view .LVU451
 1551 005c 02E0     		b	.L140
 1552              	.LVL107:
 1553              	.L143:
1110:Drivers/STM32F0xx_HAL_Driver/Src/stm32f0xx_hal_rcc.c ****   {
 1554              		.loc 1 1110 3 view .LVU452
 1555 005e 0548     		ldr	r0, .L145+12
 1556 0060 00E0     		b	.L140
 1557              	.L144:
1141:Drivers/STM32F0xx_HAL_Driver/Src/stm32f0xx_hal_rcc.c **** #endif
1142:Drivers/STM32F0xx_HAL_Driver/Src/stm32f0xx_hal_rcc.c ****       }
1143:Drivers/STM32F0xx_HAL_Driver/Src/stm32f0xx_hal_rcc.c ****       sysclockfreq = pllclk;
1144:Drivers/STM32F0xx_HAL_Driver/Src/stm32f0xx_hal_rcc.c ****       break;
1145:Drivers/STM32F0xx_HAL_Driver/Src/stm32f0xx_hal_rcc.c ****     }
1146:Drivers/STM32F0xx_HAL_Driver/Src/stm32f0xx_hal_rcc.c **** #if defined(RCC_CFGR_SWS_HSI48)
1147:Drivers/STM32F0xx_HAL_Driver/Src/stm32f0xx_hal_rcc.c ****     case RCC_SYSCLKSOURCE_STATUS_HSI48:    /* HSI48 used as system clock source */
1148:Drivers/STM32F0xx_HAL_Driver/Src/stm32f0xx_hal_rcc.c ****     {
1149:Drivers/STM32F0xx_HAL_Driver/Src/stm32f0xx_hal_rcc.c ****       sysclockfreq = HSI48_VALUE;
1150:Drivers/STM32F0xx_HAL_Driver/Src/stm32f0xx_hal_rcc.c ****       break;
1151:Drivers/STM32F0xx_HAL_Driver/Src/stm32f0xx_hal_rcc.c ****     }
ARM GAS  C:\Users\Password\AppData\Local\Temp\ccQ2oVJO.s 			page 52


1152:Drivers/STM32F0xx_HAL_Driver/Src/stm32f0xx_hal_rcc.c **** #endif /* RCC_CFGR_SWS_HSI48 */
1153:Drivers/STM32F0xx_HAL_Driver/Src/stm32f0xx_hal_rcc.c ****     case RCC_SYSCLKSOURCE_STATUS_HSI:  /* HSI used as system clock source */
1154:Drivers/STM32F0xx_HAL_Driver/Src/stm32f0xx_hal_rcc.c ****     default: /* HSI used as system clock */
1155:Drivers/STM32F0xx_HAL_Driver/Src/stm32f0xx_hal_rcc.c ****     {
1156:Drivers/STM32F0xx_HAL_Driver/Src/stm32f0xx_hal_rcc.c ****       sysclockfreq = HSI_VALUE;
 1558              		.loc 1 1156 20 view .LVU453
 1559 0062 0548     		ldr	r0, .L145+16
 1560              	.LVL108:
1157:Drivers/STM32F0xx_HAL_Driver/Src/stm32f0xx_hal_rcc.c ****       break;
1158:Drivers/STM32F0xx_HAL_Driver/Src/stm32f0xx_hal_rcc.c ****     }
1159:Drivers/STM32F0xx_HAL_Driver/Src/stm32f0xx_hal_rcc.c ****   }
1160:Drivers/STM32F0xx_HAL_Driver/Src/stm32f0xx_hal_rcc.c ****   return sysclockfreq;
 1561              		.loc 1 1160 3 is_stmt 1 view .LVU454
 1562              	.L140:
1161:Drivers/STM32F0xx_HAL_Driver/Src/stm32f0xx_hal_rcc.c **** }
 1563              		.loc 1 1161 1 is_stmt 0 view .LVU455
 1564 0064 09B0     		add	sp, sp, #36
 1565              		@ sp needed
 1566 0066 30BD     		pop	{r4, r5, pc}
 1567              	.L146:
 1568              		.align	2
 1569              	.L145:
 1570 0068 00000000 		.word	.LC2
 1571 006c 14000000 		.word	.LC4
 1572 0070 00100240 		.word	1073876992
 1573 0074 001BB700 		.word	12000000
 1574 0078 00127A00 		.word	8000000
 1575              		.cfi_endproc
 1576              	.LFE46:
 1578              		.section	.text.HAL_RCC_ClockConfig,"ax",%progbits
 1579              		.align	1
 1580              		.global	HAL_RCC_ClockConfig
 1581              		.syntax unified
 1582              		.code	16
 1583              		.thumb_func
 1585              	HAL_RCC_ClockConfig:
 1586              	.LVL109:
 1587              	.LFB42:
 780:Drivers/STM32F0xx_HAL_Driver/Src/stm32f0xx_hal_rcc.c ****   uint32_t tickstart;
 1588              		.loc 1 780 1 is_stmt 1 view -0
 1589              		.cfi_startproc
 1590              		@ args = 0, pretend = 0, frame = 0
 1591              		@ frame_needed = 0, uses_anonymous_args = 0
 780:Drivers/STM32F0xx_HAL_Driver/Src/stm32f0xx_hal_rcc.c ****   uint32_t tickstart;
 1592              		.loc 1 780 1 is_stmt 0 view .LVU457
 1593 0000 70B5     		push	{r4, r5, r6, lr}
 1594              	.LCFI7:
 1595              		.cfi_def_cfa_offset 16
 1596              		.cfi_offset 4, -16
 1597              		.cfi_offset 5, -12
 1598              		.cfi_offset 6, -8
 1599              		.cfi_offset 14, -4
 1600 0002 0400     		movs	r4, r0
 1601 0004 0D00     		movs	r5, r1
 781:Drivers/STM32F0xx_HAL_Driver/Src/stm32f0xx_hal_rcc.c **** 
 1602              		.loc 1 781 3 is_stmt 1 view .LVU458
 784:Drivers/STM32F0xx_HAL_Driver/Src/stm32f0xx_hal_rcc.c ****   {
ARM GAS  C:\Users\Password\AppData\Local\Temp\ccQ2oVJO.s 			page 53


 1603              		.loc 1 784 3 view .LVU459
 784:Drivers/STM32F0xx_HAL_Driver/Src/stm32f0xx_hal_rcc.c ****   {
 1604              		.loc 1 784 5 is_stmt 0 view .LVU460
 1605 0006 0028     		cmp	r0, #0
 1606 0008 00D1     		bne	.LCB1514
 1607 000a 7EE0     		b	.L160	@long jump
 1608              	.LCB1514:
 790:Drivers/STM32F0xx_HAL_Driver/Src/stm32f0xx_hal_rcc.c ****   assert_param(IS_FLASH_LATENCY(FLatency));
 1609              		.loc 1 790 3 is_stmt 1 view .LVU461
 791:Drivers/STM32F0xx_HAL_Driver/Src/stm32f0xx_hal_rcc.c **** 
 1610              		.loc 1 791 3 view .LVU462
 798:Drivers/STM32F0xx_HAL_Driver/Src/stm32f0xx_hal_rcc.c ****   {    
 1611              		.loc 1 798 3 view .LVU463
 798:Drivers/STM32F0xx_HAL_Driver/Src/stm32f0xx_hal_rcc.c ****   {    
 1612              		.loc 1 798 17 is_stmt 0 view .LVU464
 1613 000c 434B     		ldr	r3, .L175
 1614 000e 1A68     		ldr	r2, [r3]
 1615 0010 0123     		movs	r3, #1
 1616 0012 1340     		ands	r3, r2
 798:Drivers/STM32F0xx_HAL_Driver/Src/stm32f0xx_hal_rcc.c ****   {    
 1617              		.loc 1 798 5 view .LVU465
 1618 0014 8B42     		cmp	r3, r1
 1619 0016 0AD2     		bcs	.L149
 801:Drivers/STM32F0xx_HAL_Driver/Src/stm32f0xx_hal_rcc.c ****     
 1620              		.loc 1 801 5 is_stmt 1 view .LVU466
 1621 0018 4049     		ldr	r1, .L175
 1622              	.LVL110:
 801:Drivers/STM32F0xx_HAL_Driver/Src/stm32f0xx_hal_rcc.c ****     
 1623              		.loc 1 801 5 is_stmt 0 view .LVU467
 1624 001a 0B68     		ldr	r3, [r1]
 1625 001c 0122     		movs	r2, #1
 1626 001e 9343     		bics	r3, r2
 1627 0020 2B43     		orrs	r3, r5
 1628 0022 0B60     		str	r3, [r1]
 805:Drivers/STM32F0xx_HAL_Driver/Src/stm32f0xx_hal_rcc.c ****     {
 1629              		.loc 1 805 5 is_stmt 1 view .LVU468
 805:Drivers/STM32F0xx_HAL_Driver/Src/stm32f0xx_hal_rcc.c ****     {
 1630              		.loc 1 805 8 is_stmt 0 view .LVU469
 1631 0024 0B68     		ldr	r3, [r1]
 1632 0026 1A40     		ands	r2, r3
 805:Drivers/STM32F0xx_HAL_Driver/Src/stm32f0xx_hal_rcc.c ****     {
 1633              		.loc 1 805 7 view .LVU470
 1634 0028 AA42     		cmp	r2, r5
 1635 002a 00D0     		beq	.LCB1536
 1636 002c 6FE0     		b	.L161	@long jump
 1637              	.LCB1536:
 1638              	.L149:
 812:Drivers/STM32F0xx_HAL_Driver/Src/stm32f0xx_hal_rcc.c ****   {
 1639              		.loc 1 812 3 is_stmt 1 view .LVU471
 812:Drivers/STM32F0xx_HAL_Driver/Src/stm32f0xx_hal_rcc.c ****   {
 1640              		.loc 1 812 25 is_stmt 0 view .LVU472
 1641 002e 2368     		ldr	r3, [r4]
 812:Drivers/STM32F0xx_HAL_Driver/Src/stm32f0xx_hal_rcc.c ****   {
 1642              		.loc 1 812 5 view .LVU473
 1643 0030 9A07     		lsls	r2, r3, #30
 1644 0032 0ED5     		bpl	.L150
 816:Drivers/STM32F0xx_HAL_Driver/Src/stm32f0xx_hal_rcc.c ****     {
ARM GAS  C:\Users\Password\AppData\Local\Temp\ccQ2oVJO.s 			page 54


 1645              		.loc 1 816 5 is_stmt 1 view .LVU474
 816:Drivers/STM32F0xx_HAL_Driver/Src/stm32f0xx_hal_rcc.c ****     {
 1646              		.loc 1 816 7 is_stmt 0 view .LVU475
 1647 0034 5B07     		lsls	r3, r3, #29
 1648 0036 05D5     		bpl	.L151
 818:Drivers/STM32F0xx_HAL_Driver/Src/stm32f0xx_hal_rcc.c ****     }
 1649              		.loc 1 818 7 is_stmt 1 view .LVU476
 1650 0038 394A     		ldr	r2, .L175+4
 1651 003a 5168     		ldr	r1, [r2, #4]
 1652 003c E023     		movs	r3, #224
 1653 003e DB00     		lsls	r3, r3, #3
 1654 0040 0B43     		orrs	r3, r1
 1655 0042 5360     		str	r3, [r2, #4]
 1656              	.L151:
 822:Drivers/STM32F0xx_HAL_Driver/Src/stm32f0xx_hal_rcc.c ****     MODIFY_REG(RCC->CFGR, RCC_CFGR_HPRE, RCC_ClkInitStruct->AHBCLKDivider);
 1657              		.loc 1 822 5 view .LVU477
 823:Drivers/STM32F0xx_HAL_Driver/Src/stm32f0xx_hal_rcc.c ****   }
 1658              		.loc 1 823 5 view .LVU478
 1659 0044 364A     		ldr	r2, .L175+4
 1660 0046 5368     		ldr	r3, [r2, #4]
 1661 0048 F021     		movs	r1, #240
 1662 004a 8B43     		bics	r3, r1
 1663 004c A168     		ldr	r1, [r4, #8]
 1664 004e 0B43     		orrs	r3, r1
 1665 0050 5360     		str	r3, [r2, #4]
 1666              	.L150:
 827:Drivers/STM32F0xx_HAL_Driver/Src/stm32f0xx_hal_rcc.c ****   {
 1667              		.loc 1 827 3 view .LVU479
 827:Drivers/STM32F0xx_HAL_Driver/Src/stm32f0xx_hal_rcc.c ****   {
 1668              		.loc 1 827 25 is_stmt 0 view .LVU480
 1669 0052 2368     		ldr	r3, [r4]
 827:Drivers/STM32F0xx_HAL_Driver/Src/stm32f0xx_hal_rcc.c ****   {
 1670              		.loc 1 827 5 view .LVU481
 1671 0054 DB07     		lsls	r3, r3, #31
 1672 0056 2DD5     		bpl	.L152
 829:Drivers/STM32F0xx_HAL_Driver/Src/stm32f0xx_hal_rcc.c ****     
 1673              		.loc 1 829 5 is_stmt 1 view .LVU482
 832:Drivers/STM32F0xx_HAL_Driver/Src/stm32f0xx_hal_rcc.c ****     {
 1674              		.loc 1 832 5 view .LVU483
 832:Drivers/STM32F0xx_HAL_Driver/Src/stm32f0xx_hal_rcc.c ****     {
 1675              		.loc 1 832 25 is_stmt 0 view .LVU484
 1676 0058 6368     		ldr	r3, [r4, #4]
 832:Drivers/STM32F0xx_HAL_Driver/Src/stm32f0xx_hal_rcc.c ****     {
 1677              		.loc 1 832 7 view .LVU485
 1678 005a 012B     		cmp	r3, #1
 1679 005c 1ED0     		beq	.L173
 841:Drivers/STM32F0xx_HAL_Driver/Src/stm32f0xx_hal_rcc.c ****     {
 1680              		.loc 1 841 10 is_stmt 1 view .LVU486
 841:Drivers/STM32F0xx_HAL_Driver/Src/stm32f0xx_hal_rcc.c ****     {
 1681              		.loc 1 841 12 is_stmt 0 view .LVU487
 1682 005e 022B     		cmp	r3, #2
 1683 0060 22D0     		beq	.L174
 864:Drivers/STM32F0xx_HAL_Driver/Src/stm32f0xx_hal_rcc.c ****       {
 1684              		.loc 1 864 7 is_stmt 1 view .LVU488
 864:Drivers/STM32F0xx_HAL_Driver/Src/stm32f0xx_hal_rcc.c ****       {
 1685              		.loc 1 864 10 is_stmt 0 view .LVU489
 1686 0062 2F4A     		ldr	r2, .L175+4
ARM GAS  C:\Users\Password\AppData\Local\Temp\ccQ2oVJO.s 			page 55


 1687 0064 1268     		ldr	r2, [r2]
 864:Drivers/STM32F0xx_HAL_Driver/Src/stm32f0xx_hal_rcc.c ****       {
 1688              		.loc 1 864 9 view .LVU490
 1689 0066 9207     		lsls	r2, r2, #30
 1690 0068 53D5     		bpl	.L164
 1691              	.L154:
 869:Drivers/STM32F0xx_HAL_Driver/Src/stm32f0xx_hal_rcc.c **** 
 1692              		.loc 1 869 5 is_stmt 1 view .LVU491
 1693 006a 2D49     		ldr	r1, .L175+4
 1694 006c 4A68     		ldr	r2, [r1, #4]
 1695 006e 0320     		movs	r0, #3
 1696              	.LVL111:
 869:Drivers/STM32F0xx_HAL_Driver/Src/stm32f0xx_hal_rcc.c **** 
 1697              		.loc 1 869 5 is_stmt 0 view .LVU492
 1698 0070 8243     		bics	r2, r0
 1699 0072 1343     		orrs	r3, r2
 1700 0074 4B60     		str	r3, [r1, #4]
 872:Drivers/STM32F0xx_HAL_Driver/Src/stm32f0xx_hal_rcc.c ****     
 1701              		.loc 1 872 5 is_stmt 1 view .LVU493
 872:Drivers/STM32F0xx_HAL_Driver/Src/stm32f0xx_hal_rcc.c ****     
 1702              		.loc 1 872 17 is_stmt 0 view .LVU494
 1703 0076 FFF7FEFF 		bl	HAL_GetTick
 1704              	.LVL112:
 1705 007a 0600     		movs	r6, r0
 1706              	.LVL113:
 874:Drivers/STM32F0xx_HAL_Driver/Src/stm32f0xx_hal_rcc.c ****     {
 1707              		.loc 1 874 5 is_stmt 1 view .LVU495
 1708              	.L156:
 874:Drivers/STM32F0xx_HAL_Driver/Src/stm32f0xx_hal_rcc.c ****     {
 1709              		.loc 1 874 42 view .LVU496
 874:Drivers/STM32F0xx_HAL_Driver/Src/stm32f0xx_hal_rcc.c ****     {
 1710              		.loc 1 874 12 is_stmt 0 view .LVU497
 1711 007c 284B     		ldr	r3, .L175+4
 1712 007e 5B68     		ldr	r3, [r3, #4]
 1713 0080 0C22     		movs	r2, #12
 1714 0082 1A40     		ands	r2, r3
 874:Drivers/STM32F0xx_HAL_Driver/Src/stm32f0xx_hal_rcc.c ****     {
 1715              		.loc 1 874 63 view .LVU498
 1716 0084 6368     		ldr	r3, [r4, #4]
 874:Drivers/STM32F0xx_HAL_Driver/Src/stm32f0xx_hal_rcc.c ****     {
 1717              		.loc 1 874 78 view .LVU499
 1718 0086 9B00     		lsls	r3, r3, #2
 874:Drivers/STM32F0xx_HAL_Driver/Src/stm32f0xx_hal_rcc.c ****     {
 1719              		.loc 1 874 42 view .LVU500
 1720 0088 9A42     		cmp	r2, r3
 1721 008a 13D0     		beq	.L152
 876:Drivers/STM32F0xx_HAL_Driver/Src/stm32f0xx_hal_rcc.c ****       {
 1722              		.loc 1 876 7 is_stmt 1 view .LVU501
 876:Drivers/STM32F0xx_HAL_Driver/Src/stm32f0xx_hal_rcc.c ****       {
 1723              		.loc 1 876 11 is_stmt 0 view .LVU502
 1724 008c FFF7FEFF 		bl	HAL_GetTick
 1725              	.LVL114:
 876:Drivers/STM32F0xx_HAL_Driver/Src/stm32f0xx_hal_rcc.c ****       {
 1726              		.loc 1 876 25 view .LVU503
 1727 0090 801B     		subs	r0, r0, r6
 876:Drivers/STM32F0xx_HAL_Driver/Src/stm32f0xx_hal_rcc.c ****       {
 1728              		.loc 1 876 9 view .LVU504
ARM GAS  C:\Users\Password\AppData\Local\Temp\ccQ2oVJO.s 			page 56


 1729 0092 244B     		ldr	r3, .L175+8
 1730 0094 9842     		cmp	r0, r3
 1731 0096 F1D9     		bls	.L156
 878:Drivers/STM32F0xx_HAL_Driver/Src/stm32f0xx_hal_rcc.c ****       }
 1732              		.loc 1 878 16 view .LVU505
 1733 0098 0320     		movs	r0, #3
 1734 009a 35E0     		b	.L148
 1735              	.LVL115:
 1736              	.L173:
 835:Drivers/STM32F0xx_HAL_Driver/Src/stm32f0xx_hal_rcc.c ****       {
 1737              		.loc 1 835 7 is_stmt 1 view .LVU506
 835:Drivers/STM32F0xx_HAL_Driver/Src/stm32f0xx_hal_rcc.c ****       {
 1738              		.loc 1 835 10 is_stmt 0 view .LVU507
 1739 009c 204A     		ldr	r2, .L175+4
 1740 009e 1268     		ldr	r2, [r2]
 835:Drivers/STM32F0xx_HAL_Driver/Src/stm32f0xx_hal_rcc.c ****       {
 1741              		.loc 1 835 9 view .LVU508
 1742 00a0 9203     		lsls	r2, r2, #14
 1743 00a2 E2D4     		bmi	.L154
 837:Drivers/STM32F0xx_HAL_Driver/Src/stm32f0xx_hal_rcc.c ****       }
 1744              		.loc 1 837 16 view .LVU509
 1745 00a4 0120     		movs	r0, #1
 1746              	.LVL116:
 837:Drivers/STM32F0xx_HAL_Driver/Src/stm32f0xx_hal_rcc.c ****       }
 1747              		.loc 1 837 16 view .LVU510
 1748 00a6 2FE0     		b	.L148
 1749              	.LVL117:
 1750              	.L174:
 844:Drivers/STM32F0xx_HAL_Driver/Src/stm32f0xx_hal_rcc.c ****       {
 1751              		.loc 1 844 7 is_stmt 1 view .LVU511
 844:Drivers/STM32F0xx_HAL_Driver/Src/stm32f0xx_hal_rcc.c ****       {
 1752              		.loc 1 844 10 is_stmt 0 view .LVU512
 1753 00a8 1D4A     		ldr	r2, .L175+4
 1754 00aa 1268     		ldr	r2, [r2]
 844:Drivers/STM32F0xx_HAL_Driver/Src/stm32f0xx_hal_rcc.c ****       {
 1755              		.loc 1 844 9 view .LVU513
 1756 00ac 9201     		lsls	r2, r2, #6
 1757 00ae DCD4     		bmi	.L154
 846:Drivers/STM32F0xx_HAL_Driver/Src/stm32f0xx_hal_rcc.c ****       }
 1758              		.loc 1 846 16 view .LVU514
 1759 00b0 0120     		movs	r0, #1
 1760              	.LVL118:
 846:Drivers/STM32F0xx_HAL_Driver/Src/stm32f0xx_hal_rcc.c ****       }
 1761              		.loc 1 846 16 view .LVU515
 1762 00b2 29E0     		b	.L148
 1763              	.L152:
 884:Drivers/STM32F0xx_HAL_Driver/Src/stm32f0xx_hal_rcc.c ****   {    
 1764              		.loc 1 884 3 is_stmt 1 view .LVU516
 884:Drivers/STM32F0xx_HAL_Driver/Src/stm32f0xx_hal_rcc.c ****   {    
 1765              		.loc 1 884 17 is_stmt 0 view .LVU517
 1766 00b4 194B     		ldr	r3, .L175
 1767 00b6 1A68     		ldr	r2, [r3]
 1768 00b8 0123     		movs	r3, #1
 1769 00ba 1340     		ands	r3, r2
 884:Drivers/STM32F0xx_HAL_Driver/Src/stm32f0xx_hal_rcc.c ****   {    
 1770              		.loc 1 884 5 view .LVU518
 1771 00bc AB42     		cmp	r3, r5
ARM GAS  C:\Users\Password\AppData\Local\Temp\ccQ2oVJO.s 			page 57


 1772 00be 09D9     		bls	.L158
 887:Drivers/STM32F0xx_HAL_Driver/Src/stm32f0xx_hal_rcc.c ****     
 1773              		.loc 1 887 5 is_stmt 1 view .LVU519
 1774 00c0 1649     		ldr	r1, .L175
 1775 00c2 0B68     		ldr	r3, [r1]
 1776 00c4 0122     		movs	r2, #1
 1777 00c6 9343     		bics	r3, r2
 1778 00c8 2B43     		orrs	r3, r5
 1779 00ca 0B60     		str	r3, [r1]
 891:Drivers/STM32F0xx_HAL_Driver/Src/stm32f0xx_hal_rcc.c ****     {
 1780              		.loc 1 891 5 view .LVU520
 891:Drivers/STM32F0xx_HAL_Driver/Src/stm32f0xx_hal_rcc.c ****     {
 1781              		.loc 1 891 8 is_stmt 0 view .LVU521
 1782 00cc 0B68     		ldr	r3, [r1]
 1783 00ce 1A40     		ands	r2, r3
 891:Drivers/STM32F0xx_HAL_Driver/Src/stm32f0xx_hal_rcc.c ****     {
 1784              		.loc 1 891 7 view .LVU522
 1785 00d0 AA42     		cmp	r2, r5
 1786 00d2 20D1     		bne	.L166
 1787              	.L158:
 898:Drivers/STM32F0xx_HAL_Driver/Src/stm32f0xx_hal_rcc.c ****   {
 1788              		.loc 1 898 3 is_stmt 1 view .LVU523
 898:Drivers/STM32F0xx_HAL_Driver/Src/stm32f0xx_hal_rcc.c ****   {
 1789              		.loc 1 898 25 is_stmt 0 view .LVU524
 1790 00d4 2368     		ldr	r3, [r4]
 898:Drivers/STM32F0xx_HAL_Driver/Src/stm32f0xx_hal_rcc.c ****   {
 1791              		.loc 1 898 5 view .LVU525
 1792 00d6 5B07     		lsls	r3, r3, #29
 1793 00d8 06D5     		bpl	.L159
 900:Drivers/STM32F0xx_HAL_Driver/Src/stm32f0xx_hal_rcc.c ****     MODIFY_REG(RCC->CFGR, RCC_CFGR_PPRE, RCC_ClkInitStruct->APB1CLKDivider);
 1794              		.loc 1 900 5 is_stmt 1 view .LVU526
 901:Drivers/STM32F0xx_HAL_Driver/Src/stm32f0xx_hal_rcc.c ****   }
 1795              		.loc 1 901 5 view .LVU527
 1796 00da 114A     		ldr	r2, .L175+4
 1797 00dc 5368     		ldr	r3, [r2, #4]
 1798 00de 1249     		ldr	r1, .L175+12
 1799 00e0 0B40     		ands	r3, r1
 1800 00e2 E168     		ldr	r1, [r4, #12]
 1801 00e4 0B43     		orrs	r3, r1
 1802 00e6 5360     		str	r3, [r2, #4]
 1803              	.L159:
 905:Drivers/STM32F0xx_HAL_Driver/Src/stm32f0xx_hal_rcc.c **** 
 1804              		.loc 1 905 3 view .LVU528
 905:Drivers/STM32F0xx_HAL_Driver/Src/stm32f0xx_hal_rcc.c **** 
 1805              		.loc 1 905 21 is_stmt 0 view .LVU529
 1806 00e8 FFF7FEFF 		bl	HAL_RCC_GetSysClockFreq
 1807              	.LVL119:
 905:Drivers/STM32F0xx_HAL_Driver/Src/stm32f0xx_hal_rcc.c **** 
 1808              		.loc 1 905 68 view .LVU530
 1809 00ec 0C4B     		ldr	r3, .L175+4
 1810 00ee 5A68     		ldr	r2, [r3, #4]
 905:Drivers/STM32F0xx_HAL_Driver/Src/stm32f0xx_hal_rcc.c **** 
 1811              		.loc 1 905 91 view .LVU531
 1812 00f0 1209     		lsrs	r2, r2, #4
 1813 00f2 0F23     		movs	r3, #15
 1814 00f4 1340     		ands	r3, r2
 905:Drivers/STM32F0xx_HAL_Driver/Src/stm32f0xx_hal_rcc.c **** 
ARM GAS  C:\Users\Password\AppData\Local\Temp\ccQ2oVJO.s 			page 58


 1815              		.loc 1 905 63 view .LVU532
 1816 00f6 0D4A     		ldr	r2, .L175+16
 1817 00f8 D35C     		ldrb	r3, [r2, r3]
 905:Drivers/STM32F0xx_HAL_Driver/Src/stm32f0xx_hal_rcc.c **** 
 1818              		.loc 1 905 47 view .LVU533
 1819 00fa D840     		lsrs	r0, r0, r3
 905:Drivers/STM32F0xx_HAL_Driver/Src/stm32f0xx_hal_rcc.c **** 
 1820              		.loc 1 905 19 view .LVU534
 1821 00fc 0C4B     		ldr	r3, .L175+20
 1822 00fe 1860     		str	r0, [r3]
 908:Drivers/STM32F0xx_HAL_Driver/Src/stm32f0xx_hal_rcc.c ****   
 1823              		.loc 1 908 3 is_stmt 1 view .LVU535
 1824 0100 0320     		movs	r0, #3
 1825 0102 FFF7FEFF 		bl	HAL_InitTick
 1826              	.LVL120:
 910:Drivers/STM32F0xx_HAL_Driver/Src/stm32f0xx_hal_rcc.c **** }
 1827              		.loc 1 910 3 view .LVU536
 910:Drivers/STM32F0xx_HAL_Driver/Src/stm32f0xx_hal_rcc.c **** }
 1828              		.loc 1 910 10 is_stmt 0 view .LVU537
 1829 0106 0020     		movs	r0, #0
 1830              	.L148:
 911:Drivers/STM32F0xx_HAL_Driver/Src/stm32f0xx_hal_rcc.c **** 
 1831              		.loc 1 911 1 view .LVU538
 1832              		@ sp needed
 1833              	.LVL121:
 1834              	.LVL122:
 911:Drivers/STM32F0xx_HAL_Driver/Src/stm32f0xx_hal_rcc.c **** 
 1835              		.loc 1 911 1 view .LVU539
 1836 0108 70BD     		pop	{r4, r5, r6, pc}
 1837              	.LVL123:
 1838              	.L160:
 786:Drivers/STM32F0xx_HAL_Driver/Src/stm32f0xx_hal_rcc.c ****   }
 1839              		.loc 1 786 12 view .LVU540
 1840 010a 0120     		movs	r0, #1
 1841              	.LVL124:
 786:Drivers/STM32F0xx_HAL_Driver/Src/stm32f0xx_hal_rcc.c ****   }
 1842              		.loc 1 786 12 view .LVU541
 1843 010c FCE7     		b	.L148
 1844              	.LVL125:
 1845              	.L161:
 807:Drivers/STM32F0xx_HAL_Driver/Src/stm32f0xx_hal_rcc.c ****     }
 1846              		.loc 1 807 14 view .LVU542
 1847 010e 0120     		movs	r0, #1
 1848              	.LVL126:
 807:Drivers/STM32F0xx_HAL_Driver/Src/stm32f0xx_hal_rcc.c ****     }
 1849              		.loc 1 807 14 view .LVU543
 1850 0110 FAE7     		b	.L148
 1851              	.LVL127:
 1852              	.L164:
 866:Drivers/STM32F0xx_HAL_Driver/Src/stm32f0xx_hal_rcc.c ****       }
 1853              		.loc 1 866 16 view .LVU544
 1854 0112 0120     		movs	r0, #1
 1855              	.LVL128:
 866:Drivers/STM32F0xx_HAL_Driver/Src/stm32f0xx_hal_rcc.c ****       }
 1856              		.loc 1 866 16 view .LVU545
 1857 0114 F8E7     		b	.L148
 1858              	.L166:
ARM GAS  C:\Users\Password\AppData\Local\Temp\ccQ2oVJO.s 			page 59


 893:Drivers/STM32F0xx_HAL_Driver/Src/stm32f0xx_hal_rcc.c ****     }
 1859              		.loc 1 893 14 view .LVU546
 1860 0116 0120     		movs	r0, #1
 1861 0118 F6E7     		b	.L148
 1862              	.L176:
 1863 011a C046     		.align	2
 1864              	.L175:
 1865 011c 00200240 		.word	1073881088
 1866 0120 00100240 		.word	1073876992
 1867 0124 88130000 		.word	5000
 1868 0128 FFF8FFFF 		.word	-1793
 1869 012c 00000000 		.word	AHBPrescTable
 1870 0130 00000000 		.word	SystemCoreClock
 1871              		.cfi_endproc
 1872              	.LFE42:
 1874              		.section	.text.HAL_RCC_GetHCLKFreq,"ax",%progbits
 1875              		.align	1
 1876              		.global	HAL_RCC_GetHCLKFreq
 1877              		.syntax unified
 1878              		.code	16
 1879              		.thumb_func
 1881              	HAL_RCC_GetHCLKFreq:
 1882              	.LFB47:
1162:Drivers/STM32F0xx_HAL_Driver/Src/stm32f0xx_hal_rcc.c **** 
1163:Drivers/STM32F0xx_HAL_Driver/Src/stm32f0xx_hal_rcc.c **** /**
1164:Drivers/STM32F0xx_HAL_Driver/Src/stm32f0xx_hal_rcc.c ****   * @brief  Returns the HCLK frequency     
1165:Drivers/STM32F0xx_HAL_Driver/Src/stm32f0xx_hal_rcc.c ****   * @note   Each time HCLK changes, this function must be called to update the
1166:Drivers/STM32F0xx_HAL_Driver/Src/stm32f0xx_hal_rcc.c ****   *         right HCLK value. Otherwise, any configuration based on this function will be incorrect
1167:Drivers/STM32F0xx_HAL_Driver/Src/stm32f0xx_hal_rcc.c ****   * 
1168:Drivers/STM32F0xx_HAL_Driver/Src/stm32f0xx_hal_rcc.c ****   * @note   The SystemCoreClock CMSIS variable is used to store System Clock Frequency 
1169:Drivers/STM32F0xx_HAL_Driver/Src/stm32f0xx_hal_rcc.c ****   *         and updated within this function
1170:Drivers/STM32F0xx_HAL_Driver/Src/stm32f0xx_hal_rcc.c ****   * @retval HCLK frequency
1171:Drivers/STM32F0xx_HAL_Driver/Src/stm32f0xx_hal_rcc.c ****   */
1172:Drivers/STM32F0xx_HAL_Driver/Src/stm32f0xx_hal_rcc.c **** uint32_t HAL_RCC_GetHCLKFreq(void)
1173:Drivers/STM32F0xx_HAL_Driver/Src/stm32f0xx_hal_rcc.c **** {
 1883              		.loc 1 1173 1 is_stmt 1 view -0
 1884              		.cfi_startproc
 1885              		@ args = 0, pretend = 0, frame = 0
 1886              		@ frame_needed = 0, uses_anonymous_args = 0
 1887              		@ link register save eliminated.
1174:Drivers/STM32F0xx_HAL_Driver/Src/stm32f0xx_hal_rcc.c ****   return SystemCoreClock;
 1888              		.loc 1 1174 3 view .LVU548
 1889              		.loc 1 1174 10 is_stmt 0 view .LVU549
 1890 0000 014B     		ldr	r3, .L178
 1891 0002 1868     		ldr	r0, [r3]
1175:Drivers/STM32F0xx_HAL_Driver/Src/stm32f0xx_hal_rcc.c **** }
 1892              		.loc 1 1175 1 view .LVU550
 1893              		@ sp needed
 1894 0004 7047     		bx	lr
 1895              	.L179:
 1896 0006 C046     		.align	2
 1897              	.L178:
 1898 0008 00000000 		.word	SystemCoreClock
 1899              		.cfi_endproc
 1900              	.LFE47:
 1902              		.section	.text.HAL_RCC_GetPCLK1Freq,"ax",%progbits
 1903              		.align	1
ARM GAS  C:\Users\Password\AppData\Local\Temp\ccQ2oVJO.s 			page 60


 1904              		.global	HAL_RCC_GetPCLK1Freq
 1905              		.syntax unified
 1906              		.code	16
 1907              		.thumb_func
 1909              	HAL_RCC_GetPCLK1Freq:
 1910              	.LFB48:
1176:Drivers/STM32F0xx_HAL_Driver/Src/stm32f0xx_hal_rcc.c **** 
1177:Drivers/STM32F0xx_HAL_Driver/Src/stm32f0xx_hal_rcc.c **** /**
1178:Drivers/STM32F0xx_HAL_Driver/Src/stm32f0xx_hal_rcc.c ****   * @brief  Returns the PCLK1 frequency     
1179:Drivers/STM32F0xx_HAL_Driver/Src/stm32f0xx_hal_rcc.c ****   * @note   Each time PCLK1 changes, this function must be called to update the
1180:Drivers/STM32F0xx_HAL_Driver/Src/stm32f0xx_hal_rcc.c ****   *         right PCLK1 value. Otherwise, any configuration based on this function will be incorrec
1181:Drivers/STM32F0xx_HAL_Driver/Src/stm32f0xx_hal_rcc.c ****   * @retval PCLK1 frequency
1182:Drivers/STM32F0xx_HAL_Driver/Src/stm32f0xx_hal_rcc.c ****   */
1183:Drivers/STM32F0xx_HAL_Driver/Src/stm32f0xx_hal_rcc.c **** uint32_t HAL_RCC_GetPCLK1Freq(void)
1184:Drivers/STM32F0xx_HAL_Driver/Src/stm32f0xx_hal_rcc.c **** {
 1911              		.loc 1 1184 1 is_stmt 1 view -0
 1912              		.cfi_startproc
 1913              		@ args = 0, pretend = 0, frame = 0
 1914              		@ frame_needed = 0, uses_anonymous_args = 0
 1915 0000 10B5     		push	{r4, lr}
 1916              	.LCFI8:
 1917              		.cfi_def_cfa_offset 8
 1918              		.cfi_offset 4, -8
 1919              		.cfi_offset 14, -4
1185:Drivers/STM32F0xx_HAL_Driver/Src/stm32f0xx_hal_rcc.c ****   /* Get HCLK source and Compute PCLK1 frequency ---------------------------*/
1186:Drivers/STM32F0xx_HAL_Driver/Src/stm32f0xx_hal_rcc.c ****   return (HAL_RCC_GetHCLKFreq() >> APBPrescTable[(RCC->CFGR & RCC_CFGR_PPRE) >> RCC_CFGR_PPRE_BITNU
 1920              		.loc 1 1186 3 view .LVU552
 1921              		.loc 1 1186 11 is_stmt 0 view .LVU553
 1922 0002 FFF7FEFF 		bl	HAL_RCC_GetHCLKFreq
 1923              	.LVL129:
 1924              		.loc 1 1186 54 view .LVU554
 1925 0006 044B     		ldr	r3, .L181
 1926 0008 5A68     		ldr	r2, [r3, #4]
 1927              		.loc 1 1186 78 view .LVU555
 1928 000a 120A     		lsrs	r2, r2, #8
 1929 000c 0723     		movs	r3, #7
 1930 000e 1340     		ands	r3, r2
 1931              		.loc 1 1186 49 view .LVU556
 1932 0010 024A     		ldr	r2, .L181+4
 1933 0012 D35C     		ldrb	r3, [r2, r3]
 1934              		.loc 1 1186 33 view .LVU557
 1935 0014 D840     		lsrs	r0, r0, r3
1187:Drivers/STM32F0xx_HAL_Driver/Src/stm32f0xx_hal_rcc.c **** }    
 1936              		.loc 1 1187 1 view .LVU558
 1937              		@ sp needed
 1938 0016 10BD     		pop	{r4, pc}
 1939              	.L182:
 1940              		.align	2
 1941              	.L181:
 1942 0018 00100240 		.word	1073876992
 1943 001c 00000000 		.word	APBPrescTable
 1944              		.cfi_endproc
 1945              	.LFE48:
 1947              		.section	.text.HAL_RCC_GetOscConfig,"ax",%progbits
 1948              		.align	1
 1949              		.global	HAL_RCC_GetOscConfig
 1950              		.syntax unified
ARM GAS  C:\Users\Password\AppData\Local\Temp\ccQ2oVJO.s 			page 61


 1951              		.code	16
 1952              		.thumb_func
 1954              	HAL_RCC_GetOscConfig:
 1955              	.LVL130:
 1956              	.LFB49:
1188:Drivers/STM32F0xx_HAL_Driver/Src/stm32f0xx_hal_rcc.c **** 
1189:Drivers/STM32F0xx_HAL_Driver/Src/stm32f0xx_hal_rcc.c **** /**
1190:Drivers/STM32F0xx_HAL_Driver/Src/stm32f0xx_hal_rcc.c ****   * @brief  Configures the RCC_OscInitStruct according to the internal 
1191:Drivers/STM32F0xx_HAL_Driver/Src/stm32f0xx_hal_rcc.c ****   * RCC configuration registers.
1192:Drivers/STM32F0xx_HAL_Driver/Src/stm32f0xx_hal_rcc.c ****   * @param  RCC_OscInitStruct pointer to an RCC_OscInitTypeDef structure that 
1193:Drivers/STM32F0xx_HAL_Driver/Src/stm32f0xx_hal_rcc.c ****   * will be configured.
1194:Drivers/STM32F0xx_HAL_Driver/Src/stm32f0xx_hal_rcc.c ****   * @retval None
1195:Drivers/STM32F0xx_HAL_Driver/Src/stm32f0xx_hal_rcc.c ****   */
1196:Drivers/STM32F0xx_HAL_Driver/Src/stm32f0xx_hal_rcc.c **** void HAL_RCC_GetOscConfig(RCC_OscInitTypeDef  *RCC_OscInitStruct)
1197:Drivers/STM32F0xx_HAL_Driver/Src/stm32f0xx_hal_rcc.c **** {
 1957              		.loc 1 1197 1 is_stmt 1 view -0
 1958              		.cfi_startproc
 1959              		@ args = 0, pretend = 0, frame = 0
 1960              		@ frame_needed = 0, uses_anonymous_args = 0
 1961              		@ link register save eliminated.
1198:Drivers/STM32F0xx_HAL_Driver/Src/stm32f0xx_hal_rcc.c ****   /* Check the parameters */
1199:Drivers/STM32F0xx_HAL_Driver/Src/stm32f0xx_hal_rcc.c ****   assert_param(RCC_OscInitStruct != NULL);
 1962              		.loc 1 1199 3 view .LVU560
1200:Drivers/STM32F0xx_HAL_Driver/Src/stm32f0xx_hal_rcc.c **** 
1201:Drivers/STM32F0xx_HAL_Driver/Src/stm32f0xx_hal_rcc.c ****   /* Set all possible values for the Oscillator type parameter ---------------*/
1202:Drivers/STM32F0xx_HAL_Driver/Src/stm32f0xx_hal_rcc.c ****   RCC_OscInitStruct->OscillatorType = RCC_OSCILLATORTYPE_HSE | RCC_OSCILLATORTYPE_HSI  \
 1963              		.loc 1 1202 3 view .LVU561
 1964              		.loc 1 1202 37 is_stmt 0 view .LVU562
 1965 0000 1F23     		movs	r3, #31
 1966 0002 0360     		str	r3, [r0]
1203:Drivers/STM32F0xx_HAL_Driver/Src/stm32f0xx_hal_rcc.c ****                   | RCC_OSCILLATORTYPE_LSE | RCC_OSCILLATORTYPE_LSI | RCC_OSCILLATORTYPE_HSI14;
1204:Drivers/STM32F0xx_HAL_Driver/Src/stm32f0xx_hal_rcc.c **** #if defined(RCC_HSI48_SUPPORT)
1205:Drivers/STM32F0xx_HAL_Driver/Src/stm32f0xx_hal_rcc.c ****   RCC_OscInitStruct->OscillatorType |= RCC_OSCILLATORTYPE_HSI48;
1206:Drivers/STM32F0xx_HAL_Driver/Src/stm32f0xx_hal_rcc.c **** #endif /* RCC_HSI48_SUPPORT */
1207:Drivers/STM32F0xx_HAL_Driver/Src/stm32f0xx_hal_rcc.c **** 
1208:Drivers/STM32F0xx_HAL_Driver/Src/stm32f0xx_hal_rcc.c **** 
1209:Drivers/STM32F0xx_HAL_Driver/Src/stm32f0xx_hal_rcc.c ****   /* Get the HSE configuration -----------------------------------------------*/
1210:Drivers/STM32F0xx_HAL_Driver/Src/stm32f0xx_hal_rcc.c ****   if((RCC->CR &RCC_CR_HSEBYP) == RCC_CR_HSEBYP)
 1967              		.loc 1 1210 3 is_stmt 1 view .LVU563
 1968              		.loc 1 1210 10 is_stmt 0 view .LVU564
 1969 0004 2E4B     		ldr	r3, .L198
 1970 0006 1B68     		ldr	r3, [r3]
 1971              		.loc 1 1210 5 view .LVU565
 1972 0008 5B03     		lsls	r3, r3, #13
 1973 000a 39D5     		bpl	.L184
1211:Drivers/STM32F0xx_HAL_Driver/Src/stm32f0xx_hal_rcc.c ****   {
1212:Drivers/STM32F0xx_HAL_Driver/Src/stm32f0xx_hal_rcc.c ****     RCC_OscInitStruct->HSEState = RCC_HSE_BYPASS;
 1974              		.loc 1 1212 5 is_stmt 1 view .LVU566
 1975              		.loc 1 1212 33 is_stmt 0 view .LVU567
 1976 000c 0523     		movs	r3, #5
 1977 000e 4360     		str	r3, [r0, #4]
 1978              	.L185:
1213:Drivers/STM32F0xx_HAL_Driver/Src/stm32f0xx_hal_rcc.c ****   }
1214:Drivers/STM32F0xx_HAL_Driver/Src/stm32f0xx_hal_rcc.c ****   else if((RCC->CR &RCC_CR_HSEON) == RCC_CR_HSEON)
1215:Drivers/STM32F0xx_HAL_Driver/Src/stm32f0xx_hal_rcc.c ****   {
1216:Drivers/STM32F0xx_HAL_Driver/Src/stm32f0xx_hal_rcc.c ****     RCC_OscInitStruct->HSEState = RCC_HSE_ON;
1217:Drivers/STM32F0xx_HAL_Driver/Src/stm32f0xx_hal_rcc.c ****   }
ARM GAS  C:\Users\Password\AppData\Local\Temp\ccQ2oVJO.s 			page 62


1218:Drivers/STM32F0xx_HAL_Driver/Src/stm32f0xx_hal_rcc.c ****   else
1219:Drivers/STM32F0xx_HAL_Driver/Src/stm32f0xx_hal_rcc.c ****   {
1220:Drivers/STM32F0xx_HAL_Driver/Src/stm32f0xx_hal_rcc.c ****     RCC_OscInitStruct->HSEState = RCC_HSE_OFF;
1221:Drivers/STM32F0xx_HAL_Driver/Src/stm32f0xx_hal_rcc.c ****   }
1222:Drivers/STM32F0xx_HAL_Driver/Src/stm32f0xx_hal_rcc.c **** 
1223:Drivers/STM32F0xx_HAL_Driver/Src/stm32f0xx_hal_rcc.c ****   /* Get the HSI configuration -----------------------------------------------*/
1224:Drivers/STM32F0xx_HAL_Driver/Src/stm32f0xx_hal_rcc.c ****   if((RCC->CR &RCC_CR_HSION) == RCC_CR_HSION)
 1979              		.loc 1 1224 3 is_stmt 1 view .LVU568
 1980              		.loc 1 1224 10 is_stmt 0 view .LVU569
 1981 0010 2B4B     		ldr	r3, .L198
 1982 0012 1B68     		ldr	r3, [r3]
 1983              		.loc 1 1224 5 view .LVU570
 1984 0014 DB07     		lsls	r3, r3, #31
 1985 0016 3DD5     		bpl	.L187
1225:Drivers/STM32F0xx_HAL_Driver/Src/stm32f0xx_hal_rcc.c ****   {
1226:Drivers/STM32F0xx_HAL_Driver/Src/stm32f0xx_hal_rcc.c ****     RCC_OscInitStruct->HSIState = RCC_HSI_ON;
 1986              		.loc 1 1226 5 is_stmt 1 view .LVU571
 1987              		.loc 1 1226 33 is_stmt 0 view .LVU572
 1988 0018 0123     		movs	r3, #1
 1989 001a C360     		str	r3, [r0, #12]
 1990              	.L188:
1227:Drivers/STM32F0xx_HAL_Driver/Src/stm32f0xx_hal_rcc.c ****   }
1228:Drivers/STM32F0xx_HAL_Driver/Src/stm32f0xx_hal_rcc.c ****   else
1229:Drivers/STM32F0xx_HAL_Driver/Src/stm32f0xx_hal_rcc.c ****   {
1230:Drivers/STM32F0xx_HAL_Driver/Src/stm32f0xx_hal_rcc.c ****     RCC_OscInitStruct->HSIState = RCC_HSI_OFF;
1231:Drivers/STM32F0xx_HAL_Driver/Src/stm32f0xx_hal_rcc.c ****   }
1232:Drivers/STM32F0xx_HAL_Driver/Src/stm32f0xx_hal_rcc.c ****   
1233:Drivers/STM32F0xx_HAL_Driver/Src/stm32f0xx_hal_rcc.c ****   RCC_OscInitStruct->HSICalibrationValue = (uint32_t)((RCC->CR &RCC_CR_HSITRIM) >> RCC_CR_HSITRIM_B
 1991              		.loc 1 1233 3 is_stmt 1 view .LVU573
 1992              		.loc 1 1233 59 is_stmt 0 view .LVU574
 1993 001c 2849     		ldr	r1, .L198
 1994 001e 0A68     		ldr	r2, [r1]
 1995              		.loc 1 1233 44 view .LVU575
 1996 0020 D208     		lsrs	r2, r2, #3
 1997 0022 1F23     		movs	r3, #31
 1998 0024 1340     		ands	r3, r2
 1999              		.loc 1 1233 42 view .LVU576
 2000 0026 0361     		str	r3, [r0, #16]
1234:Drivers/STM32F0xx_HAL_Driver/Src/stm32f0xx_hal_rcc.c ****   
1235:Drivers/STM32F0xx_HAL_Driver/Src/stm32f0xx_hal_rcc.c ****   /* Get the LSE configuration -----------------------------------------------*/
1236:Drivers/STM32F0xx_HAL_Driver/Src/stm32f0xx_hal_rcc.c ****   if((RCC->BDCR &RCC_BDCR_LSEBYP) == RCC_BDCR_LSEBYP)
 2001              		.loc 1 1236 3 is_stmt 1 view .LVU577
 2002              		.loc 1 1236 10 is_stmt 0 view .LVU578
 2003 0028 0B6A     		ldr	r3, [r1, #32]
 2004              		.loc 1 1236 5 view .LVU579
 2005 002a 5B07     		lsls	r3, r3, #29
 2006 002c 35D5     		bpl	.L189
1237:Drivers/STM32F0xx_HAL_Driver/Src/stm32f0xx_hal_rcc.c ****   {
1238:Drivers/STM32F0xx_HAL_Driver/Src/stm32f0xx_hal_rcc.c ****     RCC_OscInitStruct->LSEState = RCC_LSE_BYPASS;
 2007              		.loc 1 1238 5 is_stmt 1 view .LVU580
 2008              		.loc 1 1238 33 is_stmt 0 view .LVU581
 2009 002e 0523     		movs	r3, #5
 2010 0030 8360     		str	r3, [r0, #8]
 2011              	.L190:
1239:Drivers/STM32F0xx_HAL_Driver/Src/stm32f0xx_hal_rcc.c ****   }
1240:Drivers/STM32F0xx_HAL_Driver/Src/stm32f0xx_hal_rcc.c ****   else if((RCC->BDCR &RCC_BDCR_LSEON) == RCC_BDCR_LSEON)
1241:Drivers/STM32F0xx_HAL_Driver/Src/stm32f0xx_hal_rcc.c ****   {
ARM GAS  C:\Users\Password\AppData\Local\Temp\ccQ2oVJO.s 			page 63


1242:Drivers/STM32F0xx_HAL_Driver/Src/stm32f0xx_hal_rcc.c ****     RCC_OscInitStruct->LSEState = RCC_LSE_ON;
1243:Drivers/STM32F0xx_HAL_Driver/Src/stm32f0xx_hal_rcc.c ****   }
1244:Drivers/STM32F0xx_HAL_Driver/Src/stm32f0xx_hal_rcc.c ****   else
1245:Drivers/STM32F0xx_HAL_Driver/Src/stm32f0xx_hal_rcc.c ****   {
1246:Drivers/STM32F0xx_HAL_Driver/Src/stm32f0xx_hal_rcc.c ****     RCC_OscInitStruct->LSEState = RCC_LSE_OFF;
1247:Drivers/STM32F0xx_HAL_Driver/Src/stm32f0xx_hal_rcc.c ****   }
1248:Drivers/STM32F0xx_HAL_Driver/Src/stm32f0xx_hal_rcc.c ****   
1249:Drivers/STM32F0xx_HAL_Driver/Src/stm32f0xx_hal_rcc.c ****   /* Get the LSI configuration -----------------------------------------------*/
1250:Drivers/STM32F0xx_HAL_Driver/Src/stm32f0xx_hal_rcc.c ****   if((RCC->CSR &RCC_CSR_LSION) == RCC_CSR_LSION)
 2012              		.loc 1 1250 3 is_stmt 1 view .LVU582
 2013              		.loc 1 1250 10 is_stmt 0 view .LVU583
 2014 0032 234B     		ldr	r3, .L198
 2015 0034 5B6A     		ldr	r3, [r3, #36]
 2016              		.loc 1 1250 5 view .LVU584
 2017 0036 DB07     		lsls	r3, r3, #31
 2018 0038 39D5     		bpl	.L192
1251:Drivers/STM32F0xx_HAL_Driver/Src/stm32f0xx_hal_rcc.c ****   {
1252:Drivers/STM32F0xx_HAL_Driver/Src/stm32f0xx_hal_rcc.c ****     RCC_OscInitStruct->LSIState = RCC_LSI_ON;
 2019              		.loc 1 1252 5 is_stmt 1 view .LVU585
 2020              		.loc 1 1252 33 is_stmt 0 view .LVU586
 2021 003a 0123     		movs	r3, #1
 2022 003c C361     		str	r3, [r0, #28]
 2023              	.L193:
1253:Drivers/STM32F0xx_HAL_Driver/Src/stm32f0xx_hal_rcc.c ****   }
1254:Drivers/STM32F0xx_HAL_Driver/Src/stm32f0xx_hal_rcc.c ****   else
1255:Drivers/STM32F0xx_HAL_Driver/Src/stm32f0xx_hal_rcc.c ****   {
1256:Drivers/STM32F0xx_HAL_Driver/Src/stm32f0xx_hal_rcc.c ****     RCC_OscInitStruct->LSIState = RCC_LSI_OFF;
1257:Drivers/STM32F0xx_HAL_Driver/Src/stm32f0xx_hal_rcc.c ****   }
1258:Drivers/STM32F0xx_HAL_Driver/Src/stm32f0xx_hal_rcc.c ****   
1259:Drivers/STM32F0xx_HAL_Driver/Src/stm32f0xx_hal_rcc.c ****   /* Get the HSI14 configuration -----------------------------------------------*/
1260:Drivers/STM32F0xx_HAL_Driver/Src/stm32f0xx_hal_rcc.c ****   if((RCC->CR2 & RCC_CR2_HSI14ON) == RCC_CR2_HSI14ON)
 2024              		.loc 1 1260 3 is_stmt 1 view .LVU587
 2025              		.loc 1 1260 10 is_stmt 0 view .LVU588
 2026 003e 204B     		ldr	r3, .L198
 2027 0040 5B6B     		ldr	r3, [r3, #52]
 2028              		.loc 1 1260 5 view .LVU589
 2029 0042 DB07     		lsls	r3, r3, #31
 2030 0044 36D5     		bpl	.L194
1261:Drivers/STM32F0xx_HAL_Driver/Src/stm32f0xx_hal_rcc.c ****   {
1262:Drivers/STM32F0xx_HAL_Driver/Src/stm32f0xx_hal_rcc.c ****     RCC_OscInitStruct->HSI14State = RCC_HSI_ON;
 2031              		.loc 1 1262 5 is_stmt 1 view .LVU590
 2032              		.loc 1 1262 35 is_stmt 0 view .LVU591
 2033 0046 0123     		movs	r3, #1
 2034 0048 4361     		str	r3, [r0, #20]
 2035              	.L195:
1263:Drivers/STM32F0xx_HAL_Driver/Src/stm32f0xx_hal_rcc.c ****   }
1264:Drivers/STM32F0xx_HAL_Driver/Src/stm32f0xx_hal_rcc.c ****   else
1265:Drivers/STM32F0xx_HAL_Driver/Src/stm32f0xx_hal_rcc.c ****   {
1266:Drivers/STM32F0xx_HAL_Driver/Src/stm32f0xx_hal_rcc.c ****     RCC_OscInitStruct->HSI14State = RCC_HSI_OFF;
1267:Drivers/STM32F0xx_HAL_Driver/Src/stm32f0xx_hal_rcc.c ****   }
1268:Drivers/STM32F0xx_HAL_Driver/Src/stm32f0xx_hal_rcc.c **** 
1269:Drivers/STM32F0xx_HAL_Driver/Src/stm32f0xx_hal_rcc.c ****   RCC_OscInitStruct->HSI14CalibrationValue = (uint32_t)((RCC->CR2 & RCC_CR2_HSI14TRIM) >> RCC_HSI14
 2036              		.loc 1 1269 3 is_stmt 1 view .LVU592
 2037              		.loc 1 1269 61 is_stmt 0 view .LVU593
 2038 004a 1D49     		ldr	r1, .L198
 2039 004c 4A6B     		ldr	r2, [r1, #52]
 2040              		.loc 1 1269 46 view .LVU594
ARM GAS  C:\Users\Password\AppData\Local\Temp\ccQ2oVJO.s 			page 64


 2041 004e D208     		lsrs	r2, r2, #3
 2042 0050 1F23     		movs	r3, #31
 2043 0052 1340     		ands	r3, r2
 2044              		.loc 1 1269 44 view .LVU595
 2045 0054 8361     		str	r3, [r0, #24]
1270:Drivers/STM32F0xx_HAL_Driver/Src/stm32f0xx_hal_rcc.c ****   
1271:Drivers/STM32F0xx_HAL_Driver/Src/stm32f0xx_hal_rcc.c **** #if defined(RCC_HSI48_SUPPORT)
1272:Drivers/STM32F0xx_HAL_Driver/Src/stm32f0xx_hal_rcc.c ****   /* Get the HSI48 configuration if any-----------------------------------------*/
1273:Drivers/STM32F0xx_HAL_Driver/Src/stm32f0xx_hal_rcc.c ****   RCC_OscInitStruct->HSI48State = __HAL_RCC_GET_HSI48_STATE();
1274:Drivers/STM32F0xx_HAL_Driver/Src/stm32f0xx_hal_rcc.c **** #endif /* RCC_HSI48_SUPPORT */
1275:Drivers/STM32F0xx_HAL_Driver/Src/stm32f0xx_hal_rcc.c **** 
1276:Drivers/STM32F0xx_HAL_Driver/Src/stm32f0xx_hal_rcc.c ****   /* Get the PLL configuration -----------------------------------------------*/
1277:Drivers/STM32F0xx_HAL_Driver/Src/stm32f0xx_hal_rcc.c ****   if((RCC->CR &RCC_CR_PLLON) == RCC_CR_PLLON)
 2046              		.loc 1 1277 3 is_stmt 1 view .LVU596
 2047              		.loc 1 1277 10 is_stmt 0 view .LVU597
 2048 0056 0B68     		ldr	r3, [r1]
 2049              		.loc 1 1277 5 view .LVU598
 2050 0058 DB01     		lsls	r3, r3, #7
 2051 005a 2ED5     		bpl	.L196
1278:Drivers/STM32F0xx_HAL_Driver/Src/stm32f0xx_hal_rcc.c ****   {
1279:Drivers/STM32F0xx_HAL_Driver/Src/stm32f0xx_hal_rcc.c ****     RCC_OscInitStruct->PLL.PLLState = RCC_PLL_ON;
 2052              		.loc 1 1279 5 is_stmt 1 view .LVU599
 2053              		.loc 1 1279 37 is_stmt 0 view .LVU600
 2054 005c 0223     		movs	r3, #2
 2055 005e 0362     		str	r3, [r0, #32]
 2056              	.L197:
1280:Drivers/STM32F0xx_HAL_Driver/Src/stm32f0xx_hal_rcc.c ****   }
1281:Drivers/STM32F0xx_HAL_Driver/Src/stm32f0xx_hal_rcc.c ****   else
1282:Drivers/STM32F0xx_HAL_Driver/Src/stm32f0xx_hal_rcc.c ****   {
1283:Drivers/STM32F0xx_HAL_Driver/Src/stm32f0xx_hal_rcc.c ****     RCC_OscInitStruct->PLL.PLLState = RCC_PLL_OFF;
1284:Drivers/STM32F0xx_HAL_Driver/Src/stm32f0xx_hal_rcc.c ****   }
1285:Drivers/STM32F0xx_HAL_Driver/Src/stm32f0xx_hal_rcc.c ****   RCC_OscInitStruct->PLL.PLLSource = (uint32_t)(RCC->CFGR & RCC_CFGR_PLLSRC);
 2057              		.loc 1 1285 3 is_stmt 1 view .LVU601
 2058              		.loc 1 1285 52 is_stmt 0 view .LVU602
 2059 0060 174B     		ldr	r3, .L198
 2060 0062 5A68     		ldr	r2, [r3, #4]
 2061              		.loc 1 1285 38 view .LVU603
 2062 0064 8021     		movs	r1, #128
 2063 0066 4902     		lsls	r1, r1, #9
 2064 0068 0A40     		ands	r2, r1
 2065              		.loc 1 1285 36 view .LVU604
 2066 006a 4262     		str	r2, [r0, #36]
1286:Drivers/STM32F0xx_HAL_Driver/Src/stm32f0xx_hal_rcc.c ****   RCC_OscInitStruct->PLL.PLLMUL = (uint32_t)(RCC->CFGR & RCC_CFGR_PLLMUL);
 2067              		.loc 1 1286 3 is_stmt 1 view .LVU605
 2068              		.loc 1 1286 49 is_stmt 0 view .LVU606
 2069 006c 5A68     		ldr	r2, [r3, #4]
 2070              		.loc 1 1286 35 view .LVU607
 2071 006e F021     		movs	r1, #240
 2072 0070 8903     		lsls	r1, r1, #14
 2073 0072 0A40     		ands	r2, r1
 2074              		.loc 1 1286 33 view .LVU608
 2075 0074 8262     		str	r2, [r0, #40]
1287:Drivers/STM32F0xx_HAL_Driver/Src/stm32f0xx_hal_rcc.c ****   RCC_OscInitStruct->PLL.PREDIV = (uint32_t)(RCC->CFGR2 & RCC_CFGR2_PREDIV);
 2076              		.loc 1 1287 3 is_stmt 1 view .LVU609
 2077              		.loc 1 1287 49 is_stmt 0 view .LVU610
 2078 0076 DA6A     		ldr	r2, [r3, #44]
 2079              		.loc 1 1287 35 view .LVU611
ARM GAS  C:\Users\Password\AppData\Local\Temp\ccQ2oVJO.s 			page 65


 2080 0078 0F23     		movs	r3, #15
 2081 007a 1340     		ands	r3, r2
 2082              		.loc 1 1287 33 view .LVU612
 2083 007c C362     		str	r3, [r0, #44]
1288:Drivers/STM32F0xx_HAL_Driver/Src/stm32f0xx_hal_rcc.c **** }
 2084              		.loc 1 1288 1 view .LVU613
 2085              		@ sp needed
 2086 007e 7047     		bx	lr
 2087              	.L184:
1214:Drivers/STM32F0xx_HAL_Driver/Src/stm32f0xx_hal_rcc.c ****   {
 2088              		.loc 1 1214 8 is_stmt 1 view .LVU614
1214:Drivers/STM32F0xx_HAL_Driver/Src/stm32f0xx_hal_rcc.c ****   {
 2089              		.loc 1 1214 15 is_stmt 0 view .LVU615
 2090 0080 0F4B     		ldr	r3, .L198
 2091 0082 1B68     		ldr	r3, [r3]
1214:Drivers/STM32F0xx_HAL_Driver/Src/stm32f0xx_hal_rcc.c ****   {
 2092              		.loc 1 1214 10 view .LVU616
 2093 0084 DB03     		lsls	r3, r3, #15
 2094 0086 02D5     		bpl	.L186
1216:Drivers/STM32F0xx_HAL_Driver/Src/stm32f0xx_hal_rcc.c ****   }
 2095              		.loc 1 1216 5 is_stmt 1 view .LVU617
1216:Drivers/STM32F0xx_HAL_Driver/Src/stm32f0xx_hal_rcc.c ****   }
 2096              		.loc 1 1216 33 is_stmt 0 view .LVU618
 2097 0088 0123     		movs	r3, #1
 2098 008a 4360     		str	r3, [r0, #4]
 2099 008c C0E7     		b	.L185
 2100              	.L186:
1220:Drivers/STM32F0xx_HAL_Driver/Src/stm32f0xx_hal_rcc.c ****   }
 2101              		.loc 1 1220 5 is_stmt 1 view .LVU619
1220:Drivers/STM32F0xx_HAL_Driver/Src/stm32f0xx_hal_rcc.c ****   }
 2102              		.loc 1 1220 33 is_stmt 0 view .LVU620
 2103 008e 0023     		movs	r3, #0
 2104 0090 4360     		str	r3, [r0, #4]
 2105 0092 BDE7     		b	.L185
 2106              	.L187:
1230:Drivers/STM32F0xx_HAL_Driver/Src/stm32f0xx_hal_rcc.c ****   }
 2107              		.loc 1 1230 5 is_stmt 1 view .LVU621
1230:Drivers/STM32F0xx_HAL_Driver/Src/stm32f0xx_hal_rcc.c ****   }
 2108              		.loc 1 1230 33 is_stmt 0 view .LVU622
 2109 0094 0023     		movs	r3, #0
 2110 0096 C360     		str	r3, [r0, #12]
 2111 0098 C0E7     		b	.L188
 2112              	.L189:
1240:Drivers/STM32F0xx_HAL_Driver/Src/stm32f0xx_hal_rcc.c ****   {
 2113              		.loc 1 1240 8 is_stmt 1 view .LVU623
1240:Drivers/STM32F0xx_HAL_Driver/Src/stm32f0xx_hal_rcc.c ****   {
 2114              		.loc 1 1240 15 is_stmt 0 view .LVU624
 2115 009a 094B     		ldr	r3, .L198
 2116 009c 1B6A     		ldr	r3, [r3, #32]
1240:Drivers/STM32F0xx_HAL_Driver/Src/stm32f0xx_hal_rcc.c ****   {
 2117              		.loc 1 1240 10 view .LVU625
 2118 009e DB07     		lsls	r3, r3, #31
 2119 00a0 02D5     		bpl	.L191
1242:Drivers/STM32F0xx_HAL_Driver/Src/stm32f0xx_hal_rcc.c ****   }
 2120              		.loc 1 1242 5 is_stmt 1 view .LVU626
1242:Drivers/STM32F0xx_HAL_Driver/Src/stm32f0xx_hal_rcc.c ****   }
 2121              		.loc 1 1242 33 is_stmt 0 view .LVU627
ARM GAS  C:\Users\Password\AppData\Local\Temp\ccQ2oVJO.s 			page 66


 2122 00a2 0123     		movs	r3, #1
 2123 00a4 8360     		str	r3, [r0, #8]
 2124 00a6 C4E7     		b	.L190
 2125              	.L191:
1246:Drivers/STM32F0xx_HAL_Driver/Src/stm32f0xx_hal_rcc.c ****   }
 2126              		.loc 1 1246 5 is_stmt 1 view .LVU628
1246:Drivers/STM32F0xx_HAL_Driver/Src/stm32f0xx_hal_rcc.c ****   }
 2127              		.loc 1 1246 33 is_stmt 0 view .LVU629
 2128 00a8 0023     		movs	r3, #0
 2129 00aa 8360     		str	r3, [r0, #8]
 2130 00ac C1E7     		b	.L190
 2131              	.L192:
1256:Drivers/STM32F0xx_HAL_Driver/Src/stm32f0xx_hal_rcc.c ****   }
 2132              		.loc 1 1256 5 is_stmt 1 view .LVU630
1256:Drivers/STM32F0xx_HAL_Driver/Src/stm32f0xx_hal_rcc.c ****   }
 2133              		.loc 1 1256 33 is_stmt 0 view .LVU631
 2134 00ae 0023     		movs	r3, #0
 2135 00b0 C361     		str	r3, [r0, #28]
 2136 00b2 C4E7     		b	.L193
 2137              	.L194:
1266:Drivers/STM32F0xx_HAL_Driver/Src/stm32f0xx_hal_rcc.c ****   }
 2138              		.loc 1 1266 5 is_stmt 1 view .LVU632
1266:Drivers/STM32F0xx_HAL_Driver/Src/stm32f0xx_hal_rcc.c ****   }
 2139              		.loc 1 1266 35 is_stmt 0 view .LVU633
 2140 00b4 0023     		movs	r3, #0
 2141 00b6 4361     		str	r3, [r0, #20]
 2142 00b8 C7E7     		b	.L195
 2143              	.L196:
1283:Drivers/STM32F0xx_HAL_Driver/Src/stm32f0xx_hal_rcc.c ****   }
 2144              		.loc 1 1283 5 is_stmt 1 view .LVU634
1283:Drivers/STM32F0xx_HAL_Driver/Src/stm32f0xx_hal_rcc.c ****   }
 2145              		.loc 1 1283 37 is_stmt 0 view .LVU635
 2146 00ba 0123     		movs	r3, #1
 2147 00bc 0362     		str	r3, [r0, #32]
 2148 00be CFE7     		b	.L197
 2149              	.L199:
 2150              		.align	2
 2151              	.L198:
 2152 00c0 00100240 		.word	1073876992
 2153              		.cfi_endproc
 2154              	.LFE49:
 2156              		.section	.text.HAL_RCC_GetClockConfig,"ax",%progbits
 2157              		.align	1
 2158              		.global	HAL_RCC_GetClockConfig
 2159              		.syntax unified
 2160              		.code	16
 2161              		.thumb_func
 2163              	HAL_RCC_GetClockConfig:
 2164              	.LVL131:
 2165              	.LFB50:
1289:Drivers/STM32F0xx_HAL_Driver/Src/stm32f0xx_hal_rcc.c **** 
1290:Drivers/STM32F0xx_HAL_Driver/Src/stm32f0xx_hal_rcc.c **** /**
1291:Drivers/STM32F0xx_HAL_Driver/Src/stm32f0xx_hal_rcc.c ****   * @brief  Get the RCC_ClkInitStruct according to the internal 
1292:Drivers/STM32F0xx_HAL_Driver/Src/stm32f0xx_hal_rcc.c ****   * RCC configuration registers.
1293:Drivers/STM32F0xx_HAL_Driver/Src/stm32f0xx_hal_rcc.c ****   * @param  RCC_ClkInitStruct pointer to an RCC_ClkInitTypeDef structure that 
1294:Drivers/STM32F0xx_HAL_Driver/Src/stm32f0xx_hal_rcc.c ****   * contains the current clock configuration.
1295:Drivers/STM32F0xx_HAL_Driver/Src/stm32f0xx_hal_rcc.c ****   * @param  pFLatency Pointer on the Flash Latency.
ARM GAS  C:\Users\Password\AppData\Local\Temp\ccQ2oVJO.s 			page 67


1296:Drivers/STM32F0xx_HAL_Driver/Src/stm32f0xx_hal_rcc.c ****   * @retval None
1297:Drivers/STM32F0xx_HAL_Driver/Src/stm32f0xx_hal_rcc.c ****   */
1298:Drivers/STM32F0xx_HAL_Driver/Src/stm32f0xx_hal_rcc.c **** void HAL_RCC_GetClockConfig(RCC_ClkInitTypeDef  *RCC_ClkInitStruct, uint32_t *pFLatency)
1299:Drivers/STM32F0xx_HAL_Driver/Src/stm32f0xx_hal_rcc.c **** {
 2166              		.loc 1 1299 1 is_stmt 1 view -0
 2167              		.cfi_startproc
 2168              		@ args = 0, pretend = 0, frame = 0
 2169              		@ frame_needed = 0, uses_anonymous_args = 0
 2170              		.loc 1 1299 1 is_stmt 0 view .LVU637
 2171 0000 10B5     		push	{r4, lr}
 2172              	.LCFI9:
 2173              		.cfi_def_cfa_offset 8
 2174              		.cfi_offset 4, -8
 2175              		.cfi_offset 14, -4
1300:Drivers/STM32F0xx_HAL_Driver/Src/stm32f0xx_hal_rcc.c ****   /* Check the parameters */
1301:Drivers/STM32F0xx_HAL_Driver/Src/stm32f0xx_hal_rcc.c ****   assert_param(RCC_ClkInitStruct != NULL);
 2176              		.loc 1 1301 3 is_stmt 1 view .LVU638
1302:Drivers/STM32F0xx_HAL_Driver/Src/stm32f0xx_hal_rcc.c ****   assert_param(pFLatency != NULL);
 2177              		.loc 1 1302 3 view .LVU639
1303:Drivers/STM32F0xx_HAL_Driver/Src/stm32f0xx_hal_rcc.c **** 
1304:Drivers/STM32F0xx_HAL_Driver/Src/stm32f0xx_hal_rcc.c ****   /* Set all possible values for the Clock type parameter --------------------*/
1305:Drivers/STM32F0xx_HAL_Driver/Src/stm32f0xx_hal_rcc.c ****   RCC_ClkInitStruct->ClockType = RCC_CLOCKTYPE_SYSCLK | RCC_CLOCKTYPE_HCLK | RCC_CLOCKTYPE_PCLK1;
 2178              		.loc 1 1305 3 view .LVU640
 2179              		.loc 1 1305 32 is_stmt 0 view .LVU641
 2180 0002 0723     		movs	r3, #7
 2181 0004 0360     		str	r3, [r0]
1306:Drivers/STM32F0xx_HAL_Driver/Src/stm32f0xx_hal_rcc.c ****   
1307:Drivers/STM32F0xx_HAL_Driver/Src/stm32f0xx_hal_rcc.c ****   /* Get the SYSCLK configuration --------------------------------------------*/ 
1308:Drivers/STM32F0xx_HAL_Driver/Src/stm32f0xx_hal_rcc.c ****   RCC_ClkInitStruct->SYSCLKSource = (uint32_t)(RCC->CFGR & RCC_CFGR_SW);
 2182              		.loc 1 1308 3 is_stmt 1 view .LVU642
 2183              		.loc 1 1308 51 is_stmt 0 view .LVU643
 2184 0006 0A4B     		ldr	r3, .L201
 2185 0008 5C68     		ldr	r4, [r3, #4]
 2186              		.loc 1 1308 37 view .LVU644
 2187 000a 0322     		movs	r2, #3
 2188 000c 2240     		ands	r2, r4
 2189              		.loc 1 1308 35 view .LVU645
 2190 000e 4260     		str	r2, [r0, #4]
1309:Drivers/STM32F0xx_HAL_Driver/Src/stm32f0xx_hal_rcc.c ****   
1310:Drivers/STM32F0xx_HAL_Driver/Src/stm32f0xx_hal_rcc.c ****   /* Get the HCLK configuration ----------------------------------------------*/ 
1311:Drivers/STM32F0xx_HAL_Driver/Src/stm32f0xx_hal_rcc.c ****   RCC_ClkInitStruct->AHBCLKDivider = (uint32_t)(RCC->CFGR & RCC_CFGR_HPRE); 
 2191              		.loc 1 1311 3 is_stmt 1 view .LVU646
 2192              		.loc 1 1311 52 is_stmt 0 view .LVU647
 2193 0010 5C68     		ldr	r4, [r3, #4]
 2194              		.loc 1 1311 38 view .LVU648
 2195 0012 F022     		movs	r2, #240
 2196 0014 2240     		ands	r2, r4
 2197              		.loc 1 1311 36 view .LVU649
 2198 0016 8260     		str	r2, [r0, #8]
1312:Drivers/STM32F0xx_HAL_Driver/Src/stm32f0xx_hal_rcc.c ****   
1313:Drivers/STM32F0xx_HAL_Driver/Src/stm32f0xx_hal_rcc.c ****   /* Get the APB1 configuration ----------------------------------------------*/ 
1314:Drivers/STM32F0xx_HAL_Driver/Src/stm32f0xx_hal_rcc.c ****   RCC_ClkInitStruct->APB1CLKDivider = (uint32_t)(RCC->CFGR & RCC_CFGR_PPRE);   
 2199              		.loc 1 1314 3 is_stmt 1 view .LVU650
 2200              		.loc 1 1314 53 is_stmt 0 view .LVU651
 2201 0018 5B68     		ldr	r3, [r3, #4]
 2202              		.loc 1 1314 39 view .LVU652
 2203 001a E022     		movs	r2, #224
ARM GAS  C:\Users\Password\AppData\Local\Temp\ccQ2oVJO.s 			page 68


 2204 001c D200     		lsls	r2, r2, #3
 2205 001e 1340     		ands	r3, r2
 2206              		.loc 1 1314 37 view .LVU653
 2207 0020 C360     		str	r3, [r0, #12]
1315:Drivers/STM32F0xx_HAL_Driver/Src/stm32f0xx_hal_rcc.c ****   /* Get the Flash Wait State (Latency) configuration ------------------------*/   
1316:Drivers/STM32F0xx_HAL_Driver/Src/stm32f0xx_hal_rcc.c ****   *pFLatency = __HAL_FLASH_GET_LATENCY(); 
 2208              		.loc 1 1316 3 is_stmt 1 view .LVU654
 2209              		.loc 1 1316 16 is_stmt 0 view .LVU655
 2210 0022 044B     		ldr	r3, .L201+4
 2211 0024 1A68     		ldr	r2, [r3]
 2212 0026 0123     		movs	r3, #1
 2213 0028 1340     		ands	r3, r2
 2214              		.loc 1 1316 14 view .LVU656
 2215 002a 0B60     		str	r3, [r1]
1317:Drivers/STM32F0xx_HAL_Driver/Src/stm32f0xx_hal_rcc.c **** }
 2216              		.loc 1 1317 1 view .LVU657
 2217              		@ sp needed
 2218 002c 10BD     		pop	{r4, pc}
 2219              	.L202:
 2220 002e C046     		.align	2
 2221              	.L201:
 2222 0030 00100240 		.word	1073876992
 2223 0034 00200240 		.word	1073881088
 2224              		.cfi_endproc
 2225              	.LFE50:
 2227              		.section	.text.HAL_RCC_CSSCallback,"ax",%progbits
 2228              		.align	1
 2229              		.weak	HAL_RCC_CSSCallback
 2230              		.syntax unified
 2231              		.code	16
 2232              		.thumb_func
 2234              	HAL_RCC_CSSCallback:
 2235              	.LFB52:
1318:Drivers/STM32F0xx_HAL_Driver/Src/stm32f0xx_hal_rcc.c **** 
1319:Drivers/STM32F0xx_HAL_Driver/Src/stm32f0xx_hal_rcc.c **** /**
1320:Drivers/STM32F0xx_HAL_Driver/Src/stm32f0xx_hal_rcc.c ****   * @brief This function handles the RCC CSS interrupt request.
1321:Drivers/STM32F0xx_HAL_Driver/Src/stm32f0xx_hal_rcc.c ****   * @note This API should be called under the NMI_Handler().
1322:Drivers/STM32F0xx_HAL_Driver/Src/stm32f0xx_hal_rcc.c ****   * @retval None
1323:Drivers/STM32F0xx_HAL_Driver/Src/stm32f0xx_hal_rcc.c ****   */
1324:Drivers/STM32F0xx_HAL_Driver/Src/stm32f0xx_hal_rcc.c **** void HAL_RCC_NMI_IRQHandler(void)
1325:Drivers/STM32F0xx_HAL_Driver/Src/stm32f0xx_hal_rcc.c **** {
1326:Drivers/STM32F0xx_HAL_Driver/Src/stm32f0xx_hal_rcc.c ****   /* Check RCC CSSF flag  */
1327:Drivers/STM32F0xx_HAL_Driver/Src/stm32f0xx_hal_rcc.c ****   if(__HAL_RCC_GET_IT(RCC_IT_CSS))
1328:Drivers/STM32F0xx_HAL_Driver/Src/stm32f0xx_hal_rcc.c ****   {
1329:Drivers/STM32F0xx_HAL_Driver/Src/stm32f0xx_hal_rcc.c ****     /* RCC Clock Security System interrupt user callback */
